 hvh

 Timestamp is 5fe14a10 (Mon Dec 21 20:21:20 2020)

 Preferred load address is 10000000

 Start         Length     Name                   Class
 0001:00000000 00000c70H .text                   CODE
 0001:00000c70 00005370H .text$di                CODE
 0001:00005fe0 001795a0H .text$mn                CODE
 0001:0017f580 00004fb0H .text$x                 CODE
 0001:00184530 0000054fH .text$yd                CODE
 0002:00000000 00000340H .idata$5                DATA
 0002:00000340 00000004H .00cfg                  DATA
 0002:00000344 00000004H .CRT$XCA                DATA
 0002:00000348 00000004H .CRT$XCL                DATA
 0002:0000034c 00000868H .CRT$XCU                DATA
 0002:00000bb4 00000004H .CRT$XCZ                DATA
 0002:00000bb8 00000004H .CRT$XIA                DATA
 0002:00000bbc 00000004H .CRT$XIC                DATA
 0002:00000bc0 00000004H .CRT$XIZ                DATA
 0002:00000bc4 00000004H .CRT$XLA                DATA
 0002:00000bc8 00000004H .CRT$XLZ                DATA
 0002:00000bcc 00000004H .CRT$XPA                DATA
 0002:00000bd0 00000004H .CRT$XPZ                DATA
 0002:00000bd4 00000004H .CRT$XTA                DATA
 0002:00000bd8 00000008H .CRT$XTZ                DATA
 0002:00000bdc 00000000H .gfids$y                DATA
 0002:00000be0 0008b048H .rdata                  DATA
 0002:0008bc28 00000018H .rdata$T                DATA
 0002:0008bc40 000007f8H .rdata$r                DATA
 0002:0008c438 000003e4H .rdata$zzzdbg           DATA
 0002:0008c81c 00000004H .rtc$IAA                DATA
 0002:0008c820 00000004H .rtc$IZZ                DATA
 0002:0008c824 00000004H .rtc$TAA                DATA
 0002:0008c828 00000004H .rtc$TZZ                DATA
 0002:0008c82c 00000004H .tls                    DATA
 0002:0008c830 00000004H .tls$                   DATA
 0002:0008c834 00000004H .tls$ZZZ                DATA
 0002:0008c838 00005ac4H .xdata$x                DATA
 0002:000922fc 00000000H .edata                  DATA
 0002:000922fc 000000b4H .idata$2                DATA
 0002:000923b0 00000014H .idata$3                DATA
 0002:000923c4 00000340H .idata$4                DATA
 0002:00092704 000014c6H .idata$6                DATA
 0003:00000000 0039aa78H .data                   DATA
 0003:0039aa78 00000468H .data$r                 DATA
 0003:0039aee0 001a7558H .bss                    DATA
 0004:00000000 00002ceaH .msvcjmc                DATA
 0005:00000000 00000060H .rsrc$01                DATA
 0005:00000060 00000180H .rsrc$02                DATA

  Address         Publics by Value              Rva+Base       Lib:Object

 0000:00000000       ___dynamic_value_reloc_table 00000000     <absolute>
 0000:00000000       __except_list              00000000     <absolute>
 0000:00000000       ___arm64x_native_entrypoint 00000000     <absolute>
 0000:00000000       ___guard_iat_count         00000000     <absolute>
 0000:00000000       ___hybrid_code_map_count   00000000     <absolute>
 0000:00000000       ___guard_fids_table        00000000     <absolute>
 0000:00000000       ___guard_longjmp_table     00000000     <absolute>
 0000:00000000       ___hybrid_auxiliary_iat    00000000     <absolute>
 0000:00000000       ___guard_fids_count        00000000     <absolute>
 0000:00000000       ___guard_longjmp_count     00000000     <absolute>
 0000:00000000       ___guard_iat_table         00000000     <absolute>
 0000:00000000       ___arm64x_redirection_metadata_count 00000000     <absolute>
 0000:00000000       ___arm64x_extra_rfe_table  00000000     <absolute>
 0000:00000000       ___x64_code_ranges_to_entry_points 00000000     <absolute>
 0000:00000000       ___volatile_metadata       00000000     <absolute>
 0000:00000000       ___enclave_config          00000000     <absolute>
 0000:00000000       ___AbsoluteZero            00000000     <absolute>
 0000:00000000       ___safe_se_handler_count   00000000     <absolute>
 0000:00000000       ___guard_eh_cont_table     00000000     <absolute>
 0000:00000000       ___arm64x_extra_rfe_table_size 00000000     <absolute>
 0000:00000000       ___safe_se_handler_table   00000000     <absolute>
 0000:00000000       ___x64_code_ranges_to_entry_points_count 00000000     <absolute>
 0000:00000000       ___guard_eh_cont_count     00000000     <absolute>
 0000:00000000       ___hybrid_code_map         00000000     <absolute>
 0000:00000000       ___arm64x_redirection_metadata 00000000     <absolute>
 0000:0000002c       __tls_array                0000002c     <absolute>
 0000:00000100       ___guard_flags             00000100     <absolute>
 0000:00009876       __ldused                   00009876     <absolute>
 0000:00000000       ___ImageBase               10000000     <linker-defined>
 0001:00000000       ??0CDetourEnableWriteOnCodePage@@QAE@PAEJ@Z 10001000 f i detours:detours.obj
 0001:00000080       ??1CDetourEnableWriteOnCodePage@@QAE@XZ 10001080 f i detours:detours.obj
 0001:000000f0       _DetourFunction@8          100010f0 f   detours:detours.obj
 0001:000003e0       ?SetPermission@CDetourEnableWriteOnCodePage@@QAEHK@Z 100013e0 f i detours:detours.obj
 0001:00000420       ?IsValid@CDetourEnableWriteOnCodePage@@QAEHXZ 10001420 f i detours:detours.obj
 0001:000004c0       ?DetourGenJmp@@YAPAEPAE00@Z 100014c0 f i detours:detours.obj
 0001:00000500       ?DetourGenBreak@@YAPAEPAE@Z 10001500 f i detours:detours.obj
 0001:00000520       _DetourGetFinalCode@8      10001520 f   detours:detours.obj
 0001:00000590       _DetourCopyInstruction@12  10001590 f   detours:disasm.obj
 0001:000005c0       ??0CDetourDis@@QAE@PAPAEPAJ@Z 100015c0 f   detours:disasm.obj
 0001:00000640       ?Set16BitOperand@CDetourDis@@IAEXXZ 10001640 f   detours:disasm.obj
 0001:00000660       ?Set32BitOperand@CDetourDis@@IAEXXZ 10001660 f   detours:disasm.obj
 0001:00000680       ?Set16BitAddress@CDetourDis@@IAEXXZ 10001680 f   detours:disasm.obj
 0001:000006a0       ?Set32BitAddress@CDetourDis@@IAEXXZ 100016a0 f   detours:disasm.obj
 0001:000006c0       ?CopyInstruction@CDetourDis@@QAEPAEPAE0@Z 100016c0 f   detours:disasm.obj
 0001:00000720       ?CopyBytes@CDetourDis@@IAEPAEPBUCOPYENTRY@1@PAE1@Z 10001720 f   detours:disasm.obj
 0001:00000900       ?CopyBytesPrefix@CDetourDis@@IAEPAEPBUCOPYENTRY@1@PAE1@Z 10001900 f   detours:disasm.obj
 0001:00000950       ?AdjustTarget@CDetourDis@@IAEPAEPAE0JJ@Z 10001950 f   detours:disasm.obj
 0001:00000a30       ?Invalid@CDetourDis@@IAEPAEPBUCOPYENTRY@1@PAE1@Z 10001a30 f   detours:disasm.obj
 0001:00000a50       ?Copy0F@CDetourDis@@IAEPAEPBUCOPYENTRY@1@PAE1@Z 10001a50 f   detours:disasm.obj
 0001:00000aa0       ?Copy66@CDetourDis@@IAEPAEPBUCOPYENTRY@1@PAE1@Z 10001aa0 f   detours:disasm.obj
 0001:00000ad0       ?Copy67@CDetourDis@@IAEPAEPBUCOPYENTRY@1@PAE1@Z 10001ad0 f   detours:disasm.obj
 0001:00000b00       ?CopyF6@CDetourDis@@IAEPAEPBUCOPYENTRY@1@PAE1@Z 10001b00 f   detours:disasm.obj
 0001:00000b60       ?CopyF7@CDetourDis@@IAEPAEPBUCOPYENTRY@1@PAE1@Z 10001b60 f   detours:disasm.obj
 0001:00000bc0       ?CopyFF@CDetourDis@@IAEPAEPBUCOPYENTRY@1@PAE1@Z 10001bc0 f   detours:disasm.obj
 0001:00005ff0       ??0exception@std@@QAE@QBDH@Z 10006ff0 f i autowall.obj
 0001:00006050       ??0exception@std@@QAE@ABV01@@Z 10007050 f i autowall.obj
 0001:000060c0       ?what@exception@std@@UBEPBDXZ 100070c0 f i autowall.obj
 0001:00006100       ??_Gbad_cast@std@@UAEPAXI@Z 10007100 f i configs.obj
 0001:00006100       ??_Gbad_alloc@std@@UAEPAXI@Z 10007100 f i autowall.obj
 0001:00006100       ??_Ebad_array_new_length@std@@UAEPAXI@Z 10007100 f i * CIL library *:* CIL module *
 0001:00006100       ??_Gbad_array_new_length@std@@UAEPAXI@Z 10007100 f i autowall.obj
 0001:00006100       ??_Ebad_alloc@std@@UAEPAXI@Z 10007100 f i * CIL library *:* CIL module *
 0001:00006100       ??_Eexception@std@@UAEPAXI@Z 10007100 f i * CIL library *:* CIL module *
 0001:00006100       ??_Gexception@std@@UAEPAXI@Z 10007100 f i autowall.obj
 0001:00006100       ??_Ebad_cast@std@@UAEPAXI@Z 10007100 f i * CIL library *:* CIL module *
 0001:00006140       ??1bad_array_new_length@std@@UAE@XZ 10007140 f i autowall.obj
 0001:00006140       ??1bad_cast@std@@UAE@XZ    10007140 f i configs.obj
 0001:00006140       ??1bad_alloc@std@@UAE@XZ   10007140 f i autowall.obj
 0001:00006170       ??0bad_array_new_length@std@@QAE@XZ 10007170 f i autowall.obj
 0001:000061e0       ?_Throw_bad_array_new_length@std@@YAXXZ 100071e0 f i autowall.obj
 0001:00006210       ??0bad_array_new_length@std@@QAE@ABV01@@Z 10007210 f i autowall.obj
 0001:00006260       ??0bad_alloc@std@@QAE@ABV01@@Z 10007260 f i autowall.obj
 0001:000062b0       ?_Adjust_manually_vector_aligned@std@@YAXAAPAXAAI@Z 100072b0 f i autowall.obj
 0001:000063d0       ?_Orphan_all@_Container_base12@std@@QAEXXZ 100073d0 f i autowall.obj
 0001:00006470       ??0Vector@@QAE@XZ          10007470 f i autowall.obj
 0001:000064c0       ?NormalizeInPlace@Vector@@QAEXXZ 100074c0 f i autowall.obj
 0001:00006550       ?Length@Vector@@QBEMXZ     10007550 f i autowall.obj
 0001:000065c0       ??HVector@@QBE?AV0@ABV0@@Z 100075c0 f i autowall.obj
 0001:00006640       ??GVector@@QBE?AV0@ABV0@@Z 10007640 f i autowall.obj
 0001:000066c0       ?ShouldHitEntity@CTraceFilter@@UAE_NPAVIHandleEntity@@H@Z 100076c0 f i autowall.obj
 0001:00006790       ?GetTraceType@CTraceFilter@@UBE?AW4TraceType@@XZ 10007790 f i autowall.obj
 0001:00006790       ?GetTraceType@CTraceFilterWorldAndPropsOnly@@UBE?AW4TraceType@@XZ 10007790 f i misc.obj
 0001:000067b0       ??0CBaseTrace@@QAE@XZ      100077b0 f i autowall.obj
 0001:00006880       ??4cplane_t@@QAEAAU0@ABU0@@Z 10007880 f i autowall.obj
 0001:00006910       ?get@netvars@@SAAAV1@XZ    10007910 f i autowall.obj
 0001:000069b0       ?Get@CBaseHandle@@QBEPAVIHandleEntity@@XZ 100079b0 f i autowall.obj
 0001:00006a00       ?m_iTeamNum@entity_t@@QBEAAHXZ 10007a00 f i autowall.obj
 0001:00006ab0       ?m_ArmorValue@player_t@@QBEAAHXZ 10007ab0 f i autowall.obj
 0001:00006b60       ?m_bHasHelmet@player_t@@QBEAA_NXZ 10007b60 f i autowall.obj
 0001:00006c10       ?m_bHasHeavyArmor@player_t@@QBEAA_NXZ 10007c10 f i autowall.obj
 0001:00006cc0       ?m_hActiveWeapon@player_t@@QBEAAV?$CHandle@Vweapon_t@@@@XZ 10007cc0 f i autowall.obj
 0001:00006d70       ?is_breakable_entity@autowall@@QAE_NPAVIClientEntity@@@Z 10007d70 f   autowall.obj
 0001:00006fc0       ?scale_damage@autowall@@QAEXPAVplayer_t@@AAVCGameTrace@@PAVweapon_info_t@@AAM@Z 10007fc0 f   autowall.obj
 0001:00007510       ?trace_to_exit@autowall@@QAE_NAAVCGameTrace@@0VVector@@ABV3@@Z 10008510 f   autowall.obj
 0001:00007e20       ??4CGameTrace@@QAEAAV0@ABV0@@Z 10008e20 f i autowall.obj
 0001:00007ea0       ??4CBaseTrace@@QAEAAV0@ABV0@@Z 10008ea0 f i autowall.obj
 0001:00007f70       ?handle_bullet_penetration@autowall@@QAE_NPAVweapon_info_t@@AAVCGameTrace@@AAVVector@@ABV4@AAHAAMMMM_N@Z 10008f70 f   autowall.obj
 0001:00008400       ?fire_bullet@autowall@@QAE_NPAVweapon_t@@AAVVector@@AA_NAAMAAHPAVIClientEntity@@MABV3@@Z 10009400 f   autowall.obj
 0001:00008ad0       ?wall_penetration@autowall@@QAE?AUreturninfo_t@1@ABVVector@@AAV3@PAVIClientEntity@@@Z 10009ad0 f   autowall.obj
 0001:00008c80       ?__global_delete@@YAXPAXI@Z 10009c80 f i * CIL library *:* CIL module *
 0001:00008c80       ?__empty_global_delete@@YAXPAXI@Z 10009c80 f i autowall.obj
 0001:00008cc0       ??0?$unordered_map@V?$basic_string@DU?$char_traits@D@std@@V?$allocator@D@2@@std@@PAURecvTable@@U?$hash@V?$basic_string@DU?$char_traits@D@std@@V?$allocator@D@2@@std@@@2@U?$equal_to@V?$basic_string@DU?$char_traits@D@std@@V?$allocator@D@2@@std@@@2@V?$allocator@U?$pair@$$CBV?$basic_string@DU?$char_traits@D@std@@V?$allocator@D@2@@std@@PAURecvTable@@@std@@@2@@std@@QAE@XZ 10009cc0 f i autowall.obj
 0001:00008d40       ??1?$_Hash_vec@V?$allocator@V?$_List_unchecked_iterator@V?$_List_val@U?$_List_simple_types@U?$pair@$$CBV?$basic_string@DU?$char_traits@D@std@@V?$allocator@D@2@@std@@PAURecvTable@@@std@@@std@@@std@@@std@@@std@@@std@@QAE@XZ 10009d40 f i autowall.obj
 0001:00008d40       ??1?$_Hash_vec@V?$allocator@V?$_List_unchecked_iterator@V?$_List_val@U?$_List_simple_types@U?$pair@$$CBHW4key_bind_mode@@@std@@@std@@@std@@@std@@@std@@@std@@QAE@XZ 10009d40 f i local_animations.obj
 0001:00008d40       ??1?$_Hash_vec@V?$allocator@V?$_List_unchecked_iterator@V?$_List_val@U?$_List_simple_types@U?$pair@$$CBH_N@std@@@std@@@std@@@std@@@std@@@std@@QAE@XZ 10009d40 f i local_animations.obj
 0001:00008dd0       ??1?$list@U?$pair@$$CBV?$basic_string@DU?$char_traits@D@std@@V?$allocator@D@2@@std@@PAURecvTable@@@std@@V?$allocator@U?$pair@$$CBV?$basic_string@DU?$char_traits@D@std@@V?$allocator@D@2@@std@@PAURecvTable@@@std@@@2@@std@@QAE@XZ 10009dd0 f i autowall.obj
 0001:00008e40       ??1?$basic_string@DU?$char_traits@D@std@@V?$allocator@D@2@@std@@QAE@XZ 10009e40 f i autowall.obj
 0001:00008ec0       ??1?$_Compressed_pair@V?$allocator@_W@std@@V?$_String_val@U?$_Simple_types@_W@std@@@2@$00@std@@QAE@XZ 10009ec0 f i main.obj
 0001:00008ec0       ??1?$_Compressed_pair@V?$allocator@D@std@@V?$_String_val@U?$_Simple_types@D@std@@@2@$00@std@@QAE@XZ 10009ec0 f i autowall.obj
 0001:00008ec0       @_guard_check_icall_nop@4  10009ec0 f i MSVCRTD:guard_support.obj
 0001:00008ed0       ??1?$_Container_proxy_ptr12@V?$allocator@U_Container_proxy@std@@@std@@@std@@QAE@XZ 10009ed0 f i autowall.obj
 0001:00008f30       ??0?$_Container_proxy_ptr12@V?$allocator@U_Container_proxy@std@@@std@@@std@@QAE@AAV?$allocator@U_Container_proxy@std@@@1@AAU_Container_base12@1@@Z 10009f30 f i autowall.obj
 0001:00008fc0       ?_Tidy@?$_Hash_vec@V?$allocator@V?$_List_unchecked_iterator@V?$_List_val@U?$_List_simple_types@U?$pair@$$CBHW4key_bind_mode@@@std@@@std@@@std@@@std@@@std@@@std@@QAEXXZ 10009fc0 f i local_animations.obj
 0001:00008fc0       ?_Tidy@?$_Hash_vec@V?$allocator@V?$_List_unchecked_iterator@V?$_List_val@U?$_List_simple_types@U?$pair@$$CBV?$basic_string@DU?$char_traits@D@std@@V?$allocator@D@2@@std@@PAURecvTable@@@std@@@std@@@std@@@std@@@std@@@std@@QAEXXZ 10009fc0 f i autowall.obj
 0001:00008fc0       ?_Tidy@?$_Hash_vec@V?$allocator@V?$_List_unchecked_iterator@V?$_List_val@U?$_List_simple_types@U?$pair@$$CBH_N@std@@@std@@@std@@@std@@@std@@@std@@QAEXXZ 10009fc0 f i local_animations.obj
 0001:00009070       ??0?$_Hash@V?$_Umap_traits@V?$basic_string@DU?$char_traits@D@std@@V?$allocator@D@2@@std@@PAURecvTable@@V?$_Uhash_compare@V?$basic_string@DU?$char_traits@D@std@@V?$allocator@D@2@@std@@U?$hash@V?$basic_string@DU?$char_traits@D@std@@V?$allocator@D@2@@std@@@2@U?$equal_to@V?$basic_string@DU?$char_traits@D@std@@V?$allocator@D@2@@std@@@2@@2@V?$allocator@U?$pair@$$CBV?$basic_string@DU?$char_traits@D@std@@V?$allocator@D@2@@std@@PAURecvTable@@@std@@@2@$0A@@std@@@std@@IAE@ABV?$_Uhash_compare@V?$basic_string@DU?$char_traits@D@std@@V?$allocator@D@2@@std@@U?$hash@V?$basic_string@DU?$char_traits@D@std@@V?$allocator@D@2@@std@@@2@U?$equal_to@V?$basic_string@DU?$char_traits@D@std@@V?$allocator@D@2@@std@@@2@@1@ABV?$allocator@U?$pair@$$CBV?$basic_string@DU?$char_traits@D@std@@V?$allocator@D@2@@std@@PAURecvTable@@@std@@@1@@Z 1000a070 f i autowall.obj
 0001:00009190       ?_Tidy@?$list@U?$pair@$$CBV?$basic_string@DU?$char_traits@D@std@@V?$allocator@D@2@@std@@PAURecvTable@@@std@@V?$allocator@U?$pair@$$CBV?$basic_string@DU?$char_traits@D@std@@V?$allocator@D@2@@std@@PAURecvTable@@@std@@@2@@std@@AAEXXZ 1000a190 f i autowall.obj
 0001:00009270       ?_Tidy_deallocate@?$basic_string@DU?$char_traits@D@std@@V?$allocator@D@2@@std@@AAEXXZ 1000a270 f i autowall.obj
 0001:00009350       ?_Assign_grow@?$_Hash_vec@V?$allocator@V?$_List_unchecked_iterator@V?$_List_val@U?$_List_simple_types@U?$pair@$$CBHW4key_bind_mode@@@std@@@std@@@std@@@std@@@std@@@std@@QAEXIV?$_List_unchecked_iterator@V?$_List_val@U?$_List_simple_types@U?$pair@$$CBHW4key_bind_mode@@@std@@@std@@@std@@@2@@Z 1000a350 f i local_animations.obj
 0001:00009350       ?_Assign_grow@?$_Hash_vec@V?$allocator@V?$_List_unchecked_iterator@V?$_List_val@U?$_List_simple_types@U?$pair@$$CBV?$basic_string@DU?$char_traits@D@std@@V?$allocator@D@2@@std@@PAURecvTable@@@std@@@std@@@std@@@std@@@std@@@std@@QAEXIV?$_List_unchecked_iterator@V?$_List_val@U?$_List_simple_types@U?$pair@$$CBV?$basic_string@DU?$char_traits@D@std@@V?$allocator@D@2@@std@@PAURecvTable@@@std@@@std@@@std@@@2@@Z 1000a350 f i autowall.obj
 0001:00009350       ?_Assign_grow@?$_Hash_vec@V?$allocator@V?$_List_unchecked_iterator@V?$_List_val@U?$_List_simple_types@U?$pair@$$CBH_N@std@@@std@@@std@@@std@@@std@@@std@@QAEXIV?$_List_unchecked_iterator@V?$_List_val@U?$_List_simple_types@U?$pair@$$CBH_N@std@@@std@@@std@@@2@@Z 1000a350 f i local_animations.obj
 0001:00009480       ??0?$_List_unchecked_const_iterator@V?$_List_val@U?$_List_simple_types@U?$pair@$$CBV?$basic_string@DU?$char_traits@D@std@@V?$allocator@D@2@@std@@PAURecvTable@@@std@@@std@@@std@@U_Iterator_base0@2@@std@@QAE@PAU?$_List_node@U?$pair@$$CBV?$basic_string@DU?$char_traits@D@std@@V?$allocator@D@2@@std@@PAURecvTable@@@std@@PAX@1@PBV?$_List_val@U?$_List_simple_types@U?$pair@$$CBV?$basic_string@DU?$char_traits@D@std@@V?$allocator@D@2@@std@@PAURecvTable@@@std@@@std@@@1@@Z 1000a480 f i autowall.obj
 0001:00009480       ??0?$_List_unchecked_const_iterator@V?$_List_val@U?$_List_simple_types@U?$pair@$$CBHW4key_bind_mode@@@std@@@std@@@std@@U_Iterator_base0@2@@std@@QAE@PAU?$_List_node@U?$pair@$$CBHW4key_bind_mode@@@std@@PAX@1@PBV?$_List_val@U?$_List_simple_types@U?$pair@$$CBHW4key_bind_mode@@@std@@@std@@@1@@Z 1000a480 f i local_animations.obj
 0001:00009480       ??0?$_List_unchecked_const_iterator@V?$_List_val@U?$_List_simple_types@U?$pair@$$CBH_N@std@@@std@@@std@@U_Iterator_base0@2@@std@@QAE@PAU?$_List_node@U?$pair@$$CBH_N@std@@PAX@1@PBV?$_List_val@U?$_List_simple_types@U?$pair@$$CBH_N@std@@@std@@@1@@Z 1000a480 f i local_animations.obj
 0001:000094d0       ?_Alloc_sentinel_and_proxy@?$list@U?$pair@$$CBV?$basic_string@DU?$char_traits@D@std@@V?$allocator@D@2@@std@@PAURecvTable@@@std@@V?$allocator@U?$pair@$$CBV?$basic_string@DU?$char_traits@D@std@@V?$allocator@D@2@@std@@PAURecvTable@@@std@@@2@@std@@AAEXXZ 1000a4d0 f i autowall.obj
 0001:000095d0       ??$_Delete_plain_internal@V?$allocator@U_Container_proxy@std@@@std@@@std@@YAXAAV?$allocator@U_Container_proxy@std@@@0@QAU_Container_proxy@0@@Z 1000a5d0 f i autowall.obj
 0001:00009620       ??$_Alloc_proxy@V?$allocator@U_Container_proxy@std@@@std@@@_Container_base12@std@@QAEX$$QAV?$allocator@U_Container_proxy@std@@@1@@Z 1000a620 f i autowall.obj
 0001:000096a0       ??$_Construct_in_place@U_Container_proxy@std@@PAU_Container_base12@2@@std@@YAXAAU_Container_proxy@0@$$QAPAU_Container_base12@0@@Z 1000a6a0 f i autowall.obj
 0001:00009710       ??$_Deallocate@$07$0A@@std@@YAXPAXI@Z 1000a710 f i autowall.obj
 0001:00009770       ??$_Destroy_range@V?$allocator@U?$pair@VVector@@VColor@@@std@@@std@@@std@@YAXPAU?$pair@VVector@@VColor@@@0@QAU10@AAV?$allocator@U?$pair@VVector@@VColor@@@std@@@0@@Z 1000a770 f i GrenadePrediction.obj
 0001:00009770       ??$_Destroy_in_place@PAU?$_List_node@U?$pair@$$CBV?$basic_string@DU?$char_traits@D@std@@V?$allocator@D@2@@std@@PAURecvTable@@@std@@PAX@std@@@std@@YAXAAPAU?$_List_node@U?$pair@$$CBV?$basic_string@DU?$char_traits@D@std@@V?$allocator@D@2@@std@@PAURecvTable@@@std@@PAX@0@@Z 1000a770 f i autowall.obj
 0001:00009770       ??$_Destroy_in_place@PAU?$_List_node@U?$pair@$$CBHW4key_bind_mode@@@std@@PAX@std@@@std@@YAXAAPAU?$_List_node@U?$pair@$$CBHW4key_bind_mode@@@std@@PAX@0@@Z 1000a770 f i local_animations.obj
 0001:00009770       ??$_Destroy_in_place@PAD@std@@YAXAAPAD@Z 1000a770 f i autowall.obj
 0001:00009770       ??$_Destroy_range@V?$allocator@U?$pair@E_N@std@@@std@@@std@@YAXPAU?$pair@E_N@0@QAU10@AAV?$allocator@U?$pair@E_N@std@@@0@@Z 1000a770 f i util.obj
 0001:00009770       ??$_Destroy_range@V?$allocator@VVector@@@std@@@std@@YAXPAVVector@@QAV1@AAV?$allocator@VVector@@@0@@Z 1000a770 f i GrenadePrediction.obj
 0001:00009770       ??$_Destroy_range@PAPAUloginfo_t@eventlogs@@@std@@YAXPAPAUloginfo_t@eventlogs@@QAPAU12@@Z 1000a770 f i logs.obj
 0001:00009770       ??$_Destroy_range@V?$allocator@Vscanned_target@@@std@@@std@@YAXPAVscanned_target@@QAV1@AAV?$allocator@Vscanned_target@@@0@@Z 1000a770 f i fakelag.obj
 0001:00009770       ??$_Destroy_range@V?$allocator@VMaterialBackup@@@std@@@std@@YAXPAVMaterialBackup@@QAV1@AAV?$allocator@VMaterialBackup@@@0@@Z 1000a770 f i nightmode.obj
 0001:00009770       ??$_Destroy_range@PAV?$_List_unchecked_iterator@V?$_List_val@U?$_List_simple_types@U?$pair@$$CBV?$basic_string@DU?$char_traits@D@std@@V?$allocator@D@2@@std@@PAURecvTable@@@std@@@std@@@std@@@std@@@std@@YAXPAV?$_List_unchecked_iterator@V?$_List_val@U?$_List_simple_types@U?$pair@$$CBV?$basic_string@DU?$char_traits@D@std@@V?$allocator@D@2@@std@@PAURecvTable@@@std@@@std@@@std@@@0@QAV10@@Z 1000a770 f i autowall.obj
 0001:00009770       ??$_Destroy_in_place@PAVadjust_data@@@std@@YAXAAPAVadjust_data@@@Z 1000a770 f i animation_system.obj
 0001:00009770       ??$_Destroy_range@V?$allocator@Vtarget@@@std@@@std@@YAXPAVtarget@@QAV1@AAV?$allocator@Vtarget@@@0@@Z 1000a770 f i fakelag.obj
 0001:00009770       ??$_Destroy_range@V?$allocator@H@std@@@std@@YAXPAHQAHAAV?$allocator@H@0@@Z 1000a770 f i aim.obj
 0001:00009770       ??$_Destroy_range@V?$allocator@Vscan_point@@@std@@@std@@YAXPAVscan_point@@QAV1@AAV?$allocator@Vscan_point@@@0@@Z 1000a770 f i aim.obj
 0001:00009770       ??$_Destroy_in_place@PAU?$_List_node@U?$pair@$$CBH_N@std@@PAX@std@@@std@@YAXAAPAU?$_List_node@U?$pair@$$CBH_N@std@@PAX@0@@Z 1000a770 f i local_animations.obj
 0001:00009770       ??$_Destroy_range@PAV?$_List_unchecked_iterator@V?$_List_val@U?$_List_simple_types@U?$pair@$$CBHW4key_bind_mode@@@std@@@std@@@std@@@std@@@std@@YAXPAV?$_List_unchecked_iterator@V?$_List_val@U?$_List_simple_types@U?$pair@$$CBHW4key_bind_mode@@@std@@@std@@@std@@@0@QAV10@@Z 1000a770 f i local_animations.obj
 0001:00009770       ??$_Destroy_range@V?$allocator@Uimpact_data@bullettracers@@@std@@@std@@YAXPAUimpact_data@bullettracers@@QAU12@AAV?$allocator@Uimpact_data@bullettracers@@@0@@Z 1000a770 f i bullet_tracers.obj
 0001:00009770       ??$_Destroy_range@V?$allocator@Vadjust_data@@@std@@@std@@YAXPAVadjust_data@@QAV1@AAV?$allocator@Vadjust_data@@@0@@Z 1000a770 f i fakelag.obj
 0001:00009770       ??$_Destroy_range@PAPAVadjust_data@@@std@@YAXPAPAVadjust_data@@QAPAV1@@Z 1000a770 f i animation_system.obj
 0001:00009770       ??$_Destroy_range@PAV?$_List_unchecked_iterator@V?$_List_val@U?$_List_simple_types@U?$pair@$$CBH_N@std@@@std@@@std@@@std@@@std@@YAXPAV?$_List_unchecked_iterator@V?$_List_val@U?$_List_simple_types@U?$pair@$$CBH_N@std@@@std@@@std@@@0@QAV10@@Z 1000a770 f i local_animations.obj
 0001:00009770       ??$_Destroy_range@PAPAVoptimized_adjust_data@@@std@@YAXPAPAVoptimized_adjust_data@@QAPAV1@@Z 1000a770 f i aim.obj
 0001:00009770       ??$_Destroy_in_place@PAVoptimized_adjust_data@@@std@@YAXAAPAVoptimized_adjust_data@@@Z 1000a770 f i aim.obj
 0001:000097b0       ??$?0ABV?$allocator@U?$pair@$$CBH_N@std@@@std@@$0A@@?$_Hash_vec@V?$allocator@V?$_List_unchecked_iterator@V?$_List_val@U?$_List_simple_types@U?$pair@$$CBH_N@std@@@std@@@std@@@std@@@std@@@std@@QAE@ABV?$allocator@U?$pair@$$CBH_N@std@@@1@@Z 1000a7b0 f i local_animations.obj
 0001:000097b0       ??$?0ABV?$allocator@U?$pair@$$CBV?$basic_string@DU?$char_traits@D@std@@V?$allocator@D@2@@std@@PAURecvTable@@@std@@@std@@$0A@@?$_Hash_vec@V?$allocator@V?$_List_unchecked_iterator@V?$_List_val@U?$_List_simple_types@U?$pair@$$CBV?$basic_string@DU?$char_traits@D@std@@V?$allocator@D@2@@std@@PAURecvTable@@@std@@@std@@@std@@@std@@@std@@@std@@QAE@ABV?$allocator@U?$pair@$$CBV?$basic_string@DU?$char_traits@D@std@@V?$allocator@D@2@@std@@PAURecvTable@@@std@@@1@@Z 1000a7b0 f i autowall.obj
 0001:000097b0       ??$?0ABV?$allocator@U?$pair@$$CBHW4key_bind_mode@@@std@@@std@@$0A@@?$_Hash_vec@V?$allocator@V?$_List_unchecked_iterator@V?$_List_val@U?$_List_simple_types@U?$pair@$$CBHW4key_bind_mode@@@std@@@std@@@std@@@std@@@std@@@std@@QAE@ABV?$allocator@U?$pair@$$CBHW4key_bind_mode@@@std@@@1@@Z 1000a7b0 f i local_animations.obj
 0001:00009860       ??$_Allocate@$07U_Default_allocate_traits@std@@$0A@@std@@YAPAXI@Z 1000a860 f i autowall.obj
 0001:000098a0       ??$uninitialized_fill@PAV?$_List_unchecked_iterator@V?$_List_val@U?$_List_simple_types@U?$pair@$$CBH_N@std@@@std@@@std@@@std@@V12@@std@@YAXQAV?$_List_unchecked_iterator@V?$_List_val@U?$_List_simple_types@U?$pair@$$CBH_N@std@@@std@@@std@@@0@0ABV10@@Z 1000a8a0 f i local_animations.obj
 0001:000098a0       ??$uninitialized_fill@PAV?$_List_unchecked_iterator@V?$_List_val@U?$_List_simple_types@U?$pair@$$CBV?$basic_string@DU?$char_traits@D@std@@V?$allocator@D@2@@std@@PAURecvTable@@@std@@@std@@@std@@@std@@V12@@std@@YAXQAV?$_List_unchecked_iterator@V?$_List_val@U?$_List_simple_types@U?$pair@$$CBV?$basic_string@DU?$char_traits@D@std@@V?$allocator@D@2@@std@@PAURecvTable@@@std@@@std@@@std@@@0@0ABV10@@Z 1000a8a0 f i autowall.obj
 0001:000098a0       ??$uninitialized_fill@PAV?$_List_unchecked_iterator@V?$_List_val@U?$_List_simple_types@U?$pair@$$CBHW4key_bind_mode@@@std@@@std@@@std@@@std@@V12@@std@@YAXQAV?$_List_unchecked_iterator@V?$_List_val@U?$_List_simple_types@U?$pair@$$CBHW4key_bind_mode@@@std@@@std@@@std@@@0@0ABV10@@Z 1000a8a0 f i local_animations.obj
 0001:00009930       ??$_Construct_in_place@PAU?$_List_node@U?$pair@$$CBV?$basic_string@DU?$char_traits@D@std@@V?$allocator@D@2@@std@@PAURecvTable@@@std@@PAX@std@@AAPAU12@@std@@YAXAAPAU?$_List_node@U?$pair@$$CBV?$basic_string@DU?$char_traits@D@std@@V?$allocator@D@2@@std@@PAURecvTable@@@std@@PAX@0@0@Z 1000a930 f i autowall.obj
 0001:00009930       ??$_Construct_in_place@PAU?$_List_node@U?$pair@$$CBHW4key_bind_mode@@@std@@PAX@std@@AAPAU12@@std@@YAXAAPAU?$_List_node@U?$pair@$$CBHW4key_bind_mode@@@std@@PAX@0@0@Z 1000a930 f i local_animations.obj
 0001:00009930       ??$_Construct_in_place@PAU?$_List_node@U?$pair@$$CBH_N@std@@PAX@std@@AAPAU12@@std@@YAXAAPAU?$_List_node@U?$pair@$$CBH_N@std@@PAX@0@0@Z 1000a930 f i local_animations.obj
 0001:00009990       ??$_Deallocate_plain@V?$allocator@U_Container_proxy@std@@@std@@@std@@YAXAAV?$allocator@U_Container_proxy@std@@@0@QAU_Container_proxy@0@@Z 1000a990 f i autowall.obj
 0001:000099e0       ??$_Freenode@V?$allocator@U?$_List_node@U?$pair@$$CBV?$basic_string@DU?$char_traits@D@std@@V?$allocator@D@2@@std@@PAURecvTable@@@std@@PAX@std@@@std@@@?$_List_node@U?$pair@$$CBV?$basic_string@DU?$char_traits@D@std@@V?$allocator@D@2@@std@@PAURecvTable@@@std@@PAX@std@@SAXAAV?$allocator@U?$_List_node@U?$pair@$$CBV?$basic_string@DU?$char_traits@D@std@@V?$allocator@D@2@@std@@PAURecvTable@@@std@@PAX@std@@@1@PAU01@@Z 1000a9e0 f i autowall.obj
 0001:00009a70       ??$_Allocate_manually_vector_aligned@U_Default_allocate_traits@std@@@std@@YAPAXI@Z 1000aa70 f i autowall.obj
 0001:00009b30       ??$_Verify_range@UPaintKit@SkinChanger@@@std@@YAXQBUPaintKit@SkinChanger@@0@Z 1000ab30 f i menu.obj
 0001:00009b30       ??$_Verify_range@V?$_List_unchecked_iterator@V?$_List_val@U?$_List_simple_types@U?$pair@$$CBHW4key_bind_mode@@@std@@@std@@@std@@@std@@@std@@YAXQBV?$_List_unchecked_iterator@V?$_List_val@U?$_List_simple_types@U?$pair@$$CBHW4key_bind_mode@@@std@@@std@@@std@@@0@0@Z 1000ab30 f i local_animations.obj
 0001:00009b30       ??$_Verify_range@E@std@@YAXQBE0@Z 1000ab30 f i util.obj
 0001:00009b30       ??$_Verify_range@D@std@@YAXQBD0@Z 1000ab30 f i misc.obj
 0001:00009b30       ??$_Verify_range@PAVadjust_data@@@std@@YAXQBQAVadjust_data@@0@Z 1000ab30 f i animation_system.obj
 0001:00009b30       ??$_Verify_range@PAUloginfo_t@eventlogs@@@std@@YAXQBQAUloginfo_t@eventlogs@@0@Z 1000ab30 f i logs.obj
 0001:00009b30       ??$_Verify_range@V?$_List_unchecked_iterator@V?$_List_val@U?$_List_simple_types@U?$pair@$$CBH_N@std@@@std@@@std@@@std@@@std@@YAXQBV?$_List_unchecked_iterator@V?$_List_val@U?$_List_simple_types@U?$pair@$$CBH_N@std@@@std@@@std@@@0@0@Z 1000ab30 f i local_animations.obj
 0001:00009b30       ??$_Verify_range@PAVoptimized_adjust_data@@@std@@YAXQBQAVoptimized_adjust_data@@0@Z 1000ab30 f i aim.obj
 0001:00009b30       ??$_Verify_range@V?$_List_unchecked_iterator@V?$_List_val@U?$_List_simple_types@U?$pair@$$CBV?$basic_string@DU?$char_traits@D@std@@V?$allocator@D@2@@std@@PAURecvTable@@@std@@@std@@@std@@@std@@@std@@YAXQBV?$_List_unchecked_iterator@V?$_List_val@U?$_List_simple_types@U?$pair@$$CBV?$basic_string@DU?$char_traits@D@std@@V?$allocator@D@2@@std@@PAURecvTable@@@std@@@std@@@std@@@0@0@Z 1000ab30 f i autowall.obj
 0001:00009bc0       ??$_Construct_in_place@V?$_List_unchecked_iterator@V?$_List_val@U?$_List_simple_types@U?$pair@$$CBH_N@std@@@std@@@std@@@std@@ABV12@@std@@YAXAAV?$_List_unchecked_iterator@V?$_List_val@U?$_List_simple_types@U?$pair@$$CBH_N@std@@@std@@@std@@@0@ABV10@@Z 1000abc0 f i local_animations.obj
 0001:00009bc0       ??$_Construct_in_place@V?$_List_unchecked_iterator@V?$_List_val@U?$_List_simple_types@U?$pair@$$CBV?$basic_string@DU?$char_traits@D@std@@V?$allocator@D@2@@std@@PAURecvTable@@@std@@@std@@@std@@@std@@ABV12@@std@@YAXAAV?$_List_unchecked_iterator@V?$_List_val@U?$_List_simple_types@U?$pair@$$CBV?$basic_string@DU?$char_traits@D@std@@V?$allocator@D@2@@std@@PAURecvTable@@@std@@@std@@@std@@@0@ABV10@@Z 1000abc0 f i autowall.obj
 0001:00009bc0       ??$_Construct_in_place@V?$_List_unchecked_iterator@V?$_List_val@U?$_List_simple_types@U?$pair@$$CBHW4key_bind_mode@@@std@@@std@@@std@@@std@@ABV12@@std@@YAXAAV?$_List_unchecked_iterator@V?$_List_val@U?$_List_simple_types@U?$pair@$$CBHW4key_bind_mode@@@std@@@std@@@std@@@0@ABV10@@Z 1000abc0 f i local_animations.obj
 0001:00009c20       ?Length2D@Vector@@QBEMXZ   1000ac20 f i slowwalk.obj
 0001:00009c80       ?m_fFlags@player_t@@QBEAAHXZ 1000ac80 f i slowwalk.obj
 0001:00009d30       ?m_vecVelocity@player_t@@QBEAAVVector@@XZ 1000ad30 f i slowwalk.obj
 0001:00009de0       ?create_move@slowwalk@@QAEXPAVCUserCmd@@M@Z 1000ade0 f   slowwalk.obj
 0001:0000a0b0       ?get@?$singleton@Vengineprediction@@@@SAAAVengineprediction@@XZ 1000b0b0 f i slowwalk.obj
 0001:0000a240       ??0Netvars_data@engineprediction@@QAE@XZ 1000b240 f i slowwalk.obj
 0001:0000a300       ??1?$singleton@Vworldesp@@@@IAE@XZ 1000b300 f i misc.obj
 0001:0000a300       ??1?$singleton@Vkey_binds@@@@IAE@XZ 1000b300 f i local_animations.obj
 0001:0000a300       ??1?$singleton@Vengineprediction@@@@IAE@XZ 1000b300 f i slowwalk.obj
 0001:0000a300       ??1?$singleton@Vc_dormant_esp@@@@IAE@XZ 1000b300 f i player_esp.obj
 0001:0000a300       ??1?$singleton@Vaim@@@@IAE@XZ 1000b300 f i fakelag.obj
 0001:0000a300       ??1?$singleton@Vlocal_animations@@@@IAE@XZ 1000b300 f i local_animations.obj
 0001:0000a340       ??4_Iterator_base12@std@@QAEAAU01@ABU01@@Z 1000b340 f i animation_system.obj
 0001:0000a3d0       ?_Adopt@_Iterator_base12@std@@QAEXPBU_Container_base12@2@@Z 1000b3d0 f i animation_system.obj
 0001:0000a480       ?_Orphan_me@_Iterator_base12@std@@QAEXXZ 1000b480 f i animation_system.obj
 0001:0000a560       ??0matrix3x4_t@@QAE@XZ     1000b560 f i animation_system.obj
 0001:0000a580       ?m_vecOrigin@entity_t@@QBEAAVVector@@XZ 1000b580 f i animation_system.obj
 0001:0000a630       ?m_bClientSideAnimation@player_t@@QBEAA_NXZ 1000b630 f i animation_system.obj
 0001:0000a6e0       ?m_bGunGameImmunity@player_t@@QBEAA_NXZ 1000b6e0 f i animation_system.obj
 0001:0000a790       ?m_angEyeAngles@player_t@@QBEAAVVector@@XZ 1000b790 f i animation_system.obj
 0001:0000a840       ?m_bIsScoped@player_t@@QBEAA_NXZ 1000b840 f i animation_system.obj
 0001:0000a8f0       ?m_flLowerBodyYawTarget@player_t@@QBEAAMXZ 1000b8f0 f i animation_system.obj
 0001:0000a9a0       ?m_flSimulationTime@player_t@@QBEAAMXZ 1000b9a0 f i animation_system.obj
 0001:0000aa50       ?m_flDuckAmount@player_t@@QBEAAMXZ 1000ba50 f i animation_system.obj
 0001:0000ab00       ??0adjust_data@@QAE@XZ     1000bb00 f i animation_system.obj
 0001:0000ac90       ?reset@adjust_data@@QAEXXZ 1000bc90 f i animation_system.obj
 0001:0000ae50       ?store_data@adjust_data@@QAEXPAVplayer_t@@_N@Z 1000be50 f i animation_system.obj
 0001:0000b190       ??0matrixes@@QAE@XZ        1000c190 f i animation_system.obj
 0001:0000b2a0       ?fsn@lagcompensation@@QAEXW4ClientFrameStage_t@@@Z 1000c2a0 f   animation_system.obj
 0001:0000b900       ??$emplace_front@Vadjust_data@@@?$deque@Vadjust_data@@V?$allocator@Vadjust_data@@@std@@@std@@QAEAAVadjust_data@@$$QAV2@@Z 1000c900 f i animation_system.obj
 0001:0000bc00       ?valid@lagcompensation@@QAE_NHPAVplayer_t@@@Z 1000cc00 f   animation_system.obj
 0001:0000bcc0       ?update_player_animations@lagcompensation@@QAEXPAVplayer_t@@@Z 1000ccc0 f   animation_system.obj
 0001:0000da10       ?_Growmap@?$deque@Vadjust_data@@V?$allocator@Vadjust_data@@@std@@@std@@AAEXI@Z 1000ea10 f i animation_system.obj
 0001:0000df20       ?pop_back@?$deque@Vadjust_data@@V?$allocator@Vadjust_data@@@std@@@std@@QAEXXZ 1000ef20 f i animation_system.obj
 0001:0000e0d0       ?front@?$deque@Vadjust_data@@V?$allocator@Vadjust_data@@@std@@@std@@QAEAAVadjust_data@@XZ 1000f0d0 f i animation_system.obj
 0001:0000e220       ?at@?$deque@Vadjust_data@@V?$allocator@Vadjust_data@@@std@@@std@@QAEAAVadjust_data@@I@Z 1000f220 f i animation_system.obj
 0001:0000e310       ?_Unchecked_end@?$deque@Vadjust_data@@V?$allocator@Vadjust_data@@@std@@@std@@QAE?AV?$_Deque_unchecked_iterator@V?$_Deque_val@U?$_Deque_simple_types@Vadjust_data@@@std@@@std@@@2@XZ 1000f310 f i animation_system.obj
 0001:0000e310       ?_Unchecked_end@?$deque@Voptimized_adjust_data@@V?$allocator@Voptimized_adjust_data@@@std@@@std@@QAE?AV?$_Deque_unchecked_iterator@V?$_Deque_val@U?$_Deque_simple_types@Voptimized_adjust_data@@@std@@@std@@@2@XZ 1000f310 f i aim.obj
 0001:0000e3a0       ??1?$deque@Vadjust_data@@V?$allocator@Vadjust_data@@@std@@@std@@QAE@XZ 1000f3a0 f i animation_system.obj
 0001:0000e430       ??0?$deque@Voptimized_adjust_data@@V?$allocator@Voptimized_adjust_data@@@std@@@std@@QAE@XZ 1000f430 f i aim.obj
 0001:0000e430       ??0?$deque@Vadjust_data@@V?$allocator@Vadjust_data@@@std@@@std@@QAE@XZ 1000f430 f i animation_system.obj
 0001:0000e4c0       ??1?$_Vector_iterator@V?$_Vector_val@U?$_Simple_types@Vscan_point@@@std@@@std@@@std@@QAE@XZ 1000f4c0 f i aim.obj
 0001:0000e4c0       ??1?$_Vector_iterator@V?$_Vector_val@U?$_Simple_types@U?$pair@E_N@std@@@std@@@std@@@std@@QAE@XZ 1000f4c0 f i util.obj
 0001:0000e4c0       ??1?$_Vector_iterator@V?$_Vector_val@U?$_Simple_types@U?$pair@VVector@@VColor@@@std@@@std@@@std@@@std@@QAE@XZ 1000f4c0 f i GrenadePrediction.obj
 0001:0000e4c0       ??1?$_Tree_iterator@V?$_Tree_val@U?$_Tree_simple_types@U?$pair@$$CBIUImVec4@@@std@@@std@@@std@@@std@@QAE@XZ 1000f4c0 f i imgui_widgets.obj
 0001:0000e4c0       ??1?$_Deque_iterator@V?$_Deque_val@U?$_Deque_simple_types@Vadjust_data@@@std@@@std@@@std@@QAE@XZ 1000f4c0 f i animation_system.obj
 0001:0000e4c0       ??1?$_Tree_iterator@V?$_Tree_val@U?$_Tree_simple_types@U?$pair@$$CBIM@std@@@std@@@std@@@std@@QAE@XZ 1000f4c0 f i imgui_widgets.obj
 0001:0000e4c0       ??1?$_Tree_iterator@V?$_Tree_val@U?$_Tree_simple_types@U?$pair@$$CBI_N@std@@@std@@@std@@@std@@QAE@XZ 1000f4c0 f i imgui_widgets.obj
 0001:0000e4c0       ??1?$_Deque_const_iterator@V?$_Deque_val@U?$_Deque_simple_types@Uloginfo_t@eventlogs@@@std@@@std@@@std@@QAE@XZ 1000f4c0 f i logs.obj
 0001:0000e4c0       ??1?$_Vector_const_iterator@V?$_Vector_val@U?$_Simple_types@Uaim_shot@@@std@@@std@@@std@@QAE@XZ 1000f4c0 f i hooked_fsn.obj
 0001:0000e4c0       ??1?$reverse_iterator@V?$_Deque_iterator@V?$_Deque_val@U?$_Deque_simple_types@Ucommand@@@std@@@std@@@std@@@std@@QAE@XZ 1000f4c0 f i hooked_senddatagram.obj
 0001:0000e4c0       ??1?$_Vector_iterator@V?$_Vector_val@U?$_Simple_types@VVector@@@std@@@std@@@std@@QAE@XZ 1000f4c0 f i GrenadePrediction.obj
 0001:0000e4c0       ??1?$_Vector_iterator@V?$_Vector_val@U?$_Simple_types@Vscanned_target@@@std@@@std@@@std@@QAE@XZ 1000f4c0 f i aim.obj
 0001:0000e4c0       ??1?$_Deque_iterator@V?$_Deque_val@U?$_Deque_simple_types@Ucorrection_data@@@std@@@std@@@std@@QAE@XZ 1000f4c0 f i hooked_senddatagram.obj
 0001:0000e4c0       ??1?$reverse_iterator@V?$_Deque_iterator@V?$_Deque_val@U?$_Deque_simple_types@Vadjust_data@@@std@@@std@@@std@@@std@@QAE@XZ 1000f4c0 f i util.obj
 0001:0000e4c0       ??1?$_Vector_const_iterator@V?$_Vector_val@U?$_Simple_types@UPaintKit@SkinChanger@@@std@@@std@@@std@@QAE@XZ 1000f4c0 f i menu.obj
 0001:0000e4c0       ??1?$_Vector_const_iterator@V?$_Vector_val@U?$_Simple_types@Vscan_point@@@std@@@std@@@std@@QAE@XZ 1000f4c0 f i aim.obj
 0001:0000e4c0       ??1?$_Deque_iterator@V?$_Deque_val@U?$_Deque_simple_types@Uloginfo_t@eventlogs@@@std@@@std@@@std@@QAE@XZ 1000f4c0 f i logs.obj
 0001:0000e4c0       ??1?$_Deque_const_iterator@V?$_Deque_val@U?$_Deque_simple_types@Ucommand@@@std@@@std@@@std@@QAE@XZ 1000f4c0 f i hooked_senddatagram.obj
 0001:0000e4c0       ??1?$_Vector_const_iterator@V?$_Vector_val@U?$_Simple_types@Uimpact_data@bullettracers@@@std@@@std@@@std@@QAE@XZ 1000f4c0 f i bullet_tracers.obj
 0001:0000e4c0       ??1?$_Vector_iterator@V?$_Vector_val@U?$_Simple_types@Vtarget@@@std@@@std@@@std@@QAE@XZ 1000f4c0 f i aim.obj
 0001:0000e4c0       ??1?$_List_iterator@V?$_List_val@U?$_List_simple_types@U?$pair@$$CBV?$basic_string@DU?$char_traits@D@std@@V?$allocator@D@2@@std@@$$BY03M@std@@@std@@@std@@@std@@QAE@XZ 1000f4c0 f i imgui_widgets.obj
 0001:0000e4c0       ??1?$_Vector_iterator@V?$_Vector_val@U?$_Simple_types@Uaim_shot@@@std@@@std@@@std@@QAE@XZ 1000f4c0 f i hooked_fsn.obj
 0001:0000e4c0       ??1?$_List_iterator@V?$_List_val@U?$_List_simple_types@U?$pair@$$CBV?$basic_string_view@DU?$char_traits@D@std@@@std@@PBD@std@@@std@@@std@@@std@@QAE@XZ 1000f4c0 f i SkinChanger.obj
 0001:0000e4c0       ??1?$_String_iterator@V?$_String_val@U?$_Simple_types@_W@std@@@std@@@std@@QAE@XZ 1000f4c0 f i main.obj
 0001:0000e4c0       ??1?$_Vector_iterator@V?$_Vector_val@U?$_Simple_types@UPaintKit@SkinChanger@@@std@@@std@@@std@@QAE@XZ 1000f4c0 f i menu.obj
 0001:0000e4c0       ??1?$_Tree_iterator@V?$_Tree_val@U?$_Tree_simple_types@U?$pair@$$CBIUcolorpicket_state@@@std@@@std@@@std@@@std@@QAE@XZ 1000f4c0 f i imgui_widgets.obj
 0001:0000e4c0       ??1?$_Tree_iterator@V?$_Tree_val@U?$_Tree_simple_types@U?$pair@$$CBIUcircle_button@@@std@@@std@@@std@@@std@@QAE@XZ 1000f4c0 f i imgui_widgets.obj
 0001:0000e4c0       ??1?$_Deque_iterator@V?$_Deque_val@U?$_Deque_simple_types@Voptimized_adjust_data@@@std@@@std@@@std@@QAE@XZ 1000f4c0 f i aim.obj
 0001:0000e4c0       ??1?$_Tree_iterator@V?$_Tree_val@U?$_Tree_simple_types@U?$pair@$$CBIUarrow_anim@@@std@@@std@@@std@@@std@@QAE@XZ 1000f4c0 f i imgui_widgets.obj
 0001:0000e4c0       ??1?$_Vector_iterator@V?$_Vector_val@U?$_Simple_types@Uimpact_data@bullettracers@@@std@@@std@@@std@@QAE@XZ 1000f4c0 f i bullet_tracers.obj
 0001:0000e4c0       ??1?$_Tree_const_iterator@V?$_Tree_val@U?$_Tree_simple_types@U?$pair@$$CBHUweapon_info@game_data@@@std@@@std@@@std@@@std@@QAE@XZ 1000f4c0 f i item_definitions.obj
 0001:0000e4c0       ??1?$_Deque_iterator@V?$_Deque_val@U?$_Deque_simple_types@Ucommand@@@std@@@std@@@std@@QAE@XZ 1000f4c0 f i hooked_senddatagram.obj
 0001:0000e4f0       ??H?$_Deque_iterator@V?$_Deque_val@U?$_Deque_simple_types@Vadjust_data@@@std@@@std@@@std@@QBE?AV01@H@Z 1000f4f0 f i animation_system.obj
 0001:0000e5c0       ?_Orphan_off@?$deque@Voptimized_adjust_data@@V?$allocator@Voptimized_adjust_data@@@std@@@std@@ABEXI@Z 1000f5c0 f i aim.obj
 0001:0000e5c0       ?_Orphan_off@?$deque@Uloginfo_t@eventlogs@@V?$allocator@Uloginfo_t@eventlogs@@@std@@@std@@ABEXI@Z 1000f5c0 f i menu.obj
 0001:0000e5c0       ?_Orphan_off@?$deque@Vadjust_data@@V?$allocator@Vadjust_data@@@std@@@std@@ABEXI@Z 1000f5c0 f i animation_system.obj
 0001:0000e6e0       ?_Tidy@?$deque@Vadjust_data@@V?$allocator@Vadjust_data@@@std@@@std@@AAEXXZ 1000f6e0 f i animation_system.obj
 0001:0000e8d0       ?_Xran@?$deque@Vadjust_data@@V?$allocator@Vadjust_data@@@std@@@std@@ABEXXZ 1000f8d0 f i animation_system.obj
 0001:0000e8d0       ?_Xran@?$deque@Uloginfo_t@eventlogs@@V?$allocator@Uloginfo_t@eventlogs@@@std@@@std@@ABEXXZ 1000f8d0 f i logs.obj
 0001:0000e8f0       ?_Xlen@?$deque@Voptimized_adjust_data@@V?$allocator@Voptimized_adjust_data@@@std@@@std@@ABEXXZ 1000f8f0 f i aim.obj
 0001:0000e8f0       ?_Xlen@?$deque@Uloginfo_t@eventlogs@@V?$allocator@Uloginfo_t@eventlogs@@@std@@@std@@ABEXXZ 1000f8f0 f i logs.obj
 0001:0000e8f0       ?_Xlen@?$deque@Vadjust_data@@V?$allocator@Vadjust_data@@@std@@@std@@ABEXXZ 1000f8f0 f i animation_system.obj
 0001:0000e910       ?begin@?$deque@Voptimized_adjust_data@@V?$allocator@Voptimized_adjust_data@@@std@@@std@@QAE?AV?$_Deque_iterator@V?$_Deque_val@U?$_Deque_simple_types@Voptimized_adjust_data@@@std@@@std@@@2@XZ 1000f910 f i aim.obj
 0001:0000e910       ?begin@?$deque@Uloginfo_t@eventlogs@@V?$allocator@Uloginfo_t@eventlogs@@@std@@@std@@QAE?AV?$_Deque_iterator@V?$_Deque_val@U?$_Deque_simple_types@Uloginfo_t@eventlogs@@@std@@@std@@@2@XZ 1000f910 f i logs.obj
 0001:0000e910       ?begin@?$deque@Vadjust_data@@V?$allocator@Vadjust_data@@@std@@@std@@QAE?AV?$_Deque_iterator@V?$_Deque_val@U?$_Deque_simple_types@Vadjust_data@@@std@@@std@@@2@XZ 1000f910 f i animation_system.obj
 0001:0000e9b0       ??D?$_Deque_const_iterator@V?$_Deque_val@U?$_Deque_simple_types@Vadjust_data@@@std@@@std@@@std@@QBEABVadjust_data@@XZ 1000f9b0 f i animation_system.obj
 0001:0000eaf0       ?deallocate@?$allocator@Vadjust_data@@@std@@QAEXQAVadjust_data@@I@Z 1000faf0 f i animation_system.obj
 0001:0000eb20       ??Y?$_Deque_const_iterator@V?$_Deque_val@U?$_Deque_simple_types@Vadjust_data@@@std@@@std@@@std@@QAEAAV01@H@Z 1000fb20 f i animation_system.obj
 0001:0000ec90       ??$uninitialized_copy@PAPAVoptimized_adjust_data@@PAPAV1@@std@@YAPAPAVoptimized_adjust_data@@QAPAV1@0PAPAV1@@Z 1000fc90 f i aim.obj
 0001:0000ec90       ??$uninitialized_copy@PAPAVadjust_data@@PAPAV1@@std@@YAPAPAVadjust_data@@QAPAV1@0PAPAV1@@Z 1000fc90 f i animation_system.obj
 0001:0000ec90       ??$uninitialized_copy@PAPAUloginfo_t@eventlogs@@PAPAU12@@std@@YAPAPAUloginfo_t@eventlogs@@QAPAU12@0PAPAU12@@Z 1000fc90 f i logs.obj
 0001:0000ed00       ??$_Uninitialized_value_construct_n_unchecked1@PAPAVoptimized_adjust_data@@I@std@@YAPAPAVoptimized_adjust_data@@PAPAV1@I@Z 1000fd00 f i aim.obj
 0001:0000ed00       ??$_Uninitialized_value_construct_n_unchecked1@PAPAVadjust_data@@I@std@@YAPAPAVadjust_data@@PAPAV1@I@Z 1000fd00 f i animation_system.obj
 0001:0000ed00       ??$_Uninitialized_value_construct_n_unchecked1@PAPAUloginfo_t@eventlogs@@I@std@@YAPAPAUloginfo_t@eventlogs@@PAPAU12@I@Z 1000fd00 f i logs.obj
 0001:0000ed30       ??$_Copy_memmove@PAPAUloginfo_t@eventlogs@@PAPAU12@@std@@YAPAPAUloginfo_t@eventlogs@@PAPAU12@00@Z 1000fd30 f i logs.obj
 0001:0000ed30       ??$_Copy_memmove@PAHPAH@std@@YAPAHPAH00@Z 1000fd30 f i aim.obj
 0001:0000ed30       ??$_Copy_memmove@PAPAVadjust_data@@PAPAV1@@std@@YAPAPAVadjust_data@@PAPAV1@00@Z 1000fd30 f i animation_system.obj
 0001:0000ed30       ??$_Copy_memmove@PAVtarget@@PAV1@@std@@YAPAVtarget@@PAV1@00@Z 1000fd30 f i aim.obj
 0001:0000ed30       ??$_Copy_memmove@PAPAVoptimized_adjust_data@@PAPAV1@@std@@YAPAPAVoptimized_adjust_data@@PAPAV1@00@Z 1000fd30 f i aim.obj
 0001:0000ed80       ??$_Zero_range@PAPAUloginfo_t@eventlogs@@@std@@YAPAPAUloginfo_t@eventlogs@@QAPAU12@0@Z 1000fd80 f i logs.obj
 0001:0000ed80       ??$_Zero_range@PAPAVadjust_data@@@std@@YAPAPAVadjust_data@@QAPAV1@0@Z 1000fd80 f i animation_system.obj
 0001:0000ed80       ??$_Zero_range@PAPAVoptimized_adjust_data@@@std@@YAPAPAVoptimized_adjust_data@@QAPAV1@0@Z 1000fd80 f i aim.obj
 0001:0000edc0       ?run@local_animations@@QAEXW4ClientFrameStage_t@@@Z 1000fdc0 f   local_animations.obj
 0001:0000f130       ?update_prediction_animations@local_animations@@QAEXXZ 10010130 f   local_animations.obj
 0001:0000f4c0       ?update_fake_animations@local_animations@@AAEXXZ 100104c0 f   local_animations.obj
 0001:0000fb00       ?update_local_animations@local_animations@@AAEXPAVc_baseplayeranimationstate@@@Z 10010b00 f   local_animations.obj
 0001:0000fd40       ?get@?$singleton@Vlocal_animations@@@@SAAAVlocal_animations@@XZ 10010d40 f i local_animations.obj
 0001:0000fdf0       ?get@?$singleton@Vfakelag@@@@SAAAVfakelag@@XZ 10010df0 f i local_animations.obj
 0001:0000fe70       ?get@?$singleton@Vantiaim@@@@SAAAVantiaim@@XZ 10010e70 f i local_animations.obj
 0001:0000ff10       ?get@?$singleton@Vkey_binds@@@@SAAAVkey_binds@@XZ 10010f10 f i local_animations.obj
 0001:0000ffd0       ??0local_animations@@QAE@XZ 10010fd0 f i local_animations.obj
 0001:00010070       ??0Local_data@@QAE@XZ      10011070 f i local_animations.obj
 0001:00010120       ??1key_binds@@QAE@XZ       10011120 f i local_animations.obj
 0001:00010170       ??1?$unordered_map@H_NU?$hash@H@std@@U?$equal_to@H@2@V?$allocator@U?$pair@$$CBH_N@std@@@2@@std@@QAE@XZ 10011170 f i local_animations.obj
 0001:000101a0       ??0?$unordered_map@H_NU?$hash@H@std@@U?$equal_to@H@2@V?$allocator@U?$pair@$$CBH_N@std@@@2@@std@@QAE@XZ 100111a0 f i local_animations.obj
 0001:000101a0       ??0?$unordered_map@HW4key_bind_mode@@U?$hash@H@std@@U?$equal_to@H@3@V?$allocator@U?$pair@$$CBHW4key_bind_mode@@@std@@@3@@std@@QAE@XZ 100111a0 f i local_animations.obj
 0001:00010220       ??1?$list@U?$pair@$$CBHW4key_bind_mode@@@std@@V?$allocator@U?$pair@$$CBHW4key_bind_mode@@@std@@@2@@std@@QAE@XZ 10011220 f i local_animations.obj
 0001:00010220       ??1?$list@U?$pair@$$CBH_N@std@@V?$allocator@U?$pair@$$CBH_N@std@@@2@@std@@QAE@XZ 10011220 f i local_animations.obj
 0001:00010290       ??0?$_Hash@V?$_Umap_traits@HW4key_bind_mode@@V?$_Uhash_compare@HU?$hash@H@std@@U?$equal_to@H@2@@std@@V?$allocator@U?$pair@$$CBHW4key_bind_mode@@@std@@@3@$0A@@std@@@std@@IAE@ABV?$_Uhash_compare@HU?$hash@H@std@@U?$equal_to@H@2@@1@ABV?$allocator@U?$pair@$$CBHW4key_bind_mode@@@std@@@1@@Z 10011290 f i local_animations.obj
 0001:00010290       ??0?$_Hash@V?$_Umap_traits@H_NV?$_Uhash_compare@HU?$hash@H@std@@U?$equal_to@H@2@@std@@V?$allocator@U?$pair@$$CBH_N@std@@@2@$0A@@std@@@std@@IAE@ABV?$_Uhash_compare@HU?$hash@H@std@@U?$equal_to@H@2@@1@ABV?$allocator@U?$pair@$$CBH_N@std@@@1@@Z 10011290 f i local_animations.obj
 0001:000103b0       ?_Tidy@?$list@U?$pair@$$CBHW4key_bind_mode@@@std@@V?$allocator@U?$pair@$$CBHW4key_bind_mode@@@std@@@2@@std@@AAEXXZ 100113b0 f i local_animations.obj
 0001:000103b0       ?_Tidy@?$list@U?$pair@$$CBH_N@std@@V?$allocator@U?$pair@$$CBH_N@std@@@2@@std@@AAEXXZ 100113b0 f i local_animations.obj
 0001:00010460       ?_Alloc_sentinel_and_proxy@?$list@U?$pair@$$CBH_N@std@@V?$allocator@U?$pair@$$CBH_N@std@@@2@@std@@AAEXXZ 10011460 f i local_animations.obj
 0001:00010460       ?_Alloc_sentinel_and_proxy@?$list@U?$pair@$$CBHW4key_bind_mode@@@std@@V?$allocator@U?$pair@$$CBHW4key_bind_mode@@@std@@@2@@std@@AAEXXZ 10011460 f i local_animations.obj
 0001:00010560       ??$_Free_non_head@V?$allocator@U?$_List_node@U?$pair@$$CBH_N@std@@PAX@std@@@std@@@?$_List_node@U?$pair@$$CBH_N@std@@PAX@std@@SAXAAV?$allocator@U?$_List_node@U?$pair@$$CBH_N@std@@PAX@std@@@1@PAU01@@Z 10011560 f i local_animations.obj
 0001:00010560       ??$_Free_non_head@V?$allocator@U?$_List_node@U?$pair@$$CBHW4key_bind_mode@@@std@@PAX@std@@@std@@@?$_List_node@U?$pair@$$CBHW4key_bind_mode@@@std@@PAX@std@@SAXAAV?$allocator@U?$_List_node@U?$pair@$$CBHW4key_bind_mode@@@std@@PAX@std@@@1@PAU01@@Z 10011560 f i local_animations.obj
 0001:00010600       ?initialize@resolver@@QAEXPAVplayer_t@@PAVadjust_data@@ABM2@Z 10011600 f   resolver.obj
 0001:00010660       ?reset@resolver@@QAEXXZ    10011660 f   resolver.obj
 0001:000106c0       ?resolve_yaw@resolver@@QAEXXZ 100116c0 f   resolver.obj
 0001:00010880       ?resolve_pitch@resolver@@QAEMXZ 10011880 f   resolver.obj
 0001:000108a0       ?XMScalarSinCos@DirectX@@YAXPAM0M@Z 100118a0 f i setup_bones.obj
 0001:00010a60       ?m_hWeaponWorldModel@weapon_t@@QBEAAV?$CHandle@Vweapon_t@@@@XZ 10011a60 f i setup_bones.obj
 0001:00010b10       ?m_nHitboxSet@player_t@@QBEAAHXZ 10011b10 f i setup_bones.obj
 0001:00010bc0       ?Clamp@Vector@@QAE?AV1@XZ  10011bc0 f i legitbot.obj
 0001:00010c90       ?DistTo@Vector@@QBEMABV1@@Z 10011c90 f i legitbot.obj
 0001:00010d20       ??0Ray_t@@QAE@XZ           10011d20 f i legitbot.obj
 0001:00010e50       ?Init@Ray_t@@QAEXABVVector@@0@Z 10011e50 f i legitbot.obj
 0001:00011030       ?m_iItemDefinitionIndex@weapon_t@@QBEAAFXZ 10012030 f i legitbot.obj
 0001:000110e0       ?m_iClip1@weapon_t@@QBEAAHXZ 100120e0 f i legitbot.obj
 0001:00011190       ?m_zoomLevel@weapon_t@@QBEAAHXZ 10012190 f i legitbot.obj
 0001:00011240       ?m_iShotsFired@player_t@@QBEAAHXZ 10012240 f i legitbot.obj
 0001:000112f0       ?m_flFlashDuration@player_t@@QBEAAMXZ 100122f0 f i legitbot.obj
 0001:000113a0       ?m_iHealth@player_t@@QBEAAHXZ 100123a0 f i legitbot.obj
 0001:00011450       ?m_aimPunchAngle@player_t@@QBEAAVVector@@XZ 10012450 f i legitbot.obj
 0001:00011500       ?IsNotTarget@@YA_NPAVplayer_t@@@Z 10012500 f   legitbot.obj
 0001:00011570       ?do_smooth@legit_bot@@QAEXABVVector@@0AAV2@@Z 10012570 f   legitbot.obj
 0001:00011a00       ?dynamic_fov_to@@YAMMABVVector@@0@Z 10012a00 f   legitbot.obj
 0001:00011b00       ?static_fov_to@@YAMABVVector@@0@Z 10012b00 f   legitbot.obj
 0001:00011ba0       ?in_smoke@@YA_NABVVector@@0@Z 10012ba0 f   legitbot.obj
 0001:00011c80       ?createmove@legit_bot@@QAEXPAVCUserCmd@@@Z 10012c80 f   legitbot.obj
 0001:00012800       ?calc_fov@legit_bot@@QAEXXZ 10013800 f   legitbot.obj
 0001:000128b0       ?calc_smooth@legit_bot@@QAEXXZ 100138b0 f   legitbot.obj
 0001:00012960       ?do_rcs@legit_bot@@QAEXPAVCUserCmd@@@Z 10013960 f   legitbot.obj
 0001:00012d70       ?auto_pistol@legit_bot@@QAEXPAVCUserCmd@@@Z 10013d70 f   legitbot.obj
 0001:00012e00       ?find_best_point@legit_bot@@QAEXPAVCUserCmd@@M@Z 10013e00 f   legitbot.obj
 0001:00013cc0       ?find_target@legit_bot@@QAEXXZ 10014cc0 f   legitbot.obj
 0001:00013e70       ?hitchance@legit_bot@@QAEHPAVplayer_t@@ABVVector@@1H@Z 10014e70 f   legitbot.obj
 0001:000145d0       ?hitbox_intersection@legit_bot@@QAE_NPAVplayer_t@@PAVmatrix3x4_t@@HABVVector@@2@Z 100155d0 f   legitbot.obj
 0001:00014710       ?get@?$singleton@Vautowall@@@@SAAAVautowall@@XZ 10015710 f i legitbot.obj
 0001:00014780       ___local_stdio_printf_options 10015780 f i menu.obj
 0001:000147a0       _sprintf_s                 100157a0 f i menu.obj
 0001:00014810       __snprintf                 10015810 f i menu.obj
 0001:00014890       ?_Swap_proxy_and_iterators@_Container_base12@std@@QAEXAAU12@@Z 10015890 f i menu.obj
 0001:00014920       ?_Xlen_string@std@@YAXXZ   10015920 f i menu.obj
 0001:00014940       ??0ImVec2@@QAE@XZ          10015940 f i menu.obj
 0001:00014970       ??0ImVec2@@QAE@MM@Z        10015970 f i menu.obj
 0001:000149b0       ??0ImVec4@@QAE@XZ          100159b0 f i menu.obj
 0001:00014a00       ??0ImVec4@@QAE@MMMM@Z      10015a00 f i menu.obj
 0001:00014a50       ??0ImColor@@QAE@HHHH@Z     10015a50 f i menu.obj
 0001:00014b00       ??1ImGuiIO@@QAE@XZ         10015b00 f i menu.obj
 0001:00014b70       ?update@item_setting@@QAEXXZ 10015b70 f i menu.obj
 0001:00014c60       ?get_wep@@YA?AV?$basic_string@DU?$char_traits@D@std@@V?$allocator@D@2@@std@@HH_N@Z 10015c60 f   menu.obj
 0001:000155c0       ?get_skin_preview@@YAPAUIDirect3DTexture9@@PBDABV?$basic_string@DU?$char_traits@D@std@@V?$allocator@D@2@@std@@PAUIDirect3DDevice9@@@Z 100165c0 f   menu.obj
 0001:000161e0       ?initialize@c_menu@@QAEXPAUIDirect3DDevice9@@@Z 100171e0 f   menu.obj
 0001:00016510       ??0ImGuiIO@@QAE@ABU0@@Z    10017510 f i menu.obj
 0001:00016bc0       ?draw_combo@@YAXPBDAAHQAPBDH@Z 10017bc0 f   menu.obj
 0001:00016d40       ?draw_multicombo@@YAXV?$basic_string@DU?$char_traits@D@std@@V?$allocator@D@2@@std@@AAV?$vector@HV?$allocator@H@std@@@2@QAPBDHAAV12@@Z 10017d40 f   menu.obj
 0001:00017270       ?draw_begin@c_menu@@QAEXXZ 10018270 f   menu.obj
 0001:000172b0       ?child_title@@YAXPBD@Z     100182b0 f   menu.obj
 0001:00017360       ?LabelClick@@YA_NPBDPA_N0@Z 10018360 f   menu.obj
 0001:00017900       ?draw_keybind@@YAXPBDPAUkey_bind@@0@Z 10018900 f   menu.obj
 0001:00018100       ?draw@c_menu@@QAEXXZ       10019100 f   menu.obj
 0001:0001e2b0       ??4PaintKit@SkinChanger@@QAEAAU01@ABU01@@Z 1001f2b0 f i menu.obj
 0001:0001e340       ??0?$_Deque_const_iterator@V?$_Deque_val@U?$_Deque_simple_types@Ucommand@@@std@@@std@@@std@@QAE@ABV01@@Z 1001f340 f i hooked_senddatagram.obj
 0001:0001e340       ??0?$_Tree_unchecked_const_iterator@V?$_Tree_val@U?$_Tree_simple_types@U?$pair@$$CBI_N@std@@@std@@@std@@U_Iterator_base12@2@@std@@QAE@$$QAV01@@Z 1001f340 f i imgui_widgets.obj
 0001:0001e340       ??0?$_Tree_unchecked_const_iterator@V?$_Tree_val@U?$_Tree_simple_types@U?$pair@$$CBIM@std@@@std@@@std@@U_Iterator_base12@2@@std@@QAE@$$QAV01@@Z 1001f340 f i imgui_widgets.obj
 0001:0001e340       ??0?$_List_iterator@V?$_List_val@U?$_List_simple_types@U?$pair@$$CBV?$basic_string@DU?$char_traits@D@std@@V?$allocator@D@2@@std@@PAURecvTable@@@std@@@std@@@std@@@std@@QAE@$$QAV01@@Z 1001f340 f i main.obj
 0001:0001e340       ??0?$_Deque_const_iterator@V?$_Deque_val@U?$_Deque_simple_types@Uloginfo_t@eventlogs@@@std@@@std@@@std@@QAE@ABV01@@Z 1001f340 f i logs.obj
 0001:0001e340       ??0?$_Tree_unchecked_const_iterator@V?$_Tree_val@U?$_Tree_simple_types@U?$pair@$$CBIUcircle_button@@@std@@@std@@@std@@U_Iterator_base12@2@@std@@QAE@$$QAV01@@Z 1001f340 f i imgui_widgets.obj
 0001:0001e340       ??0?$_Tree_unchecked_const_iterator@V?$_Tree_val@U?$_Tree_simple_types@U?$pair@$$CBIUImVec4@@@std@@@std@@@std@@U_Iterator_base12@2@@std@@QAE@$$QAV01@@Z 1001f340 f i imgui_widgets.obj
 0001:0001e340       ??0?$_List_iterator@V?$_List_val@U?$_List_simple_types@U?$pair@$$CBV?$basic_string@DU?$char_traits@D@std@@V?$allocator@D@2@@std@@H@std@@@std@@@std@@@std@@QAE@$$QAV01@@Z 1001f340 f i SkinChanger.obj
 0001:0001e340       ??0?$_Vector_const_iterator@V?$_Vector_val@U?$_Simple_types@UPaintKit@SkinChanger@@@std@@@std@@@std@@QAE@$$QAV01@@Z 1001f340 f i menu.obj
 0001:0001e340       ??0?$_Tree_unchecked_const_iterator@V?$_Tree_val@U?$_Tree_simple_types@U?$pair@$$CBIUcolorpicket_state@@@std@@@std@@@std@@U_Iterator_base12@2@@std@@QAE@$$QAV01@@Z 1001f340 f i imgui_widgets.obj
 0001:0001e340       ??0?$_Tree_unchecked_const_iterator@V?$_Tree_val@U?$_Tree_simple_types@U?$pair@$$CBIUarrow_anim@@@std@@@std@@@std@@U_Iterator_base12@2@@std@@QAE@$$QAV01@@Z 1001f340 f i imgui_widgets.obj
 0001:0001e340       ??0?$_Vector_const_iterator@V?$_Vector_val@U?$_Simple_types@Uimpact_data@bullettracers@@@std@@@std@@@std@@QAE@$$QAV01@@Z 1001f340 f i bullet_tracers.obj
 0001:0001e380       ?draw_end@c_menu@@QAEXXZ   1001f380 f   menu.obj
 0001:0001e3c0       ?is_menu_opened@c_menu@@QAE_NXZ 1001f3c0 f   menu.obj
 0001:0001e3e0       ?set_menu_opened@c_menu@@QAEX_N@Z 1001f3e0 f   menu.obj
 0001:0001e400       ??H?$_Vector_iterator@V?$_Vector_val@U?$_Simple_types@UPaintKit@SkinChanger@@@std@@@std@@@std@@QBE?AV01@H@Z 1001f400 f i menu.obj
 0001:0001e4e0       ?get@?$singleton@Veventlogs@@@@SAAAVeventlogs@@XZ 1001f4e0 f i menu.obj
 0001:0001e5b0       ?get@?$singleton@Vc_menu@@@@SAAAVc_menu@@XZ 1001f5b0 f i menu.obj
 0001:0001e660       ??A?$array@Uitem_setting@@$0CE@@std@@QAEAAUitem_setting@@I@Z 1001f660 f i menu.obj
 0001:0001e700       ?at@?$array@Uitem_setting@@$0CE@@std@@QAEAAUitem_setting@@I@Z 1001f700 f i menu.obj
 0001:0001e730       ?size@?$array@Uitem_setting@@$0CE@@std@@QBEIXZ 1001f730 f i menu.obj
 0001:0001e770       ?at@?$vector@UPaintKit@SkinChanger@@V?$allocator@UPaintKit@SkinChanger@@@std@@@std@@QAEAAUPaintKit@SkinChanger@@I@Z 1001f770 f i menu.obj
 0001:0001e7c0       ??A?$vector@UPaintKit@SkinChanger@@V?$allocator@UPaintKit@SkinChanger@@@std@@@std@@QBEABUPaintKit@SkinChanger@@I@Z 1001f7c0 f i menu.obj
 0001:0001e880       ?size@?$vector@UPaintKit@SkinChanger@@V?$allocator@UPaintKit@SkinChanger@@@std@@@std@@QBEIXZ 1001f880 f i menu.obj
 0001:0001e8e0       ?empty@?$vector@UPaintKit@SkinChanger@@V?$allocator@UPaintKit@SkinChanger@@@std@@@std@@QBE_NXZ 1001f8e0 f i menu.obj
 0001:0001e950       ?end@?$vector@UPaintKit@SkinChanger@@V?$allocator@UPaintKit@SkinChanger@@@std@@@std@@QAE?AV?$_Vector_iterator@V?$_Vector_val@U?$_Simple_types@UPaintKit@SkinChanger@@@std@@@std@@@2@XZ 1001f950 f i menu.obj
 0001:0001e9e0       ?begin@?$vector@UPaintKit@SkinChanger@@V?$allocator@UPaintKit@SkinChanger@@@std@@@std@@QAE?AV?$_Vector_iterator@V?$_Vector_val@U?$_Simple_types@UPaintKit@SkinChanger@@@std@@@std@@@2@XZ 1001f9e0 f i menu.obj
 0001:0001ea70       ?erase@?$vector@UPaintKit@SkinChanger@@V?$allocator@UPaintKit@SkinChanger@@@std@@@std@@QAE?AV?$_Vector_iterator@V?$_Vector_val@U?$_Simple_types@UPaintKit@SkinChanger@@@std@@@std@@@2@V?$_Vector_const_iterator@V?$_Vector_val@U?$_Simple_types@UPaintKit@SkinChanger@@@std@@@std@@@2@0@Z 1001fa70 f i menu.obj
 0001:0001ec90       ??1?$vector@UPaintKit@SkinChanger@@V?$allocator@UPaintKit@SkinChanger@@@std@@@std@@QAE@XZ 1001fc90 f i menu.obj
 0001:0001ed20       ??0?$vector@UPaintKit@SkinChanger@@V?$allocator@UPaintKit@SkinChanger@@@std@@@std@@QAE@ABV01@@Z 1001fd20 f i menu.obj
 0001:0001ee90       ?at@?$vector@V?$basic_string@DU?$char_traits@D@std@@V?$allocator@D@2@@std@@V?$allocator@V?$basic_string@DU?$char_traits@D@std@@V?$allocator@D@2@@std@@@2@@std@@QAEAAV?$basic_string@DU?$char_traits@D@std@@V?$allocator@D@2@@2@I@Z 1001fe90 f i menu.obj
 0001:0001eee0       ??1?$vector@V?$basic_string@DU?$char_traits@D@std@@V?$allocator@D@2@@std@@V?$allocator@V?$basic_string@DU?$char_traits@D@std@@V?$allocator@D@2@@std@@@2@@std@@QAE@XZ 1001fee0 f i menu.obj
 0001:0001ef70       ??0?$vector@Vadjust_data@@V?$allocator@Vadjust_data@@@std@@@std@@QAE@XZ 1001ff70 f i fakelag.obj
 0001:0001ef70       ??0?$vector@U?$pair@E_N@std@@V?$allocator@U?$pair@E_N@std@@@2@@std@@QAE@XZ 1001ff70 f i util.obj
 0001:0001ef70       ??0?$vector@HV?$allocator@H@std@@@std@@QAE@XZ 1001ff70 f i aim.obj
 0001:0001ef70       ??0?$vector@Vtarget@@V?$allocator@Vtarget@@@std@@@std@@QAE@XZ 1001ff70 f i fakelag.obj
 0001:0001ef70       ??0?$vector@VMaterialBackup@@V?$allocator@VMaterialBackup@@@std@@@std@@QAE@XZ 1001ff70 f i nightmode.obj
 0001:0001ef70       ??0?$vector@Vscanned_target@@V?$allocator@Vscanned_target@@@std@@@std@@QAE@XZ 1001ff70 f i fakelag.obj
 0001:0001ef70       ??0?$vector@Vscan_point@@V?$allocator@Vscan_point@@@std@@@std@@QAE@XZ 1001ff70 f i aim.obj
 0001:0001ef70       ??0?$vector@V?$basic_string@DU?$char_traits@D@std@@V?$allocator@D@2@@std@@V?$allocator@V?$basic_string@DU?$char_traits@D@std@@V?$allocator@D@2@@std@@@2@@std@@QAE@XZ 1001ff70 f i menu.obj
 0001:0001f000       ??A?$vector@HV?$allocator@H@std@@@std@@QAEAAHI@Z 10020000 f i menu.obj
 0001:0001f0c0       ??1?$ImVector@G@@QAE@XZ    100200c0 f i menu.obj
 0001:0001f120       ?find@?$basic_string@DU?$char_traits@D@std@@V?$allocator@D@2@@std@@QBEIQBDI@Z 10020120 f i menu.obj
 0001:0001f210       ?empty@?$basic_string@DU?$char_traits@D@std@@V?$allocator@D@2@@std@@QBE_NXZ 10020210 f i menu.obj
 0001:0001f270       ?size@?$basic_string@DU?$char_traits@D@std@@V?$allocator@D@2@@std@@QBEIXZ 10020270 f i menu.obj
 0001:0001f2b0       ?c_str@?$basic_string@DU?$char_traits@D@std@@V?$allocator@D@2@@std@@QBEPBDXZ 100202b0 f i menu.obj
 0001:0001f340       ?at@?$basic_string@DU?$char_traits@D@std@@V?$allocator@D@2@@std@@QAEAADI@Z 10020340 f i menu.obj
 0001:0001f380       ?replace@?$basic_string@DU?$char_traits@D@std@@V?$allocator@D@2@@std@@QAEAAV12@IIQBDI@Z 10020380 f i menu.obj
 0001:0001f660       ?erase@?$basic_string@DU?$char_traits@D@std@@V?$allocator@D@2@@std@@QAEAAV12@II@Z 10020660 f i menu.obj
 0001:0001f760       ?assign@?$basic_string@DU?$char_traits@D@std@@V?$allocator@D@2@@std@@QAEAAV12@QBDI@Z 10020760 f i menu.obj
 0001:0001f7e0       ?append@?$basic_string@DU?$char_traits@D@std@@V?$allocator@D@2@@std@@QAEAAV12@QBDI@Z 100207e0 f i menu.obj
 0001:0001f870       ??Y?$basic_string@DU?$char_traits@D@std@@V?$allocator@D@2@@std@@QAEAAV01@ABV01@@Z 10020870 f i menu.obj
 0001:0001f870       ?append@?$basic_string@DU?$char_traits@D@std@@V?$allocator@D@2@@std@@QAEAAV12@ABV12@@Z 10020870 f i menu.obj
 0001:0001f8b0       ??4?$basic_string@DU?$char_traits@D@std@@V?$allocator@D@2@@std@@QAEAAV01@QBD@Z 100208b0 f i menu.obj
 0001:0001f910       ??4?$basic_string@DU?$char_traits@D@std@@V?$allocator@D@2@@std@@QAEAAV01@$$QAV01@@Z 10020910 f i menu.obj
 0001:0001f980       ??0?$basic_string@DU?$char_traits@D@std@@V?$allocator@D@2@@std@@QAE@$$QAV01@@Z 10020980 f i menu.obj
 0001:0001fa40       ??0?$basic_string@DU?$char_traits@D@std@@V?$allocator@D@2@@std@@QAE@QBD@Z 10020a40 f i menu.obj
 0001:0001fb70       ??0?$basic_string@DU?$char_traits@D@std@@V?$allocator@D@2@@std@@QAE@XZ 10020b70 f i menu.obj
 0001:0001fc20       ??0?$basic_string@DU?$char_traits@D@std@@V?$allocator@D@2@@std@@QAE@ABV01@@Z 10020c20 f i menu.obj
 0001:0001fd00       ??0c_menu@@QAE@XZ          10020d00 f i menu.obj
 0001:0001fde0       ??0<unnamed-type-styles>@c_menu@@QAE@XZ 10020de0 f i menu.obj
 0001:0001fee0       ??1?$_Tidy_guard@V?$vector@UPaintKit@SkinChanger@@V?$allocator@UPaintKit@SkinChanger@@@std@@@std@@@std@@QAE@XZ 10020ee0 f i menu.obj
 0001:0001ff30       ??1?$deque@Uloginfo_t@eventlogs@@V?$allocator@Uloginfo_t@eventlogs@@@std@@@std@@QAE@XZ 10020f30 f i menu.obj
 0001:0001ffc0       ??0?$deque@Uloginfo_t@eventlogs@@V?$allocator@Uloginfo_t@eventlogs@@@std@@@std@@QAE@XZ 10020fc0 f i menu.obj
 0001:00020050       ??1?$singleton@Veventlogs@@@@IAE@XZ 10021050 f i menu.obj
 0001:00020050       ??1?$singleton@Vc_menu@@@@IAE@XZ 10021050 f i menu.obj
 0001:00020090       ?_Xran@?$array@Uitem_setting@@$0CE@@std@@QBEXXZ 10021090 f i menu.obj
 0001:00020090       ?_Xran@?$array@VVector2D@@$02@std@@QBEXXZ 10021090 f i misc.obj
 0001:000200b0       ?_Orphan_range@?$vector@HV?$allocator@H@std@@@std@@ABEXPAH0@Z 100210b0 f i aim.obj
 0001:000200b0       ?_Orphan_range@?$vector@U?$pair@VVector@@VColor@@@std@@V?$allocator@U?$pair@VVector@@VColor@@@std@@@2@@std@@ABEXPAU?$pair@VVector@@VColor@@@2@0@Z 100210b0 f i GrenadePrediction.obj
 0001:000200b0       ?_Orphan_range@?$vector@Vscanned_target@@V?$allocator@Vscanned_target@@@std@@@std@@ABEXPAVscanned_target@@0@Z 100210b0 f i aim.obj
 0001:000200b0       ?_Orphan_range@?$vector@VVector@@V?$allocator@VVector@@@std@@@std@@ABEXPAVVector@@0@Z 100210b0 f i GrenadePrediction.obj
 0001:000200b0       ?_Orphan_range@?$vector@Uaim_shot@@V?$allocator@Uaim_shot@@@std@@@std@@ABEXPAUaim_shot@@0@Z 100210b0 f i aim.obj
 0001:000200b0       ?_Orphan_range@?$vector@Vscan_point@@V?$allocator@Vscan_point@@@std@@@std@@ABEXPAVscan_point@@0@Z 100210b0 f i aim.obj
 0001:000200b0       ?_Orphan_range@?$vector@U?$pair@E_N@std@@V?$allocator@U?$pair@E_N@std@@@2@@std@@ABEXPAU?$pair@E_N@2@0@Z 100210b0 f i util.obj
 0001:000200b0       ?_Orphan_range@?$vector@Um_indicator@@V?$allocator@Um_indicator@@@std@@@std@@ABEXPAUm_indicator@@0@Z 100210b0 f i other_esp.obj
 0001:000200b0       ?_Orphan_range@?$vector@UPaintKit@SkinChanger@@V?$allocator@UPaintKit@SkinChanger@@@std@@@std@@ABEXPAUPaintKit@SkinChanger@@0@Z 100210b0 f i menu.obj
 0001:000200b0       ?_Orphan_range@?$vector@Uimpact_data@bullettracers@@V?$allocator@Uimpact_data@bullettracers@@@std@@@std@@ABEXPAUimpact_data@bullettracers@@0@Z 100210b0 f i bullet_tracers.obj
 0001:000200b0       ?_Orphan_range@?$vector@V?$basic_string@DU?$char_traits@D@std@@V?$allocator@D@2@@std@@V?$allocator@V?$basic_string@DU?$char_traits@D@std@@V?$allocator@D@2@@std@@@2@@std@@ABEXPAV?$basic_string@DU?$char_traits@D@std@@V?$allocator@D@2@@2@0@Z 100210b0 f i misc.obj
 0001:000200b0       ?_Orphan_range@?$vector@VMaterialBackup@@V?$allocator@VMaterialBackup@@@std@@@std@@ABEXPAVMaterialBackup@@0@Z 100210b0 f i nightmode.obj
 0001:000200b0       ?_Orphan_range@?$vector@Vadjust_data@@V?$allocator@Vadjust_data@@@std@@@std@@ABEXPAVadjust_data@@0@Z 100210b0 f i aim.obj
 0001:000200b0       ?_Orphan_range@?$vector@Vtarget@@V?$allocator@Vtarget@@@std@@@std@@ABEXPAVtarget@@0@Z 100210b0 f i aim.obj
 0001:00020140       ?_Xrange@?$vector@HV?$allocator@H@std@@@std@@CAXXZ 10021140 f i aim.obj
 0001:00020140       ?_Xrange@?$vector@UPaintKit@SkinChanger@@V?$allocator@UPaintKit@SkinChanger@@@std@@@std@@CAXXZ 10021140 f i menu.obj
 0001:00020140       ?_Xrange@?$vector@V?$basic_string@DU?$char_traits@D@std@@V?$allocator@D@2@@std@@V?$allocator@V?$basic_string@DU?$char_traits@D@std@@V?$allocator@D@2@@std@@@2@@std@@CAXXZ 10021140 f i menu.obj
 0001:00020160       ?_Tidy@?$vector@UPaintKit@SkinChanger@@V?$allocator@UPaintKit@SkinChanger@@@std@@@std@@AAEXXZ 10021160 f i menu.obj
 0001:00020260       ?_Buy_raw@?$vector@UPaintKit@SkinChanger@@V?$allocator@UPaintKit@SkinChanger@@@std@@@std@@AAEXI@Z 10021260 f i menu.obj
 0001:00020300       ?_Destroy@?$vector@UPaintKit@SkinChanger@@V?$allocator@UPaintKit@SkinChanger@@@std@@@std@@AAEXPAUPaintKit@SkinChanger@@0@Z 10021300 f i menu.obj
 0001:00020340       ?_Copy_assign@?$vector@UPaintKit@SkinChanger@@V?$allocator@UPaintKit@SkinChanger@@@std@@@std@@AAEXABV12@U?$integral_constant@_N$0A@@2@@Z 10021340 f i menu.obj
 0001:000203f0       ?_Tidy@?$vector@V?$basic_string@DU?$char_traits@D@std@@V?$allocator@D@2@@std@@V?$allocator@V?$basic_string@DU?$char_traits@D@std@@V?$allocator@D@2@@std@@@2@@std@@AAEXXZ 100213f0 f i menu.obj
 0001:000204f0       ?deallocate@?$allocator@V?$basic_string@DU?$char_traits@D@std@@V?$allocator@D@2@@std@@@std@@QAEXQAV?$basic_string@DU?$char_traits@D@std@@V?$allocator@D@2@@2@I@Z 100214f0 f i menu.obj
 0001:00020520       ??4?$ImVector@G@@QAEAAU0@ABU0@@Z 10021520 f i menu.obj
 0001:000205a0       ?_Copy_assign@?$basic_string@DU?$char_traits@D@std@@V?$allocator@D@2@@std@@AAEXABV12@U?$integral_constant@_N$0A@@2@@Z 100215a0 f i menu.obj
 0001:00020660       ?_Construct_lv_contents@?$basic_string@DU?$char_traits@D@std@@V?$allocator@D@2@@std@@AAEXABV12@@Z 10021660 f i menu.obj
 0001:00020780       ?_Take_contents@?$basic_string@DU?$char_traits@D@std@@V?$allocator@D@2@@std@@AAEXAAV12@U?$integral_constant@_N$00@2@@Z 10021780 f i menu.obj
 0001:00020870       ?_Move_assign@?$basic_string@DU?$char_traits@D@std@@V?$allocator@D@2@@std@@AAEXAAV12@U_Equal_allocators@2@@Z 10021870 f i menu.obj
 0001:00020900       ?_Myptr@?$_String_val@U?$_Simple_types@D@std@@@std@@QBEPBDXZ 10021900 f i menu.obj
 0001:00020900       ?_Myptr@?$_String_val@U?$_Simple_types@D@std@@@std@@QAEPADXZ 10021900 f i menu.obj
 0001:00020980       ?_Tidy@?$deque@Uloginfo_t@eventlogs@@V?$allocator@Uloginfo_t@eventlogs@@@std@@@std@@AAEXXZ 10021980 f i menu.obj
 0001:00020b70       ?deallocate@?$allocator@UPaintKit@SkinChanger@@@std@@QAEXQAUPaintKit@SkinChanger@@I@Z 10021b70 f i menu.obj
 0001:00020ba0       ?_Destroy@?$vector@V?$basic_string@DU?$char_traits@D@std@@V?$allocator@D@2@@std@@V?$allocator@V?$basic_string@DU?$char_traits@D@std@@V?$allocator@D@2@@std@@@2@@std@@AAEXPAV?$basic_string@DU?$char_traits@D@std@@V?$allocator@D@2@@2@0@Z 10021ba0 f i menu.obj
 0001:00020be0       ?resize@?$ImVector@G@@QAEXH@Z 10021be0 f i menu.obj
 0001:00020c60       ?max_size@?$basic_string@DU?$char_traits@D@std@@V?$allocator@D@2@@std@@QBEIXZ 10021c60 f i menu.obj
 0001:00020d20       ?_Xran@?$_String_val@U?$_Simple_types@D@std@@@std@@SAXXZ 10021d20 f i menu.obj
 0001:00020d40       ?_Verify_offset@?$_Vector_const_iterator@V?$_Vector_val@U?$_Simple_types@UPaintKit@SkinChanger@@@std@@@std@@@std@@QBEXH@Z 10021d40 f i menu.obj
 0001:00020eb0       ?pop_back@?$deque@Uloginfo_t@eventlogs@@V?$allocator@Uloginfo_t@eventlogs@@@std@@@std@@QAEXXZ 10021eb0 f i menu.obj
 0001:00021080       ?reserve@?$ImVector@G@@QAEXH@Z 10022080 f i menu.obj
 0001:00021100       ??$?HDU?$char_traits@D@std@@V?$allocator@D@1@@std@@YA?AV?$basic_string@DU?$char_traits@D@std@@V?$allocator@D@2@@0@QBDABV10@@Z 10022100 f i menu.obj
 0001:00021200       ??$?HDU?$char_traits@D@std@@V?$allocator@D@1@@std@@YA?AV?$basic_string@DU?$char_traits@D@std@@V?$allocator@D@2@@0@QBD$$QAV10@@Z 10022200 f i menu.obj
 0001:00021290       ??$?8DU?$char_traits@D@std@@V?$allocator@D@1@@std@@YA_NABV?$basic_string@DU?$char_traits@D@std@@V?$allocator@D@2@@0@QBD@Z 10022290 f i menu.obj
 0001:000212b0       ??$?HDU?$char_traits@D@std@@V?$allocator@D@1@@std@@YA?AV?$basic_string@DU?$char_traits@D@std@@V?$allocator@D@2@@0@$$QAV10@QBD@Z 100222b0 f i menu.obj
 0001:00021340       ??$?HDU?$char_traits@D@std@@V?$allocator@D@1@@std@@YA?AV?$basic_string@DU?$char_traits@D@std@@V?$allocator@D@2@@0@$$QAV10@0@Z 10022340 f i menu.obj
 0001:00021420       ??$_Traits_find@U?$char_traits@D@std@@@std@@YAIQBDII0I@Z 10022420 f i menu.obj
 0001:00021500       ??$_Reallocate_grow_by@V<lambda_1>@?1??replace@?$basic_string@DU?$char_traits@D@std@@V?$allocator@D@2@@std@@QAEAAV34@IIQBDI@Z@IIPBDI@?$basic_string@DU?$char_traits@D@std@@V?$allocator@D@2@@std@@AAEAAV01@IV<lambda_1>@?1??replace@01@QAEAAV01@IIQBDI@Z@IIPBDI@Z 10022500 f i menu.obj
 0001:000216c0       ??$_Reallocate_for@V<lambda_1>@?1??assign@?$basic_string@DU?$char_traits@D@std@@V?$allocator@D@2@@std@@QAEAAV34@QBDI@Z@PBD@?$basic_string@DU?$char_traits@D@std@@V?$allocator@D@2@@std@@AAEAAV01@IV<lambda_1>@?1??assign@01@QAEAAV01@QBDI@Z@PBD@Z 100226c0 f i menu.obj
 0001:000217c0       ??$_Reallocate_grow_by@V<lambda_1>@?1??append@?$basic_string@DU?$char_traits@D@std@@V?$allocator@D@2@@std@@QAEAAV34@QBDI@Z@PBDI@?$basic_string@DU?$char_traits@D@std@@V?$allocator@D@2@@std@@AAEAAV01@IV<lambda_1>@?1??append@01@QAEAAV01@QBDI@Z@PBDI@Z 100227c0 f i menu.obj
 0001:00021950       ??$_Destroy_range@V?$allocator@UPaintKit@SkinChanger@@@std@@@std@@YAXPAUPaintKit@SkinChanger@@QAU12@AAV?$allocator@UPaintKit@SkinChanger@@@0@@Z 10022950 f i menu.obj
 0001:000219d0       ??$_Pocma@V?$allocator@D@std@@@std@@YAXAAV?$allocator@D@0@0@Z 100229d0 f i menu.obj
 0001:000219d0       ??$_Destroy_in_place@PAUloginfo_t@eventlogs@@@std@@YAXAAPAUloginfo_t@eventlogs@@@Z 100229d0 f i menu.obj
 0001:000219d0       ??$_Pocca@V?$allocator@D@std@@@std@@YAXAAV?$allocator@D@0@ABV10@@Z 100229d0 f i menu.obj
 0001:000219d0       ??$_Pocca@V?$allocator@UPaintKit@SkinChanger@@@std@@@std@@YAXAAV?$allocator@UPaintKit@SkinChanger@@@0@ABV10@@Z 100229d0 f i menu.obj
 0001:00021a10       ??$_Construct_in_place@PADABQAD@std@@YAXAAPADABQAD@Z 10022a10 f i menu.obj
 0001:00021a70       ??$_Destroy_range@V?$allocator@V?$basic_string@DU?$char_traits@D@std@@V?$allocator@D@2@@std@@@std@@@std@@YAXPAV?$basic_string@DU?$char_traits@D@std@@V?$allocator@D@2@@0@QAV10@AAV?$allocator@V?$basic_string@DU?$char_traits@D@std@@V?$allocator@D@2@@std@@@0@@Z 10022a70 f i menu.obj
 0001:00021ae0       ??4PaintKit@SkinChanger@@QAEAAU01@$$QAU01@@Z 10022ae0 f i menu.obj
 0001:00021b70       ??1Player_list_data@@QAE@XZ 10022b70 f i configs.obj
 0001:00021b70       ??1loginfo_t@eventlogs@@QAE@XZ 10022b70 f i menu.obj
 0001:00021b90       ?_Xlength@?$vector@Vtarget@@V?$allocator@Vtarget@@@std@@@std@@CAXXZ 10022b90 f i aim.obj
 0001:00021b90       ?_Xlength@?$vector@VVector@@V?$allocator@VVector@@@std@@@std@@CAXXZ 10022b90 f i GrenadePrediction.obj
 0001:00021b90       ?_Xlength@?$vector@Um_indicator@@V?$allocator@Um_indicator@@@std@@@std@@CAXXZ 10022b90 f i other_esp.obj
 0001:00021b90       ?_Xlength@?$vector@UPaintKit@SkinChanger@@V?$allocator@UPaintKit@SkinChanger@@@std@@@std@@CAXXZ 10022b90 f i menu.obj
 0001:00021b90       ?_Xlength@?$vector@U?$pair@VVector@@VColor@@@std@@V?$allocator@U?$pair@VVector@@VColor@@@std@@@2@@std@@CAXXZ 10022b90 f i GrenadePrediction.obj
 0001:00021b90       ?_Xlength@?$vector@Vscan_point@@V?$allocator@Vscan_point@@@std@@@std@@CAXXZ 10022b90 f i aim.obj
 0001:00021b90       ?_Xlength@?$vector@V?$basic_string@DU?$char_traits@D@std@@V?$allocator@D@2@@std@@V?$allocator@V?$basic_string@DU?$char_traits@D@std@@V?$allocator@D@2@@std@@@2@@std@@CAXXZ 10022b90 f i menu.obj
 0001:00021b90       ?_Xlength@?$vector@Uaim_shot@@V?$allocator@Uaim_shot@@@std@@@std@@CAXXZ 10022b90 f i aim.obj
 0001:00021b90       ?_Xlength@?$vector@Vadjust_data@@V?$allocator@Vadjust_data@@@std@@@std@@CAXXZ 10022b90 f i aim.obj
 0001:00021b90       ?_Xlength@?$vector@Vscanned_target@@V?$allocator@Vscanned_target@@@std@@@std@@CAXXZ 10022b90 f i aim.obj
 0001:00021b90       ?_Xlength@?$vector@U?$pair@E_N@std@@V?$allocator@U?$pair@E_N@std@@@2@@std@@CAXXZ 10022b90 f i util.obj
 0001:00021b90       ?_Xlength@?$vector@Uimpact_data@bullettracers@@V?$allocator@Uimpact_data@bullettracers@@@std@@@std@@CAXXZ 10022b90 f i bullet_tracers.obj
 0001:00021b90       ?_Xlength@?$vector@HV?$allocator@H@std@@@std@@CAXXZ 10022b90 f i aim.obj
 0001:00021b90       ?_Xlength@?$vector@VMaterialBackup@@V?$allocator@VMaterialBackup@@@std@@@std@@CAXXZ 10022b90 f i nightmode.obj
 0001:00021bb0       ?_Calculate_growth@?$vector@V?$basic_string@DU?$char_traits@D@std@@V?$allocator@D@2@@std@@V?$allocator@V?$basic_string@DU?$char_traits@D@std@@V?$allocator@D@2@@std@@@2@@std@@ABEII@Z 10022bb0 f i menu.obj
 0001:00021bb0       ?_Calculate_growth@?$vector@VMaterialBackup@@V?$allocator@VMaterialBackup@@@std@@@std@@ABEII@Z 10022bb0 f i nightmode.obj
 0001:00021c60       ?_Calculate_growth@?$basic_string@DU?$char_traits@D@std@@V?$allocator@D@2@@std@@ABEII@Z 10022c60 f i menu.obj
 0001:00021d20       ?_Equal@?$basic_string@DU?$char_traits@D@std@@V?$allocator@D@2@@std@@QBE_NQBD@Z 10022d20 f i menu.obj
 0001:00021e40       ??0?$basic_string@DU?$char_traits@D@std@@V?$allocator@D@2@@std@@QAE@U_String_constructor_concat_tag@1@AAV01@1@Z 10022e40 f i menu.obj
 0001:00022400       ??0?$basic_string@DU?$char_traits@D@std@@V?$allocator@D@2@@std@@QAE@U_String_constructor_concat_tag@1@ABV01@QBDI2I@Z 10023400 f i menu.obj
 0001:00022610       ??0?$_String_val@U?$_Simple_types@D@std@@@std@@QAE@XZ 10023610 f i menu.obj
 0001:00022650       ?_Calculate_growth@?$basic_string@DU?$char_traits@D@std@@V?$allocator@D@2@@std@@CAIIII@Z 10023650 f i menu.obj
 0001:000226f0       ?insert@?$basic_string@DU?$char_traits@D@std@@V?$allocator@D@2@@std@@QAEAAV12@IQBDI@Z 100236f0 f i menu.obj
 0001:00022810       ??$clamp@MU?$less@X@std@@@std@@YAABMABM00U?$less@X@0@@Z 10023810 f i menu.obj
 0001:000228d0       ??$_Uninitialized_copy@PAUPaintKit@SkinChanger@@V?$allocator@UPaintKit@SkinChanger@@@std@@@std@@YAPAUPaintKit@SkinChanger@@QAU12@0PAU12@AAV?$allocator@UPaintKit@SkinChanger@@@0@@Z 100238d0 f i menu.obj
 0001:00022980       ??$_Assign_range@PAUPaintKit@SkinChanger@@@?$vector@UPaintKit@SkinChanger@@V?$allocator@UPaintKit@SkinChanger@@@std@@@std@@AAEXPAUPaintKit@SkinChanger@@0Uforward_iterator_tag@1@@Z 10023980 f i menu.obj
 0001:00022b20       ??$_Reallocate_grow_by@V<lambda_1>@?1??insert@?$basic_string@DU?$char_traits@D@std@@V?$allocator@D@2@@std@@QAEAAV34@IQBDI@Z@IPBDI@?$basic_string@DU?$char_traits@D@std@@V?$allocator@D@2@@std@@AAEAAV01@IV<lambda_1>@?1??insert@01@QAEAAV01@IQBDI@Z@IPBDI@Z 10023b20 f i menu.obj
 0001:00022cd0       ??1PaintKit@SkinChanger@@QAE@XZ 10023cd0 f i menu.obj
 0001:00022d00       ??1?$_Uninitialized_backout_al@V?$allocator@V?$basic_string@DU?$char_traits@D@std@@V?$allocator@D@2@@std@@@std@@@std@@QAE@XZ 10023d00 f i menu.obj
 0001:00022d60       ??1?$_Uninitialized_backout_al@V?$allocator@UPaintKit@SkinChanger@@@std@@@std@@QAE@XZ 10023d60 f i menu.obj
 0001:00022dc0       ?_Clear_and_reserve_geometric@?$vector@UPaintKit@SkinChanger@@V?$allocator@UPaintKit@SkinChanger@@@std@@@std@@AAEXI@Z 10023dc0 f i menu.obj
 0001:00022f10       ?_Clear_and_reserve_geometric@?$vector@V?$basic_string@DU?$char_traits@D@std@@V?$allocator@D@2@@std@@V?$allocator@V?$basic_string@DU?$char_traits@D@std@@V?$allocator@D@2@@std@@@2@@std@@AAEXI@Z 10023f10 f i menu.obj
 0001:00023060       ?_Calculate_growth@?$vector@UPaintKit@SkinChanger@@V?$allocator@UPaintKit@SkinChanger@@@std@@@std@@ABEII@Z 10024060 f i menu.obj
 0001:00023110       ?_Buy_raw@?$vector@V?$basic_string@DU?$char_traits@D@std@@V?$allocator@D@2@@std@@V?$allocator@V?$basic_string@DU?$char_traits@D@std@@V?$allocator@D@2@@std@@@2@@std@@AAEXI@Z 10024110 f i menu.obj
 0001:000231b0       ??$_Debug_lt_pred@AAU?$less@X@std@@ABMABM$0A@@std@@YA_NAAU?$less@X@0@ABM1@Z 100241b0 f i menu.obj
 0001:000232a0       ??$_Emplace_back@AAUPaintKit@SkinChanger@@@?$_Uninitialized_backout_al@V?$allocator@UPaintKit@SkinChanger@@@std@@@std@@QAEXAAUPaintKit@SkinChanger@@@Z 100242a0 f i menu.obj
 0001:00023310       ??0PaintKit@SkinChanger@@QAE@ABU01@@Z 10024310 f i menu.obj
 0001:00023390       ?create_move@airstrafe@@QAEXPAVCUserCmd@@@Z 10024390 f   airstrafe.obj
 0001:000249d0       ?create_move@bunnyhop@@QAEXXZ 100259d0 f   bunnyhop.obj
 0001:00024ae0       ?m_lifeState@player_t@@QBEAAHXZ 10025ae0 f i fakelag.obj
 0001:00024b90       ?valid@adjust_data@@QAE_N_N@Z 10025b90 f i fakelag.obj
 0001:00024f10       ??0scan_point@@QAE@XZ      10025f10 f i fakelag.obj
 0001:00024fb0       ?reset@scan_point@@QAEXXZ  10025fb0 f i fakelag.obj
 0001:00025010       ??0scan_data@@QAE@XZ       10026010 f i fakelag.obj
 0001:00025060       ?reset@scan_data@@QAEXXZ   10026060 f i fakelag.obj
 0001:000250a0       ??0scanned_target@@QAE@XZ  100260a0 f i fakelag.obj
 0001:000250d0       ?reset@scanned_target@@QAEXXZ 100260d0 f i fakelag.obj
 0001:00025140       ?Fakelag@fakelag@@QAEXPAVCUserCmd@@@Z 10026140 f   fakelag.obj
 0001:00026130       ?Createmove@fakelag@@QAEXXZ 10027130 f   fakelag.obj
 0001:00026280       ?FakelagCondition@fakelag@@QAE_NPAVCUserCmd@@@Z 10027280 f   fakelag.obj
 0001:00026310       ?get@?$singleton@Vmisc@@@@SAAAVmisc@@XZ 10027310 f i fakelag.obj
 0001:000263a0       ?get@?$singleton@Vaim@@@@SAAAVaim@@XZ 100273a0 f i fakelag.obj
 0001:00026450       ??0aim@@QAE@XZ             10027450 f i fakelag.obj
 0001:00026550       ??0Last_target@@QAE@XZ     10027550 f i fakelag.obj
 0001:00026580       ??1?$vector@Vadjust_data@@V?$allocator@Vadjust_data@@@std@@@std@@QAE@XZ 10027580 f i fakelag.obj
 0001:00026610       ??1?$vector@Vtarget@@V?$allocator@Vtarget@@@std@@@std@@QAE@XZ 10027610 f i fakelag.obj
 0001:000266a0       ??1?$vector@Vscanned_target@@V?$allocator@Vscanned_target@@@std@@@std@@QAE@XZ 100276a0 f i fakelag.obj
 0001:00026730       ?_Tidy@?$vector@Vadjust_data@@V?$allocator@Vadjust_data@@@std@@@std@@AAEXXZ 10027730 f i fakelag.obj
 0001:00026830       ?_Tidy@?$vector@Vtarget@@V?$allocator@Vtarget@@@std@@@std@@AAEXXZ 10027830 f i fakelag.obj
 0001:00026930       ?_Tidy@?$vector@Vscanned_target@@V?$allocator@Vscanned_target@@@std@@@std@@AAEXXZ 10027930 f i fakelag.obj
 0001:00026a30       ?_Destroy@?$vector@HV?$allocator@H@std@@@std@@AAEXPAH0@Z 10027a30 f i aim.obj
 0001:00026a30       ?_Destroy@?$vector@Vtarget@@V?$allocator@Vtarget@@@std@@@std@@AAEXPAVtarget@@0@Z 10027a30 f i fakelag.obj
 0001:00026a30       ?_Destroy@?$vector@Vscan_point@@V?$allocator@Vscan_point@@@std@@@std@@AAEXPAVscan_point@@0@Z 10027a30 f i aim.obj
 0001:00026a30       ?_Destroy@?$vector@U?$pair@VVector@@VColor@@@std@@V?$allocator@U?$pair@VVector@@VColor@@@std@@@2@@std@@AAEXPAU?$pair@VVector@@VColor@@@2@0@Z 10027a30 f i GrenadePrediction.obj
 0001:00026a30       ?_Destroy@?$vector@Uimpact_data@bullettracers@@V?$allocator@Uimpact_data@bullettracers@@@std@@@std@@AAEXPAUimpact_data@bullettracers@@0@Z 10027a30 f i bullet_tracers.obj
 0001:00026a30       ?_Destroy@?$vector@Vscanned_target@@V?$allocator@Vscanned_target@@@std@@@std@@AAEXPAVscanned_target@@0@Z 10027a30 f i fakelag.obj
 0001:00026a30       ?_Destroy@?$vector@VMaterialBackup@@V?$allocator@VMaterialBackup@@@std@@@std@@AAEXPAVMaterialBackup@@0@Z 10027a30 f i nightmode.obj
 0001:00026a30       ?_Destroy@?$vector@Vadjust_data@@V?$allocator@Vadjust_data@@@std@@@std@@AAEXPAVadjust_data@@0@Z 10027a30 f i fakelag.obj
 0001:00026a30       ?_Destroy@?$vector@VVector@@V?$allocator@VVector@@@std@@@std@@AAEXPAVVector@@0@Z 10027a30 f i GrenadePrediction.obj
 0001:00026a30       ?_Destroy@?$vector@U?$pair@E_N@std@@V?$allocator@U?$pair@E_N@std@@@2@@std@@AAEXPAU?$pair@E_N@2@0@Z 10027a30 f i util.obj
 0001:00026a70       ?deallocate@?$allocator@Vtarget@@@std@@QAEXQAVtarget@@I@Z 10027a70 f i fakelag.obj
 0001:00026a70       ?deallocate@?$allocator@VVector@@@std@@QAEXQAVVector@@I@Z 10027a70 f i GrenadePrediction.obj
 0001:00026aa0       ?deallocate@?$allocator@Vscanned_target@@@std@@QAEXQAVscanned_target@@I@Z 10027aa0 f i fakelag.obj
 0001:00026ad0       ?update_key_bind@key_binds@@AAEXPAUkey_bind@@H@Z 10027ad0 f   key_binds.obj
 0001:00026ed0       ?initialize_key_binds@key_binds@@QAEXXZ 10027ed0 f   key_binds.obj
 0001:00026f80       ?update_key_binds@key_binds@@QAEXXZ 10027f80 f   key_binds.obj
 0001:000270b0       ?get_key_bind_state@key_binds@@QAE_NH@Z 100280b0 f   key_binds.obj
 0001:000270f0       ??$_Try_emplace@ABH$$V@?$_Hash@V?$_Umap_traits@HW4key_bind_mode@@V?$_Uhash_compare@HU?$hash@H@std@@U?$equal_to@H@2@@std@@V?$allocator@U?$pair@$$CBHW4key_bind_mode@@@std@@@3@$0A@@std@@@std@@IAE?AU?$pair@PAU?$_List_node@U?$pair@$$CBHW4key_bind_mode@@@std@@PAX@std@@_N@1@ABH@Z 100280f0 f i key_binds.obj
 0001:00027310       ??$_Try_emplace@ABH$$V@?$_Hash@V?$_Umap_traits@H_NV?$_Uhash_compare@HU?$hash@H@std@@U?$equal_to@H@2@@std@@V?$allocator@U?$pair@$$CBH_N@std@@@2@$0A@@std@@@std@@IAE?AU?$pair@PAU?$_List_node@U?$pair@$$CBH_N@std@@PAX@std@@_N@1@ABH@Z 10028310 f i key_binds.obj
 0001:00027530       ??$_Hash_representation@H@std@@YAIABH@Z 10028530 f i key_binds.obj
 0001:00027580       ??1?$_List_node_emplace_op2@V?$allocator@U?$_List_node@U?$pair@$$CBHW4key_bind_mode@@@std@@PAX@std@@@std@@@std@@QAE@XZ 10028580 f i key_binds.obj
 0001:00027580       ??1?$_List_node_emplace_op2@V?$allocator@U?$_List_node@U?$pair@$$CBH_N@std@@PAX@std@@@std@@@std@@QAE@XZ 10028580 f i key_binds.obj
 0001:00027620       ?_Rehash_for_1@?$_Hash@V?$_Umap_traits@HW4key_bind_mode@@V?$_Uhash_compare@HU?$hash@H@std@@U?$equal_to@H@2@@std@@V?$allocator@U?$pair@$$CBHW4key_bind_mode@@@std@@@3@$0A@@std@@@std@@IAEXXZ 10028620 f i key_binds.obj
 0001:00027620       ?_Rehash_for_1@?$_Hash@V?$_Umap_traits@H_NV?$_Uhash_compare@HU?$hash@H@std@@U?$equal_to@H@2@@std@@V?$allocator@U?$pair@$$CBH_N@std@@@2@$0A@@std@@@std@@IAEXXZ 10028620 f i key_binds.obj
 0001:00027660       ?_Check_rehash_required_1@?$_Hash@V?$_Umap_traits@H_NV?$_Uhash_compare@HU?$hash@H@std@@U?$equal_to@H@2@@std@@V?$allocator@U?$pair@$$CBH_N@std@@@2@$0A@@std@@@std@@IBE_NXZ 10028660 f i key_binds.obj
 0001:00027660       ?_Check_rehash_required_1@?$_Hash@V?$_Umap_traits@HW4key_bind_mode@@V?$_Uhash_compare@HU?$hash@H@std@@U?$equal_to@H@2@@std@@V?$allocator@U?$pair@$$CBHW4key_bind_mode@@@std@@@3@$0A@@std@@@std@@IBE_NXZ 10028660 f i key_binds.obj
 0001:00027740       ?_Check_max_size@?$_Hash@V?$_Umap_traits@H_NV?$_Uhash_compare@HU?$hash@H@std@@U?$equal_to@H@2@@std@@V?$allocator@U?$pair@$$CBH_N@std@@@2@$0A@@std@@@std@@IBEXXZ 10028740 f i key_binds.obj
 0001:00027740       ?_Check_max_size@?$_Hash@V?$_Umap_traits@HW4key_bind_mode@@V?$_Uhash_compare@HU?$hash@H@std@@U?$equal_to@H@2@@std@@V?$allocator@U?$pair@$$CBHW4key_bind_mode@@@std@@@3@$0A@@std@@@std@@IBEXXZ 10028740 f i key_binds.obj
 0001:000277c0       ?_Insert_new_node_before@?$_Hash@V?$_Umap_traits@H_NV?$_Uhash_compare@HU?$hash@H@std@@U?$equal_to@H@2@@std@@V?$allocator@U?$pair@$$CBH_N@std@@@2@$0A@@std@@@std@@IAEPAU?$_List_node@U?$pair@$$CBH_N@std@@PAX@2@IQAU32@0@Z 100287c0 f i key_binds.obj
 0001:000277c0       ?_Insert_new_node_before@?$_Hash@V?$_Umap_traits@HW4key_bind_mode@@V?$_Uhash_compare@HU?$hash@H@std@@U?$equal_to@H@2@@std@@V?$allocator@U?$pair@$$CBHW4key_bind_mode@@@std@@@3@$0A@@std@@@std@@IAEPAU?$_List_node@U?$pair@$$CBHW4key_bind_mode@@@std@@PAX@2@IQAU32@0@Z 100287c0 f i key_binds.obj
 0001:000278d0       ??1?$_Alloc_construct_ptr@V?$allocator@U?$_List_node@U?$pair@$$CBH_N@std@@PAX@std@@@std@@@std@@QAE@XZ 100288d0 f i key_binds.obj
 0001:000278d0       ??1?$_Alloc_construct_ptr@V?$allocator@U?$_List_node@U?$pair@$$CBHW4key_bind_mode@@@std@@PAX@std@@@std@@@std@@QAE@XZ 100288d0 f i key_binds.obj
 0001:00027940       ?_Forced_rehash@?$_Hash@V?$_Umap_traits@H_NV?$_Uhash_compare@HU?$hash@H@std@@U?$equal_to@H@2@@std@@V?$allocator@U?$pair@$$CBH_N@std@@@2@$0A@@std@@@std@@IAEXI@Z 10028940 f i key_binds.obj
 0001:00027940       ?_Forced_rehash@?$_Hash@V?$_Umap_traits@HW4key_bind_mode@@V?$_Uhash_compare@HU?$hash@H@std@@U?$equal_to@H@2@@std@@V?$allocator@U?$pair@$$CBHW4key_bind_mode@@@std@@@3@$0A@@std@@@std@@IAEXI@Z 10028940 f i key_binds.obj
 0001:00027f40       ?_Desired_grow_bucket_count@?$_Hash@V?$_Umap_traits@H_NV?$_Uhash_compare@HU?$hash@H@std@@U?$equal_to@H@2@@std@@V?$allocator@U?$pair@$$CBH_N@std@@@2@$0A@@std@@@std@@IBEII@Z 10028f40 f i key_binds.obj
 0001:00027f40       ?_Desired_grow_bucket_count@?$_Hash@V?$_Umap_traits@HW4key_bind_mode@@V?$_Uhash_compare@HU?$hash@H@std@@U?$equal_to@H@2@@std@@V?$allocator@U?$pair@$$CBHW4key_bind_mode@@@std@@@3@$0A@@std@@@std@@IBEII@Z 10028f40 f i key_binds.obj
 0001:00028060       ?clear@?$_Hash@V?$_Umap_traits@H_NV?$_Uhash_compare@HU?$hash@H@std@@U?$equal_to@H@2@@std@@V?$allocator@U?$pair@$$CBH_N@std@@@2@$0A@@std@@@std@@QAEXXZ 10029060 f i key_binds.obj
 0001:00028060       ?clear@?$_Hash@V?$_Umap_traits@HW4key_bind_mode@@V?$_Uhash_compare@HU?$hash@H@std@@U?$equal_to@H@2@@std@@V?$allocator@U?$pair@$$CBHW4key_bind_mode@@@std@@@3@$0A@@std@@@std@@QAEXXZ 10029060 f i key_binds.obj
 0001:00028170       ?_Unchecked_erase@?$_Hash@V?$_Umap_traits@HW4key_bind_mode@@V?$_Uhash_compare@HU?$hash@H@std@@U?$equal_to@H@2@@std@@V?$allocator@U?$pair@$$CBHW4key_bind_mode@@@std@@@3@$0A@@std@@@std@@AAEPAU?$_List_node@U?$pair@$$CBHW4key_bind_mode@@@std@@PAX@2@PAU32@QAU32@@Z 10029170 f i key_binds.obj
 0001:00028170       ?_Unchecked_erase@?$_Hash@V?$_Umap_traits@H_NV?$_Uhash_compare@HU?$hash@H@std@@U?$equal_to@H@2@@std@@V?$allocator@U?$pair@$$CBH_N@std@@@2@$0A@@std@@@std@@AAEPAU?$_List_node@U?$pair@$$CBH_N@std@@PAX@2@PAU32@QAU32@@Z 10029170 f i key_binds.obj
 0001:00028450       ?clear@?$list@U?$pair@$$CBH_N@std@@V?$allocator@U?$pair@$$CBH_N@std@@@2@@std@@QAEXXZ 10029450 f i key_binds.obj
 0001:00028450       ?clear@?$list@U?$pair@$$CBHW4key_bind_mode@@@std@@V?$allocator@U?$pair@$$CBHW4key_bind_mode@@@std@@@2@@std@@QAEXXZ 10029450 f i key_binds.obj
 0001:000284f0       ?_Orphan_non_end@?$_List_val@U?$_List_simple_types@U?$pair@$$CBHW4key_bind_mode@@@std@@@std@@@std@@QAEXXZ 100294f0 f i key_binds.obj
 0001:000284f0       ?_Orphan_non_end@?$_List_val@U?$_List_simple_types@U?$pair@$$CBH_N@std@@@std@@@std@@QAEXXZ 100294f0 f i key_binds.obj
 0001:000285a0       ?_Unchecked_erase@?$list@U?$pair@$$CBH_N@std@@V?$allocator@U?$pair@$$CBH_N@std@@@2@@std@@AAEPAU?$_List_node@U?$pair@$$CBH_N@std@@PAX@2@PAU32@QAU32@@Z 100295a0 f i key_binds.obj
 0001:000285a0       ?_Unchecked_erase@?$list@U?$pair@$$CBHW4key_bind_mode@@@std@@V?$allocator@U?$pair@$$CBHW4key_bind_mode@@@std@@@2@@std@@AAEPAU?$_List_node@U?$pair@$$CBHW4key_bind_mode@@@std@@PAX@2@PAU32@QAU32@@Z 100295a0 f i key_binds.obj
 0001:00028730       ??$_Find_last@H@?$_Hash@V?$_Umap_traits@HW4key_bind_mode@@V?$_Uhash_compare@HU?$hash@H@std@@U?$equal_to@H@2@@std@@V?$allocator@U?$pair@$$CBHW4key_bind_mode@@@std@@@3@$0A@@std@@@std@@IBE?AU?$_Hash_find_last_result@PAU?$_List_node@U?$pair@$$CBHW4key_bind_mode@@@std@@PAX@std@@@1@ABHI@Z 10029730 f i key_binds.obj
 0001:00028730       ??$_Find_last@H@?$_Hash@V?$_Umap_traits@H_NV?$_Uhash_compare@HU?$hash@H@std@@U?$equal_to@H@2@@std@@V?$allocator@U?$pair@$$CBH_N@std@@@2@$0A@@std@@@std@@IBE?AU?$_Hash_find_last_result@PAU?$_List_node@U?$pair@$$CBH_N@std@@PAX@std@@@1@ABHI@Z 10029730 f i key_binds.obj
 0001:00028840       ??$?0ABUpiecewise_construct_t@std@@V?$tuple@ABH@1@V?$tuple@$$V@1@@?$_List_node_emplace_op2@V?$allocator@U?$_List_node@U?$pair@$$CBHW4key_bind_mode@@@std@@PAX@std@@@std@@@std@@QAE@AAV?$allocator@U?$_List_node@U?$pair@$$CBHW4key_bind_mode@@@std@@PAX@std@@@1@ABUpiecewise_construct_t@1@$$QAV?$tuple@ABH@1@$$QAV?$tuple@$$V@1@@Z 10029840 f i key_binds.obj
 0001:00028910       ??$?0ABUpiecewise_construct_t@std@@V?$tuple@ABH@1@V?$tuple@$$V@1@@?$_List_node_emplace_op2@V?$allocator@U?$_List_node@U?$pair@$$CBH_N@std@@PAX@std@@@std@@@std@@QAE@AAV?$allocator@U?$_List_node@U?$pair@$$CBH_N@std@@PAX@std@@@1@ABUpiecewise_construct_t@1@$$QAV?$tuple@ABH@1@$$QAV?$tuple@$$V@1@@Z 10029910 f i key_binds.obj
 0001:000289e0       ??$_Fnv1a_append_value@H@std@@YAIIABH@Z 100299e0 f i key_binds.obj
 0001:00028a60       ??$_Construct_in_place@PAU?$_List_node@U?$pair@$$CBHW4key_bind_mode@@@std@@PAX@std@@ABQAU12@@std@@YAXAAPAU?$_List_node@U?$pair@$$CBHW4key_bind_mode@@@std@@PAX@0@ABQAU10@@Z 10029a60 f i key_binds.obj
 0001:00028a60       ??$_Construct_in_place@PAU?$_List_node@U?$pair@$$CBH_N@std@@PAX@std@@ABQAU12@@std@@YAXAAPAU?$_List_node@U?$pair@$$CBH_N@std@@PAX@0@ABQAU10@@Z 10029a60 f i key_binds.obj
 0001:00028ac0       ?_Allocate@?$_Alloc_construct_ptr@V?$allocator@U?$_List_node@U?$pair@$$CBHW4key_bind_mode@@@std@@PAX@std@@@std@@@std@@QAEXXZ 10029ac0 f i key_binds.obj
 0001:00028ac0       ?_Allocate@?$_Alloc_construct_ptr@V?$allocator@U?$_List_node@U?$pair@$$CBH_N@std@@PAX@std@@@std@@@std@@QAEXXZ 10029ac0 f i key_binds.obj
 0001:00028b30       ??$construct@U?$pair@$$CBHW4key_bind_mode@@@std@@ABUpiecewise_construct_t@2@V?$tuple@ABH@2@V?$tuple@$$V@2@@?$_Default_allocator_traits@V?$allocator@U?$_List_node@U?$pair@$$CBHW4key_bind_mode@@@std@@PAX@std@@@std@@@std@@SAXAAV?$allocator@U?$_List_node@U?$pair@$$CBHW4key_bind_mode@@@std@@PAX@std@@@1@QAU?$pair@$$CBHW4key_bind_mode@@@1@ABUpiecewise_construct_t@1@$$QAV?$tuple@ABH@1@$$QAV?$tuple@$$V@1@@Z 10029b30 f i key_binds.obj
 0001:00028b90       ??$construct@U?$pair@$$CBH_N@std@@ABUpiecewise_construct_t@2@V?$tuple@ABH@2@V?$tuple@$$V@2@@?$_Default_allocator_traits@V?$allocator@U?$_List_node@U?$pair@$$CBH_N@std@@PAX@std@@@std@@@std@@SAXAAV?$allocator@U?$_List_node@U?$pair@$$CBH_N@std@@PAX@std@@@1@QAU?$pair@$$CBH_N@1@ABUpiecewise_construct_t@1@$$QAV?$tuple@ABH@1@$$QAV?$tuple@$$V@1@@Z 10029b90 f i key_binds.obj
 0001:00028bf0       ??$?0ABH$$Z$$V@?$pair@$$CBHW4key_bind_mode@@@std@@QAE@Upiecewise_construct_t@1@V?$tuple@ABH@1@V?$tuple@$$V@1@@Z 10029bf0 f i key_binds.obj
 0001:00028c30       ??$?0ABH$$Z$$V@?$pair@$$CBH_N@std@@QAE@Upiecewise_construct_t@1@V?$tuple@ABH@1@V?$tuple@$$V@1@@Z 10029c30 f i key_binds.obj
 0001:00028c70       ??$?0V?$tuple@ABH@std@@V?$tuple@$$V@1@$0A@$$Z$S@?$pair@$$CBHW4key_bind_mode@@@std@@QAE@AAV?$tuple@ABH@1@AAV?$tuple@$$V@1@U?$integer_sequence@I$0A@@1@U?$integer_sequence@I$S@1@@Z 10029c70 f i key_binds.obj
 0001:00028cb0       ??$?0V?$tuple@ABH@std@@V?$tuple@$$V@1@$0A@$$Z$S@?$pair@$$CBH_N@std@@QAE@AAV?$tuple@ABH@1@AAV?$tuple@$$V@1@U?$integer_sequence@I$0A@@1@U?$integer_sequence@I$S@1@@Z 10029cb0 f i key_binds.obj
 0001:00028cf0       ??0loginfo_t@eventlogs@@QAE@MV?$basic_string@DU?$char_traits@D@std@@V?$allocator@D@2@@std@@ABVColor@@@Z 10029cf0 f i logs.obj
 0001:00028dc0       ?paint_traverse@eventlogs@@QAEXXZ 10029dc0 f   logs.obj
 0001:00029220       ?events@eventlogs@@QAEXPAVIGameEvent@@@Z 1002a220 f   logs.obj
 0001:0002a130       ??_D?$basic_stringstream@DU?$char_traits@D@std@@V?$allocator@D@2@@std@@QAEXXZ 1002b130 f i logs.obj
 0001:0002a160       ?add@eventlogs@@QAEXV?$basic_string@DU?$char_traits@D@std@@V?$allocator@D@2@@std@@_N@Z 1002b160 f   logs.obj
 0001:0002a3f0       ??$emplace_front@Uloginfo_t@eventlogs@@@?$deque@Uloginfo_t@eventlogs@@V?$allocator@Uloginfo_t@eventlogs@@@std@@@std@@QAEAAUloginfo_t@eventlogs@@$$QAU23@@Z 1002b3f0 f i logs.obj
 0001:0002a6f0       ?seekpos@?$basic_stringbuf@DU?$char_traits@D@std@@V?$allocator@D@2@@std@@MAE?AV?$fpos@U_Mbstatet@@@2@V32@H@Z 1002b6f0 f i logs.obj
 0001:0002a8d0       ?seekoff@?$basic_stringbuf@DU?$char_traits@D@std@@V?$allocator@D@2@@std@@MAE?AV?$fpos@U_Mbstatet@@@2@_JHH@Z 1002b8d0 f i logs.obj
 0001:0002ab80       ?underflow@?$basic_stringbuf@DU?$char_traits@D@std@@V?$allocator@D@2@@std@@MAEHXZ 1002bb80 f i logs.obj
 0001:0002acc0       ?pbackfail@?$basic_stringbuf@DU?$char_traits@D@std@@V?$allocator@D@2@@std@@MAEHH@Z 1002bcc0 f i logs.obj
 0001:0002ae40       ?overflow@?$basic_stringbuf@DU?$char_traits@D@std@@V?$allocator@D@2@@std@@MAEHH@Z 1002be40 f i logs.obj
 0001:0002b140       ??1?$basic_stringstream@DU?$char_traits@D@std@@V?$allocator@D@2@@std@@UAE@XZ 1002c140 f i logs.obj
 0001:0002b1e0       ??0?$basic_stringstream@DU?$char_traits@D@std@@V?$allocator@D@2@@std@@QAE@XZ 1002c1e0 f i logs.obj
 0001:0002b2c0       ??H?$_Deque_iterator@V?$_Deque_val@U?$_Deque_simple_types@Uloginfo_t@eventlogs@@@std@@@std@@@std@@QBE?AV01@H@Z 1002c2c0 f i logs.obj
 0001:0002b390       ?_Growmap@?$deque@Uloginfo_t@eventlogs@@V?$allocator@Uloginfo_t@eventlogs@@@std@@@std@@AAEXI@Z 1002c390 f i logs.obj
 0001:0002b8a0       ?erase@?$deque@Uloginfo_t@eventlogs@@V?$allocator@Uloginfo_t@eventlogs@@@std@@@std@@QAE?AV?$_Deque_iterator@V?$_Deque_val@U?$_Deque_simple_types@Uloginfo_t@eventlogs@@@std@@@std@@@2@V?$_Deque_const_iterator@V?$_Deque_val@U?$_Deque_simple_types@Uloginfo_t@eventlogs@@@std@@@std@@@2@@Z 1002c8a0 f i logs.obj
 0001:0002b9b0       ?front@?$deque@Uloginfo_t@eventlogs@@V?$allocator@Uloginfo_t@eventlogs@@@std@@@std@@QAEAAUloginfo_t@eventlogs@@XZ 1002c9b0 f i logs.obj
 0001:0002bb00       ?at@?$deque@Uloginfo_t@eventlogs@@V?$allocator@Uloginfo_t@eventlogs@@@std@@@std@@QAEAAUloginfo_t@eventlogs@@I@Z 1002cb00 f i logs.obj
 0001:0002bbf0       ?get@?$singleton@Vrender@@@@SAAAVrender@@XZ 1002cbf0 f i logs.obj
 0001:0002bca0       ??_G?$basic_stringbuf@DU?$char_traits@D@std@@V?$allocator@D@2@@std@@UAEPAXI@Z 1002cca0 f i logs.obj
 0001:0002bca0       ??_E?$basic_stringbuf@DU?$char_traits@D@std@@V?$allocator@D@2@@std@@UAEPAXI@Z 1002cca0 f i * CIL library *:* CIL module *
 0001:0002bce0       ??_E?$basic_stringstream@DU?$char_traits@D@std@@V?$allocator@D@2@@std@@UAEPAXI@Z 1002cce0 f i * CIL library *:* CIL module *
 0001:0002bce0       ??_G?$basic_stringstream@DU?$char_traits@D@std@@V?$allocator@D@2@@std@@UAEPAXI@Z 1002cce0 f i logs.obj
 0001:0002bd40       ??0?$_Tree_iterator@V?$_Tree_val@U?$_Tree_simple_types@U?$pair@$$CBIUcircle_button@@@std@@@std@@@std@@@std@@QAE@PAU?$_Tree_node@U?$pair@$$CBIUcircle_button@@@std@@PAX@1@PBV?$_Tree_val@U?$_Tree_simple_types@U?$pair@$$CBIUcircle_button@@@std@@@std@@@1@@Z 1002cd40 f i imgui_widgets.obj
 0001:0002bd40       ??0?$_List_const_iterator@V?$_List_val@U?$_List_simple_types@U?$pair@$$CBV?$basic_string@DU?$char_traits@D@std@@V?$allocator@D@2@@std@@PAURecvTable@@@std@@@std@@@std@@@std@@QAE@PAU?$_List_node@U?$pair@$$CBV?$basic_string@DU?$char_traits@D@std@@V?$allocator@D@2@@std@@PAURecvTable@@@std@@PAX@1@PBV?$_List_val@U?$_List_simple_types@U?$pair@$$CBV?$basic_string@DU?$char_traits@D@std@@V?$allocator@D@2@@std@@PAURecvTable@@@std@@@std@@@1@@Z 1002cd40 f i main.obj
 0001:0002bd40       ??0?$_Vector_iterator@V?$_Vector_val@U?$_Simple_types@VVector@@@std@@@std@@@std@@QAE@PAVVector@@PBU_Container_base12@1@@Z 1002cd40 f i GrenadePrediction.obj
 0001:0002bd40       ??0?$_List_iterator@V?$_List_val@U?$_List_simple_types@U?$pair@$$CBV?$basic_string@DU?$char_traits@D@std@@V?$allocator@D@2@@std@@PAURecvTable@@@std@@@std@@@std@@@std@@QAE@PAU?$_List_node@U?$pair@$$CBV?$basic_string@DU?$char_traits@D@std@@V?$allocator@D@2@@std@@PAURecvTable@@@std@@PAX@1@PBV?$_List_val@U?$_List_simple_types@U?$pair@$$CBV?$basic_string@DU?$char_traits@D@std@@V?$allocator@D@2@@std@@PAURecvTable@@@std@@@std@@@1@@Z 1002cd40 f i main.obj
 0001:0002bd40       ??0?$_Tree_const_iterator@V?$_Tree_val@U?$_Tree_simple_types@U?$pair@$$CBIUarrow_anim@@@std@@@std@@@std@@@std@@QAE@PAU?$_Tree_node@U?$pair@$$CBIUarrow_anim@@@std@@PAX@1@PBV?$_Tree_val@U?$_Tree_simple_types@U?$pair@$$CBIUarrow_anim@@@std@@@std@@@1@@Z 1002cd40 f i imgui_widgets.obj
 0001:0002bd40       ??0?$_Tree_iterator@V?$_Tree_val@U?$_Tree_simple_types@U?$pair@$$CBIUImVec4@@@std@@@std@@@std@@@std@@QAE@PAU?$_Tree_node@U?$pair@$$CBIUImVec4@@@std@@PAX@1@PBV?$_Tree_val@U?$_Tree_simple_types@U?$pair@$$CBIUImVec4@@@std@@@std@@@1@@Z 1002cd40 f i imgui_widgets.obj
 0001:0002bd40       ??0?$_Vector_iterator@V?$_Vector_val@U?$_Simple_types@U?$pair@VVector@@VColor@@@std@@@std@@@std@@@std@@QAE@PAU?$pair@VVector@@VColor@@@1@PBU_Container_base12@1@@Z 1002cd40 f i GrenadePrediction.obj
 0001:0002bd40       ??0?$_Vector_iterator@V?$_Vector_val@U?$_Simple_types@Uimpact_data@bullettracers@@@std@@@std@@@std@@QAE@PAUimpact_data@bullettracers@@PBU_Container_base12@1@@Z 1002cd40 f i bullet_tracers.obj
 0001:0002bd40       ??0?$_Tree_iterator@V?$_Tree_val@U?$_Tree_simple_types@U?$pair@$$CBIUarrow_anim@@@std@@@std@@@std@@@std@@QAE@PAU?$_Tree_node@U?$pair@$$CBIUarrow_anim@@@std@@PAX@1@PBV?$_Tree_val@U?$_Tree_simple_types@U?$pair@$$CBIUarrow_anim@@@std@@@std@@@1@@Z 1002cd40 f i imgui_widgets.obj
 0001:0002bd40       ??0?$_Deque_iterator@V?$_Deque_val@U?$_Deque_simple_types@Uloginfo_t@eventlogs@@@std@@@std@@@std@@QAE@IPBU_Container_base12@1@@Z 1002cd40 f i logs.obj
 0001:0002bd40       ??0?$_List_iterator@V?$_List_val@U?$_List_simple_types@U?$pair@$$CBV?$basic_string@DU?$char_traits@D@std@@V?$allocator@D@2@@std@@$$BY03M@std@@@std@@@std@@@std@@QAE@PAU?$_List_node@U?$pair@$$CBV?$basic_string@DU?$char_traits@D@std@@V?$allocator@D@2@@std@@$$BY03M@std@@PAX@1@PBV?$_List_val@U?$_List_simple_types@U?$pair@$$CBV?$basic_string@DU?$char_traits@D@std@@V?$allocator@D@2@@std@@$$BY03M@std@@@std@@@1@@Z 1002cd40 f i imgui_widgets.obj
 0001:0002bd40       ??0?$_Tree_const_iterator@V?$_Tree_val@U?$_Tree_simple_types@U?$pair@$$CBIUcolorpicket_state@@@std@@@std@@@std@@@std@@QAE@PAU?$_Tree_node@U?$pair@$$CBIUcolorpicket_state@@@std@@PAX@1@PBV?$_Tree_val@U?$_Tree_simple_types@U?$pair@$$CBIUcolorpicket_state@@@std@@@std@@@1@@Z 1002cd40 f i imgui_widgets.obj
 0001:0002bd40       ??0?$_List_const_iterator@V?$_List_val@U?$_List_simple_types@U?$pair@$$CBV?$basic_string_view@DU?$char_traits@D@std@@@std@@PBD@std@@@std@@@std@@@std@@QAE@PAU?$_List_node@U?$pair@$$CBV?$basic_string_view@DU?$char_traits@D@std@@@std@@PBD@std@@PAX@1@PBV?$_List_val@U?$_List_simple_types@U?$pair@$$CBV?$basic_string_view@DU?$char_traits@D@std@@@std@@PBD@std@@@std@@@1@@Z 1002cd40 f i SkinChanger.obj
 0001:0002bd40       ??0?$_Tree_const_iterator@V?$_Tree_val@U?$_Tree_simple_types@U?$pair@$$CBI_N@std@@@std@@@std@@@std@@QAE@PAU?$_Tree_node@U?$pair@$$CBI_N@std@@PAX@1@PBV?$_Tree_val@U?$_Tree_simple_types@U?$pair@$$CBI_N@std@@@std@@@1@@Z 1002cd40 f i imgui_widgets.obj
 0001:0002bd40       ??0?$_Tree_iterator@V?$_Tree_val@U?$_Tree_simple_types@U?$pair@$$CBIM@std@@@std@@@std@@@std@@QAE@PAU?$_Tree_node@U?$pair@$$CBIM@std@@PAX@1@PBV?$_Tree_val@U?$_Tree_simple_types@U?$pair@$$CBIM@std@@@std@@@1@@Z 1002cd40 f i imgui_widgets.obj
 0001:0002bd40       ??0?$_List_iterator@V?$_List_val@U?$_List_simple_types@U?$pair@$$CBV?$basic_string@DU?$char_traits@D@std@@V?$allocator@D@2@@std@@H@std@@@std@@@std@@@std@@QAE@PAU?$_List_node@U?$pair@$$CBV?$basic_string@DU?$char_traits@D@std@@V?$allocator@D@2@@std@@H@std@@PAX@1@PBV?$_List_val@U?$_List_simple_types@U?$pair@$$CBV?$basic_string@DU?$char_traits@D@std@@V?$allocator@D@2@@std@@H@std@@@std@@@1@@Z 1002cd40 f i SkinChanger.obj
 0001:0002bd40       ??0?$_Vector_iterator@V?$_Vector_val@U?$_Simple_types@Vscan_point@@@std@@@std@@@std@@QAE@PAVscan_point@@PBU_Container_base12@1@@Z 1002cd40 f i aim.obj
 0001:0002bd40       ??0?$_Vector_iterator@V?$_Vector_val@U?$_Simple_types@Uaim_shot@@@std@@@std@@@std@@QAE@PAUaim_shot@@PBU_Container_base12@1@@Z 1002cd40 f i hooked_fsn.obj
 0001:0002bd40       ??0?$_Tree_iterator@V?$_Tree_val@U?$_Tree_simple_types@U?$pair@$$CBI_N@std@@@std@@@std@@@std@@QAE@PAU?$_Tree_node@U?$pair@$$CBI_N@std@@PAX@1@PBV?$_Tree_val@U?$_Tree_simple_types@U?$pair@$$CBI_N@std@@@std@@@1@@Z 1002cd40 f i imgui_widgets.obj
 0001:0002bd40       ??0?$_Tree_const_iterator@V?$_Tree_val@U?$_Tree_simple_types@U?$pair@$$CBIUImVec4@@@std@@@std@@@std@@@std@@QAE@PAU?$_Tree_node@U?$pair@$$CBIUImVec4@@@std@@PAX@1@PBV?$_Tree_val@U?$_Tree_simple_types@U?$pair@$$CBIUImVec4@@@std@@@std@@@1@@Z 1002cd40 f i imgui_widgets.obj
 0001:0002bd40       ??0?$_Tree_const_iterator@V?$_Tree_val@U?$_Tree_simple_types@U?$pair@$$CBIM@std@@@std@@@std@@@std@@QAE@PAU?$_Tree_node@U?$pair@$$CBIM@std@@PAX@1@PBV?$_Tree_val@U?$_Tree_simple_types@U?$pair@$$CBIM@std@@@std@@@1@@Z 1002cd40 f i imgui_widgets.obj
 0001:0002bd40       ??0?$_Tree_const_iterator@V?$_Tree_val@U?$_Tree_simple_types@U?$pair@$$CBIUcircle_button@@@std@@@std@@@std@@@std@@QAE@PAU?$_Tree_node@U?$pair@$$CBIUcircle_button@@@std@@PAX@1@PBV?$_Tree_val@U?$_Tree_simple_types@U?$pair@$$CBIUcircle_button@@@std@@@std@@@1@@Z 1002cd40 f i imgui_widgets.obj
 0001:0002bd40       ??0?$_Tree_iterator@V?$_Tree_val@U?$_Tree_simple_types@U?$pair@$$CBIUcolorpicket_state@@@std@@@std@@@std@@@std@@QAE@PAU?$_Tree_node@U?$pair@$$CBIUcolorpicket_state@@@std@@PAX@1@PBV?$_Tree_val@U?$_Tree_simple_types@U?$pair@$$CBIUcolorpicket_state@@@std@@@std@@@1@@Z 1002cd40 f i imgui_widgets.obj
 0001:0002bd80       ??1sentry@?$basic_ostream@DU?$char_traits@D@std@@@std@@QAE@XZ 1002cd80 f i logs.obj
 0001:0002be30       ??0sentry@?$basic_ostream@DU?$char_traits@D@std@@@std@@QAE@AAV12@@Z 1002ce30 f i logs.obj
 0001:0002bf50       ?_Tidy@?$basic_stringbuf@DU?$char_traits@D@std@@V?$allocator@D@2@@std@@IAEXXZ 1002cf50 f i logs.obj
 0001:0002c080       ?str@?$basic_stringbuf@DU?$char_traits@D@std@@V?$allocator@D@2@@std@@QBE?AV?$basic_string@DU?$char_traits@D@std@@V?$allocator@D@2@@2@XZ 1002d080 f i logs.obj
 0001:0002c1c0       ??0?$basic_stringbuf@DU?$char_traits@D@std@@V?$allocator@D@2@@std@@QAE@H@Z 1002d1c0 f i logs.obj
 0001:0002c250       ?erase@?$deque@Uloginfo_t@eventlogs@@V?$allocator@Uloginfo_t@eventlogs@@@std@@@std@@QAE?AV?$_Deque_iterator@V?$_Deque_val@U?$_Deque_simple_types@Uloginfo_t@eventlogs@@@std@@@std@@@2@V?$_Deque_const_iterator@V?$_Deque_val@U?$_Deque_simple_types@Uloginfo_t@eventlogs@@@std@@@std@@@2@0@Z 1002d250 f i logs.obj
 0001:0002c9d0       ??1_Sentry_base@?$basic_ostream@DU?$char_traits@D@std@@@std@@QAE@XZ 1002d9d0 f i logs.obj
 0001:0002ca40       ??D?$_Deque_unchecked_const_iterator@V?$_Deque_val@U?$_Deque_simple_types@Uloginfo_t@eventlogs@@@std@@@std@@@std@@QBEABUloginfo_t@eventlogs@@XZ 1002da40 f i logs.obj
 0001:0002caa0       ??Y?$_Deque_const_iterator@V?$_Deque_val@U?$_Deque_simple_types@Uloginfo_t@eventlogs@@@std@@@std@@@std@@QAEAAV01@H@Z 1002daa0 f i logs.obj
 0001:0002cbd0       ??D?$_Deque_const_iterator@V?$_Deque_val@U?$_Deque_simple_types@Uloginfo_t@eventlogs@@@std@@@std@@@std@@QBEABUloginfo_t@eventlogs@@XZ 1002dbd0 f i logs.obj
 0001:0002cd10       ?pop_front@?$deque@Uloginfo_t@eventlogs@@V?$allocator@Uloginfo_t@eventlogs@@@std@@@std@@QAEXXZ 1002dd10 f i logs.obj
 0001:0002cf20       ?end@?$deque@Uloginfo_t@eventlogs@@V?$allocator@Uloginfo_t@eventlogs@@@std@@@std@@QAE?AV?$_Deque_iterator@V?$_Deque_val@U?$_Deque_simple_types@Uloginfo_t@eventlogs@@@std@@@std@@@2@XZ 1002df20 f i logs.obj
 0001:0002cf20       ?end@?$deque@Vadjust_data@@V?$allocator@Vadjust_data@@@std@@@std@@QAE?AV?$_Deque_iterator@V?$_Deque_val@U?$_Deque_simple_types@Vadjust_data@@@std@@@std@@@2@XZ 1002df20 f i util.obj
 0001:0002cf20       ?end@?$deque@Voptimized_adjust_data@@V?$allocator@Voptimized_adjust_data@@@std@@@std@@QAE?AV?$_Deque_iterator@V?$_Deque_val@U?$_Deque_simple_types@Voptimized_adjust_data@@@std@@@std@@@2@XZ 1002df20 f i aim.obj
 0001:0002cfd0       ??0?$basic_string@DU?$char_traits@D@std@@V?$allocator@D@2@@std@@QAE@ABV?$allocator@D@1@@Z 1002dfd0 f i logs.obj
 0001:0002d090       ?_Compat@?$_Deque_const_iterator@V?$_Deque_val@U?$_Deque_simple_types@Uloginfo_t@eventlogs@@@std@@@std@@@std@@QBEXABV12@@Z 1002e090 f i logs.obj
 0001:0002d150       ??$?6U?$char_traits@D@std@@@std@@YAAAV?$basic_ostream@DU?$char_traits@D@std@@@0@AAV10@PBD@Z 1002e150 f i logs.obj
 0001:0002d560       ??$?6DU?$char_traits@D@std@@V?$allocator@D@1@@std@@YAAAV?$basic_ostream@DU?$char_traits@D@std@@@0@AAV10@ABV?$basic_string@DU?$char_traits@D@std@@V?$allocator@D@2@@0@@Z 1002e560 f i logs.obj
 0001:0002d740       ??$_Next_iter@V?$_Deque_const_iterator@V?$_Deque_val@U?$_Deque_simple_types@Uloginfo_t@eventlogs@@@std@@@std@@@std@@@std@@YA?AV?$_Deque_const_iterator@V?$_Deque_val@U?$_Deque_simple_types@Uloginfo_t@eventlogs@@@std@@@std@@@0@V10@@Z 1002e740 f i logs.obj
 0001:0002d7f0       ??$move_backward@V?$_Deque_iterator@V?$_Deque_val@U?$_Deque_simple_types@Uloginfo_t@eventlogs@@@std@@@std@@@std@@V12@@std@@YA?AV?$_Deque_iterator@V?$_Deque_val@U?$_Deque_simple_types@Uloginfo_t@eventlogs@@@std@@@std@@@0@V10@00@Z 1002e7f0 f i logs.obj
 0001:0002d990       ??$_Get_unwrapped_n@AAV?$_Deque_iterator@V?$_Deque_val@U?$_Deque_simple_types@Uloginfo_t@eventlogs@@@std@@@std@@@std@@H@std@@YA?AV?$_Deque_unchecked_iterator@V?$_Deque_val@U?$_Deque_simple_types@Uloginfo_t@eventlogs@@@std@@@std@@@0@AAV?$_Deque_iterator@V?$_Deque_val@U?$_Deque_simple_types@Uloginfo_t@eventlogs@@@std@@@std@@@0@H@Z 1002e990 f i logs.obj
 0001:0002da60       ??$move@V?$_Deque_iterator@V?$_Deque_val@U?$_Deque_simple_types@Uloginfo_t@eventlogs@@@std@@@std@@@std@@V12@@std@@YA?AV?$_Deque_iterator@V?$_Deque_val@U?$_Deque_simple_types@Uloginfo_t@eventlogs@@@std@@@std@@@0@V10@00@Z 1002ea60 f i logs.obj
 0001:0002dc00       ??0loginfo_t@eventlogs@@QAE@$$QAU01@@Z 1002ec00 f i logs.obj
 0001:0002dc60       ?_Verify_range@std@@YAXABV?$_Deque_const_iterator@V?$_Deque_val@U?$_Deque_simple_types@Uloginfo_t@eventlogs@@@std@@@std@@@1@0@Z 1002ec60 f i logs.obj
 0001:0002dd20       ?_Verify_offset@?$_Deque_const_iterator@V?$_Deque_val@U?$_Deque_simple_types@Uloginfo_t@eventlogs@@@std@@@std@@@std@@QBEXH@Z 1002ed20 f i logs.obj
 0001:0002de60       ??E?$_Deque_const_iterator@V?$_Deque_val@U?$_Deque_simple_types@Uloginfo_t@eventlogs@@@std@@@std@@@std@@QAEAAV01@XZ 1002ee60 f i logs.obj
 0001:0002df70       ??$_Insert_string@DU?$char_traits@D@std@@I@std@@YAAAV?$basic_ostream@DU?$char_traits@D@std@@@0@AAV10@QBDI@Z 1002ef70 f i logs.obj
 0001:0002e2e0       ??$_Move_backward_unchecked@V?$_Deque_unchecked_iterator@V?$_Deque_val@U?$_Deque_simple_types@Uloginfo_t@eventlogs@@@std@@@std@@@std@@V12@@std@@YA?AV?$_Deque_unchecked_iterator@V?$_Deque_val@U?$_Deque_simple_types@Uloginfo_t@eventlogs@@@std@@@std@@@0@V10@00@Z 1002f2e0 f i logs.obj
 0001:0002e3b0       ??$_Move_unchecked@V?$_Deque_unchecked_iterator@V?$_Deque_val@U?$_Deque_simple_types@Uloginfo_t@eventlogs@@@std@@@std@@@std@@V12@@std@@YA?AV?$_Deque_unchecked_iterator@V?$_Deque_val@U?$_Deque_simple_types@Uloginfo_t@eventlogs@@@std@@@std@@@0@V10@00@Z 1002f3b0 f i logs.obj
 0001:0002e480       ??4loginfo_t@eventlogs@@QAEAAU01@$$QAU01@@Z 1002f480 f i logs.obj
 0001:0002e4fc       ??_E?$basic_stringstream@DU?$char_traits@D@std@@V?$allocator@D@2@@std@@$4PPPPPPPM@A@AEPAXI@Z 1002f4fc f i logs.obj
 0001:0002e510       ?to_string@std@@YA?AV?$basic_string@DU?$char_traits@D@std@@V?$allocator@D@2@@1@H@Z 1002f510 f i misc.obj
 0001:0002e550       ?ShouldHitEntity@CTraceFilterWorldAndPropsOnly@@UAE_NPAVIHandleEntity@@H@Z 1002f550 f i misc.obj
 0001:0002e570       ?m_hObserverTarget@player_t@@QBEAAV?$CHandle@Vplayer_t@@@@XZ 1002f570 f i misc.obj
 0001:0002e620       ?m_vecForce@ragdoll_t@@QBEAAVVector@@XZ 1002f620 f i misc.obj
 0001:0002e6d0       ?watermark@misc@@QAEXXZ    1002f6d0 f   misc.obj
 0001:0002ec40       ?NoDuck@misc@@QAEXPAVCUserCmd@@@Z 1002fc40 f   misc.obj
 0001:0002eca0       ?ChatSpamer@misc@@QAEXXZ   1002fca0 f   misc.obj
 0001:0002ee90       ?AutoCrouch@misc@@QAEXPAVCUserCmd@@@Z 1002fe90 f   misc.obj
 0001:0002efa0       ?SlideWalk@misc@@QAEXPAVCUserCmd@@@Z 1002ffa0 f   misc.obj
 0001:0002f1f0       ?automatic_peek@misc@@QAEXPAVCUserCmd@@M@Z 100301f0 f   misc.obj
 0001:0002f8a0       ?ViewModel@misc@@QAEXXZ    100308a0 f   misc.obj
 0001:0002fcb0       ?FullBright@misc@@QAEXXZ   10030cb0 f   misc.obj
 0001:0002fdd0       ?PovArrows@misc@@QAEXPAVplayer_t@@VColor@@@Z 10030dd0 f   misc.obj
 0001:00030280       ?zeus_range@misc@@QAEXXZ   10031280 f   misc.obj
 0001:000303a0       ?NightmodeFix@misc@@QAEXXZ 100313a0 f   misc.obj
 0001:00030750       ?desync_arrows@misc@@QAEXXZ 10031750 f   misc.obj
 0001:00030c10       ?aimbot_hitboxes@misc@@QAEXXZ 10031c10 f   misc.obj
 0001:00030ee0       ?ragdolls@misc@@QAEXXZ     10031ee0 f   misc.obj
 0001:00030fd0       ?rank_reveal@misc@@QAEXXZ  10031fd0 f   misc.obj
 0001:000310b0       ?fast_stop@misc@@QAEXPAVCUserCmd@@@Z 100320b0 f   misc.obj
 0001:00031a90       ?spectators_list@misc@@QAEXXZ 10032a90 f   misc.obj
 0001:00031ed0       ?double_tap@misc@@QAE_NPAVCUserCmd@@@Z 10032ed0 f   misc.obj
 0001:00032350       ?hide_shots@misc@@QAEXPAVCUserCmd@@_N@Z 10033350 f   misc.obj
 0001:00032620       ?get@?$singleton@Vworldesp@@@@SAAAVworldesp@@XZ 10033620 f i misc.obj
 0001:000326d0       ??$emplace_back@V?$basic_string@DU?$char_traits@D@std@@V?$allocator@D@2@@std@@@?$vector@V?$basic_string@DU?$char_traits@D@std@@V?$allocator@D@2@@std@@V?$allocator@V?$basic_string@DU?$char_traits@D@std@@V?$allocator@D@2@@std@@@2@@std@@QAEAAV?$basic_string@DU?$char_traits@D@std@@V?$allocator@D@2@@1@$$QAV21@@Z 100336d0 f i misc.obj
 0001:00032750       ??$_Emplace_back_with_unused_capacity@V?$basic_string@DU?$char_traits@D@std@@V?$allocator@D@2@@std@@@?$vector@V?$basic_string@DU?$char_traits@D@std@@V?$allocator@D@2@@std@@V?$allocator@V?$basic_string@DU?$char_traits@D@std@@V?$allocator@D@2@@std@@@2@@std@@AAEAAV?$basic_string@DU?$char_traits@D@std@@V?$allocator@D@2@@1@$$QAV21@@Z 10033750 f i misc.obj
 0001:00032800       ??$_Integral_to_string@DH@std@@YA?AV?$basic_string@DU?$char_traits@D@std@@V?$allocator@D@2@@0@H@Z 10033800 f i misc.obj
 0001:00032890       ??$?HDU?$char_traits@D@std@@V?$allocator@D@1@@std@@YA?AV?$basic_string@DU?$char_traits@D@std@@V?$allocator@D@2@@0@$$QAV10@ABV10@@Z 10033890 f i misc.obj
 0001:000328e0       ??$fabs@H$0A@@@YANH@Z      100338e0 f i misc.obj
 0001:00032930       ??$_Emplace_reallocate@V?$basic_string@DU?$char_traits@D@std@@V?$allocator@D@2@@std@@@?$vector@V?$basic_string@DU?$char_traits@D@std@@V?$allocator@D@2@@std@@V?$allocator@V?$basic_string@DU?$char_traits@D@std@@V?$allocator@D@2@@std@@@2@@std@@QAEPAV?$basic_string@DU?$char_traits@D@std@@V?$allocator@D@2@@1@QAV21@$$QAV21@@Z 10033930 f i misc.obj
 0001:00032c30       ?_Change_array@?$vector@V?$basic_string@DU?$char_traits@D@std@@V?$allocator@D@2@@std@@V?$allocator@V?$basic_string@DU?$char_traits@D@std@@V?$allocator@D@2@@std@@@2@@std@@AAEXQAV?$basic_string@DU?$char_traits@D@std@@V?$allocator@D@2@@2@II@Z 10033c30 f i misc.obj
 0001:00032d10       ??$_UIntegral_to_buff@DI@std@@YAPADPADI@Z 10033d10 f i misc.obj
 0001:00032d70       ??$?0PAD$0A@@?$basic_string@DU?$char_traits@D@std@@V?$allocator@D@2@@std@@QAE@PAD0ABV?$allocator@D@1@@Z 10033d70 f i misc.obj
 0001:00032ea0       ??$_Uninitialized_move@PAV?$basic_string@DU?$char_traits@D@std@@V?$allocator@D@2@@std@@V?$allocator@V?$basic_string@DU?$char_traits@D@std@@V?$allocator@D@2@@std@@@2@@std@@YAPAV?$basic_string@DU?$char_traits@D@std@@V?$allocator@D@2@@0@QAV10@0PAV10@AAV?$allocator@V?$basic_string@DU?$char_traits@D@std@@V?$allocator@D@2@@std@@@0@@Z 10033ea0 f i misc.obj
 0001:00032f50       ??$_Emplace_back@V?$basic_string@DU?$char_traits@D@std@@V?$allocator@D@2@@std@@@?$_Uninitialized_backout_al@V?$allocator@V?$basic_string@DU?$char_traits@D@std@@V?$allocator@D@2@@std@@@std@@@std@@QAEX$$QAV?$basic_string@DU?$char_traits@D@std@@V?$allocator@D@2@@1@@Z 10033f50 f i misc.obj
 0001:00032fc0       ?m_nSequence@entity_t@@QBEAAHXZ 10033fc0 f i prediction_system.obj
 0001:00033070       ?m_nTickBase@player_t@@QBEAAHXZ 10034070 f i prediction_system.obj
 0001:00033120       ?m_vecViewOffset@player_t@@QBEAAVVector@@XZ 10034120 f i prediction_system.obj
 0001:000331d0       ?m_viewPunchAngle@player_t@@QBEAAVVector@@XZ 100341d0 f i prediction_system.obj
 0001:00033280       ?m_aimPunchAngleVel@player_t@@QBEAAVVector@@XZ 10034280 f i prediction_system.obj
 0001:00033330       ?m_hViewModel@player_t@@QBEAAV?$CHandle@Vviewmodel_t@@@@XZ 10034330 f i prediction_system.obj
 0001:000333e0       ?m_nViewModelIndex@viewmodel_t@@QBEAAHXZ 100343e0 f i prediction_system.obj
 0001:00033490       ?m_hWeapon@viewmodel_t@@QBEAAV?$CHandle@Vweapon_t@@@@XZ 10034490 f i prediction_system.obj
 0001:00033540       ?m_nAnimationParity@viewmodel_t@@QBEAAHXZ 10034540 f i prediction_system.obj
 0001:000335f0       ?store_netvars@engineprediction@@QAEXXZ 100345f0 f   prediction_system.obj
 0001:00033750       ?restore_netvars@engineprediction@@QAEXXZ 10034750 f   prediction_system.obj
 0001:00033bf0       ?setup@engineprediction@@QAEXXZ 10034bf0 f   prediction_system.obj
 0001:00033d30       ?predict@engineprediction@@QAEXPAVCUserCmd@@@Z 10034d30 f   prediction_system.obj
 0001:00034130       ??0CMoveData@@QAE@XZ       10035130 f i prediction_system.obj
 0001:00034340       ?finish@engineprediction@@QAEXXZ 10035340 f   prediction_system.obj
 0001:000343d0       ?clan_tag@spammers@@QAEXXZ 100353d0 f   spammers.obj
 0001:00034740       ?GetOrigin@matrix3x4_t@@QBE?AVVector@@XZ 10035740 f i aim.obj
 0001:00034770       ?at@matrix3x4_t@@QBE?AVVector@@H@Z 10035770 f i aim.obj
 0001:00034800       ?m_flNextSecondaryAttack@weapon_t@@QBEAAMXZ 10035800 f i aim.obj
 0001:000348b0       ??0adjust_data@@QAE@PAVplayer_t@@_N@Z 100358b0 f i aim.obj
 0001:00034a70       ?adjust_player@adjust_data@@QAEXXZ 10035a70 f i aim.obj
 0001:00034d30       ??0optimized_adjust_data@@QAE@XZ 10035d30 f i aim.obj
 0001:00034dd0       ?reset@optimized_adjust_data@@QAEXXZ 10035dd0 f i aim.obj
 0001:00034e70       ??0scanned_target@@QAE@ABV0@@Z 10035e70 f i aim.obj
 0001:00034f10       ??4scanned_target@@QAEAAV0@ABV0@@Z 10035f10 f i aim.obj
 0001:00034fa0       ??0scanned_target@@QAE@PAVadjust_data@@ABVscan_data@@@Z 10035fa0 f i aim.obj
 0001:000350b0       ??4scan_point@@QAEAAV0@$$QAV0@@Z 100360b0 f i aim.obj
 0001:000350b0       ??4scan_point@@QAEAAV0@ABV0@@Z 100360b0 f i aim.obj
 0001:00035120       ?run@aim@@QAEXPAVCUserCmd@@@Z 10036120 f   aim.obj
 0001:00035500       ?automatic_revolver@aim@@AAEXPAVCUserCmd@@@Z 10036500 f   aim.obj
 0001:00035640       ?prepare_targets@aim@@AAEXXZ 10036640 f   aim.obj
 0001:00035aa0       ??$emplace_back@ABVVector@@@?$vector@VVector@@V?$allocator@VVector@@@std@@@std@@QAEAAVVector@@ABV2@@Z 10036aa0 f i GrenadePrediction.obj
 0001:00035aa0       ??$emplace_back@Vtarget@@@?$vector@Vtarget@@V?$allocator@Vtarget@@@std@@@std@@QAEAAVtarget@@$$QAV2@@Z 10036aa0 f i aim.obj
 0001:00035b20       ??$_Emplace_back_with_unused_capacity@Vtarget@@@?$vector@Vtarget@@V?$allocator@Vtarget@@@std@@@std@@AAEAAVtarget@@$$QAV2@@Z 10036b20 f i aim.obj
 0001:00035b20       ??$_Emplace_back_with_unused_capacity@ABVVector@@@?$vector@VVector@@V?$allocator@VVector@@@std@@@std@@AAEAAVVector@@ABV2@@Z 10036b20 f i GrenadePrediction.obj
 0001:00035bd0       ??$emplace_back@Vadjust_data@@@?$vector@Vadjust_data@@V?$allocator@Vadjust_data@@@std@@@std@@QAEAAVadjust_data@@$$QAV2@@Z 10036bd0 f i aim.obj
 0001:00035c50       ??$_Emplace_back_with_unused_capacity@Vadjust_data@@@?$vector@Vadjust_data@@V?$allocator@Vadjust_data@@@std@@@std@@AAEAAVadjust_data@@$$QAV2@@Z 10036c50 f i aim.obj
 0001:00035f30       ?get_record@aim@@AAEPAVadjust_data@@PAV?$deque@Vadjust_data@@V?$allocator@Vadjust_data@@@std@@@std@@_N@Z 10036f30 f   aim.obj
 0001:00036280       ??$emplace_back@AAVoptimized_adjust_data@@@?$deque@Voptimized_adjust_data@@V?$allocator@Voptimized_adjust_data@@@std@@@std@@QAEAAVoptimized_adjust_data@@AAV2@@Z 10037280 f i aim.obj
 0001:00036540       ?get_minimum_damage@aim@@AAEH_NH@Z 10037540 f   aim.obj
 0001:00036690       ?scan_targets@aim@@AAEXXZ  10037690 f   aim.obj
 0001:00036930       ??$emplace_back@Vscanned_target@@@?$vector@Vscanned_target@@V?$allocator@Vscanned_target@@@std@@@std@@QAEAAVscanned_target@@$$QAV2@@Z 10037930 f i aim.obj
 0001:000369b0       ??$_Emplace_back_with_unused_capacity@Vscanned_target@@@?$vector@Vscanned_target@@V?$allocator@Vscanned_target@@@std@@@std@@AAEAAVscanned_target@@$$QAV2@@Z 100379b0 f i aim.obj
 0001:00036a60       ?automatic_stop@aim@@AAE_NPAVCUserCmd@@@Z 10037a60 f   aim.obj
 0001:00037030       ?scan@aim@@QAEXPAVadjust_data@@AAVscan_data@@ABVVector@@_N@Z 10038030 f   aim.obj
 0001:000381c0       ??$emplace_back@Vscan_point@@@?$vector@Vscan_point@@V?$allocator@Vscan_point@@@std@@@std@@QAEAAVscan_point@@$$QAV2@@Z 100391c0 f i aim.obj
 0001:000381c0       ??$emplace_back@AAVscan_point@@@?$vector@Vscan_point@@V?$allocator@Vscan_point@@@std@@@std@@QAEAAVscan_point@@AAV2@@Z 100391c0 f i aim.obj
 0001:00038240       ??$_Emplace_back_with_unused_capacity@AAVscan_point@@@?$vector@Vscan_point@@V?$allocator@Vscan_point@@@std@@@std@@AAEAAVscan_point@@AAV2@@Z 10039240 f i aim.obj
 0001:00038240       ??$_Emplace_back_with_unused_capacity@Vscan_point@@@?$vector@Vscan_point@@V?$allocator@Vscan_point@@@std@@@std@@AAEAAVscan_point@@$$QAV2@@Z 10039240 f i aim.obj
 0001:00038300       ?get_hitboxes@aim@@QAE?AV?$vector@HV?$allocator@H@std@@@std@@PAVadjust_data@@_N@Z 10039300 f   aim.obj
 0001:000387a0       ??$emplace_back@W4Hitboxes@@@?$vector@HV?$allocator@H@std@@@std@@QAEAAH$$QAW4Hitboxes@@@Z 100397a0 f i aim.obj
 0001:00038820       ??$_Emplace_back_with_unused_capacity@W4Hitboxes@@@?$vector@HV?$allocator@H@std@@@std@@AAEAAH$$QAW4Hitboxes@@@Z 10039820 f i aim.obj
 0001:000388c0       ?get_points@aim@@QAE?AV?$vector@Vscan_point@@V?$allocator@Vscan_point@@@std@@@std@@PAVadjust_data@@H_N@Z 100398c0 f   aim.obj
 0001:0003a3e0       ?find_best_target@aim@@AAEXXZ 1003b3e0 f   aim.obj
 0001:0003a4b0       ?fire@aim@@AAEXPAVCUserCmd@@@Z 1003b4b0 f   aim.obj
 0001:0003b9b0       ??$emplace_back@$$V@?$vector@Uaim_shot@@V?$allocator@Uaim_shot@@@std@@@std@@QAEAAUaim_shot@@XZ 1003c9b0 f i aim.obj
 0001:0003ba10       ??$_Emplace_back_with_unused_capacity@$$V@?$vector@Uaim_shot@@V?$allocator@Uaim_shot@@@std@@@std@@AAEAAUaim_shot@@XZ 1003ca10 f i aim.obj
 0001:0003bab0       ??4adjust_data@@QAEAAV0@$$QAV0@@Z 1003cab0 f i aim.obj
 0001:0003bd60       ??4scan_data@@QAEAAV0@$$QAV0@@Z 1003cd60 f i aim.obj
 0001:0003bda0       ?hitchance@aim@@AAEHABVVector@@@Z 1003cda0 f   aim.obj
 0001:0003c920       ?hitbox_intersection@aim@@QAE_NPAVplayer_t@@PAVmatrix3x4_t@@HABVVector@@2PAM@Z 1003d920 f   aim.obj
 0001:0003cbe0       ??$_Const_cast@$$CBU?$pair@VVector@@VColor@@@std@@@std@@YAPAU?$pair@VVector@@VColor@@@0@PBU10@@Z 1003dbe0 f i GrenadePrediction.obj
 0001:0003cbe0       ??$_Const_cast@$$CBUimpact_data@bullettracers@@@std@@YAPAUimpact_data@bullettracers@@PBU12@@Z 1003dbe0 f i bullet_tracers.obj
 0001:0003cbe0       ??$_Const_cast@$$CBVscan_point@@@std@@YAPAVscan_point@@PBV1@@Z 1003dbe0 f i aim.obj
 0001:0003cc20       ?erase@?$vector@Vscan_point@@V?$allocator@Vscan_point@@@std@@@std@@QAE?AV?$_Vector_iterator@V?$_Vector_val@U?$_Simple_types@Vscan_point@@@std@@@std@@@2@V?$_Vector_const_iterator@V?$_Vector_val@U?$_Simple_types@Vscan_point@@@std@@@std@@@2@@Z 1003dc20 f i aim.obj
 0001:0003ce00       ??1?$vector@Vscan_point@@V?$allocator@Vscan_point@@@std@@@std@@QAE@XZ 1003de00 f i aim.obj
 0001:0003ce90       ??0?$vector@HV?$allocator@H@std@@@std@@QAE@$$QAV01@@Z 1003de90 f i aim.obj
 0001:0003ce90       ??0?$vector@Vscan_point@@V?$allocator@Vscan_point@@@std@@@std@@QAE@$$QAV01@@Z 1003de90 f i aim.obj
 0001:0003cf60       ?_Growmap@?$deque@Voptimized_adjust_data@@V?$allocator@Voptimized_adjust_data@@@std@@@std@@AAEXI@Z 1003df60 f i aim.obj
 0001:0003d470       ?back@?$deque@Voptimized_adjust_data@@V?$allocator@Voptimized_adjust_data@@@std@@@std@@QAEAAVoptimized_adjust_data@@XZ 1003e470 f i aim.obj
 0001:0003d5f0       ??1?$deque@Voptimized_adjust_data@@V?$allocator@Voptimized_adjust_data@@@std@@@std@@QAE@XZ 1003e5f0 f i aim.obj
 0001:0003d680       ??H?$_Vector_iterator@V?$_Vector_val@U?$_Simple_types@Vtarget@@@std@@@std@@@std@@QBE?AV01@H@Z 1003e680 f i aim.obj
 0001:0003d760       ?get@?$singleton@Vslowwalk@@@@SAAAVslowwalk@@XZ 1003e760 f i aim.obj
 0001:0003d7d0       ?clear@?$vector@VMaterialBackup@@V?$allocator@VMaterialBackup@@@std@@@std@@QAEXXZ 1003e7d0 f i nightmode.obj
 0001:0003d7d0       ?clear@?$vector@U?$pair@VVector@@VColor@@@std@@V?$allocator@U?$pair@VVector@@VColor@@@std@@@2@@std@@QAEXXZ 1003e7d0 f i GrenadePrediction.obj
 0001:0003d7d0       ?clear@?$vector@Vscanned_target@@V?$allocator@Vscanned_target@@@std@@@std@@QAEXXZ 1003e7d0 f i aim.obj
 0001:0003d7d0       ?clear@?$vector@VVector@@V?$allocator@VVector@@@std@@@std@@QAEXXZ 1003e7d0 f i GrenadePrediction.obj
 0001:0003d7d0       ?clear@?$vector@Vtarget@@V?$allocator@Vtarget@@@std@@@std@@QAEXXZ 1003e7d0 f i aim.obj
 0001:0003d7d0       ?clear@?$vector@Vadjust_data@@V?$allocator@Vadjust_data@@@std@@@std@@QAEXXZ 1003e7d0 f i aim.obj
 0001:0003d870       ?erase@?$vector@Vtarget@@V?$allocator@Vtarget@@@std@@@std@@QAE?AV?$_Vector_iterator@V?$_Vector_val@U?$_Simple_types@Vtarget@@@std@@@std@@@2@V?$_Vector_const_iterator@V?$_Vector_val@U?$_Simple_types@Vtarget@@@std@@@std@@@2@@Z 1003e870 f i aim.obj
 0001:0003da60       ?end@?$vector@U?$pair@E_N@std@@V?$allocator@U?$pair@E_N@std@@@2@@std@@QAE?AV?$_Vector_iterator@V?$_Vector_val@U?$_Simple_types@U?$pair@E_N@std@@@std@@@std@@@2@XZ 1003ea60 f i util.obj
 0001:0003da60       ?end@?$vector@Vscanned_target@@V?$allocator@Vscanned_target@@@std@@@std@@QAE?AV?$_Vector_iterator@V?$_Vector_val@U?$_Simple_types@Vscanned_target@@@std@@@std@@@2@XZ 1003ea60 f i aim.obj
 0001:0003daf0       ?begin@?$vector@U?$pair@E_N@std@@V?$allocator@U?$pair@E_N@std@@@2@@std@@QAE?AV?$_Vector_iterator@V?$_Vector_val@U?$_Simple_types@U?$pair@E_N@std@@@std@@@std@@@2@XZ 1003eaf0 f i util.obj
 0001:0003daf0       ?begin@?$vector@Uimpact_data@bullettracers@@V?$allocator@Uimpact_data@bullettracers@@@std@@@std@@QAE?AV?$_Vector_iterator@V?$_Vector_val@U?$_Simple_types@Uimpact_data@bullettracers@@@std@@@std@@@2@XZ 1003eaf0 f i bullet_tracers.obj
 0001:0003daf0       ?begin@?$vector@Vscanned_target@@V?$allocator@Vscanned_target@@@std@@@std@@QAE?AV?$_Vector_iterator@V?$_Vector_val@U?$_Simple_types@Vscanned_target@@@std@@@std@@@2@XZ 1003eaf0 f i aim.obj
 0001:0003db80       ?at@?$vector@HV?$allocator@H@std@@@std@@QAEAAHI@Z 1003eb80 f i aim.obj
 0001:0003dbd0       ??1?$vector@HV?$allocator@H@std@@@std@@QAE@XZ 1003ebd0 f i aim.obj
 0001:0003dc60       ??E?$_Vector_const_iterator@V?$_Vector_val@U?$_Simple_types@Vscan_point@@@std@@@std@@@std@@QAEAAV01@XZ 1003ec60 f i aim.obj
 0001:0003dd60       ??C?$_Vector_const_iterator@V?$_Vector_val@U?$_Simple_types@Vscan_point@@@std@@@std@@@std@@QBEPBVscan_point@@XZ 1003ed60 f i aim.obj
 0001:0003de60       ??0?$_Vector_const_iterator@V?$_Vector_val@U?$_Simple_types@Vtarget@@@std@@@std@@@std@@QAE@PAVtarget@@PBU_Container_base12@1@@Z 1003ee60 f i aim.obj
 0001:0003de60       ??0?$_Vector_const_iterator@V?$_Vector_val@U?$_Simple_types@Vscan_point@@@std@@@std@@@std@@QAE@PAVscan_point@@PBU_Container_base12@1@@Z 1003ee60 f i aim.obj
 0001:0003ded0       ?_Tidy@?$vector@Vscan_point@@V?$allocator@Vscan_point@@@std@@@std@@AAEXXZ 1003eed0 f i aim.obj
 0001:0003dfd0       ??D?$_Deque_unchecked_const_iterator@V?$_Deque_val@U?$_Deque_simple_types@Voptimized_adjust_data@@@std@@@std@@@std@@QBEABVoptimized_adjust_data@@XZ 1003efd0 f i aim.obj
 0001:0003e030       ?_Tidy@?$deque@Voptimized_adjust_data@@V?$allocator@Voptimized_adjust_data@@@std@@@std@@AAEXXZ 1003f030 f i aim.obj
 0001:0003e220       ?_Tidy@?$vector@HV?$allocator@H@std@@@std@@AAEXXZ 1003f220 f i aim.obj
 0001:0003e320       ?_Compat@?$_Vector_const_iterator@V?$_Vector_val@U?$_Simple_types@Vscan_point@@@std@@@std@@@std@@QBEXABV12@@Z 1003f320 f i aim.obj
 0001:0003e3e0       ?_Take_contents@?$_Vector_val@U?$_Simple_types@H@std@@@std@@QAEXAAV12@@Z 1003f3e0 f i aim.obj
 0001:0003e3e0       ?_Take_contents@?$_Vector_val@U?$_Simple_types@Vscan_point@@@std@@@std@@QAEXAAV12@@Z 1003f3e0 f i aim.obj
 0001:0003e470       ?deallocate@?$allocator@Vscan_point@@@std@@QAEXQAVscan_point@@I@Z 1003f470 f i aim.obj
 0001:0003e4a0       ?pop_back@?$deque@Voptimized_adjust_data@@V?$allocator@Voptimized_adjust_data@@@std@@@std@@QAEXXZ 1003f4a0 f i aim.obj
 0001:0003e650       ?deallocate@?$allocator@H@std@@QAEXQAHI@Z 1003f650 f i aim.obj
 0001:0003e680       ?_Verify_offset@?$_Vector_const_iterator@V?$_Vector_val@U?$_Simple_types@Vtarget@@@std@@@std@@@std@@QBEXH@Z 1003f680 f i aim.obj
 0001:0003e7f0       ??$_Emplace_reallocate@ABVVector@@@?$vector@VVector@@V?$allocator@VVector@@@std@@@std@@QAEPAVVector@@QAV2@ABV2@@Z 1003f7f0 f i GrenadePrediction.obj
 0001:0003e7f0       ??$_Emplace_reallocate@Vtarget@@@?$vector@Vtarget@@V?$allocator@Vtarget@@@std@@@std@@QAEPAVtarget@@QAV2@$$QAV2@@Z 1003f7f0 f i aim.obj
 0001:0003eaf0       ??$_Emplace_reallocate@Vadjust_data@@@?$vector@Vadjust_data@@V?$allocator@Vadjust_data@@@std@@@std@@QAEPAVadjust_data@@QAV2@$$QAV2@@Z 1003faf0 f i aim.obj
 0001:0003ee00       ??$sort@V?$_Deque_iterator@V?$_Deque_val@U?$_Deque_simple_types@Voptimized_adjust_data@@@std@@@std@@@std@@P6A_NABVoptimized_adjust_data@@0@Z@std@@YAXV?$_Deque_iterator@V?$_Deque_val@U?$_Deque_simple_types@Voptimized_adjust_data@@@std@@@std@@@0@0P6A_NABVoptimized_adjust_data@@1@Z@Z 1003fe00 f i aim.obj
 0001:0003efb0       ??$_Emplace_reallocate@Vscanned_target@@@?$vector@Vscanned_target@@V?$allocator@Vscanned_target@@@std@@@std@@QAEPAVscanned_target@@QAV2@$$QAV2@@Z 1003ffb0 f i aim.obj
 0001:0003f2b0       ??$_Emplace_reallocate@AAVscan_point@@@?$vector@Vscan_point@@V?$allocator@Vscan_point@@@std@@@std@@QAEPAVscan_point@@QAV2@AAV2@@Z 100402b0 f i aim.obj
 0001:0003f2b0       ??$_Emplace_reallocate@Vscan_point@@@?$vector@Vscan_point@@V?$allocator@Vscan_point@@@std@@@std@@QAEPAVscan_point@@QAV2@$$QAV2@@Z 100402b0 f i aim.obj
 0001:0003f5c0       ??$sort@V?$_Vector_iterator@V?$_Vector_val@U?$_Simple_types@Vscan_point@@@std@@@std@@@std@@P6A_NABVscan_point@@0@Z@std@@YAXV?$_Vector_iterator@V?$_Vector_val@U?$_Simple_types@Vscan_point@@@std@@@std@@@0@0P6A_NABVscan_point@@1@Z@Z 100405c0 f i aim.obj
 0001:0003f6a0       ??$_Emplace_reallocate@W4Hitboxes@@@?$vector@HV?$allocator@H@std@@@std@@QAEPAHQAH$$QAW4Hitboxes@@@Z 100406a0 f i aim.obj
 0001:0003f990       ??$sort@V?$_Vector_iterator@V?$_Vector_val@U?$_Simple_types@Vscanned_target@@@std@@@std@@@std@@P6A_NABVscanned_target@@0@Z@std@@YAXV?$_Vector_iterator@V?$_Vector_val@U?$_Simple_types@Vscanned_target@@@std@@@std@@@0@0P6A_NABVscanned_target@@1@Z@Z 10040990 f i aim.obj
 0001:0003fa70       ??$_Emplace_reallocate@$$V@?$vector@Uaim_shot@@V?$allocator@Uaim_shot@@@std@@@std@@QAEPAUaim_shot@@QAU2@@Z 10040a70 f i aim.obj
 0001:0003fd60       ??0aim_shot@@QAE@XZ        10040d60 f i aim.obj
 0001:0003fde0       ??0shot_info@@QAE@XZ       10040de0 f i aim.obj
 0001:0003fee0       ??1shot_info@@QAE@XZ       10040ee0 f i aim.obj
 0001:0003ff20       ?_Change_array@?$vector@Vscan_point@@V?$allocator@Vscan_point@@@std@@@std@@AAEXQAVscan_point@@II@Z 10040f20 f i aim.obj
 0001:00040000       ?_Calculate_growth@?$vector@Vscan_point@@V?$allocator@Vscan_point@@@std@@@std@@ABEII@Z 10041000 f i aim.obj
 0001:000400b0       ?_Change_array@?$vector@Vadjust_data@@V?$allocator@Vadjust_data@@@std@@@std@@AAEXQAVadjust_data@@II@Z 100410b0 f i aim.obj
 0001:000401a0       ?_Calculate_growth@?$vector@Vadjust_data@@V?$allocator@Vadjust_data@@@std@@@std@@ABEII@Z 100411a0 f i aim.obj
 0001:00040250       ?_Change_array@?$vector@Vtarget@@V?$allocator@Vtarget@@@std@@@std@@AAEXQAVtarget@@II@Z 10041250 f i aim.obj
 0001:00040250       ?_Change_array@?$vector@VVector@@V?$allocator@VVector@@@std@@@std@@AAEXQAVVector@@II@Z 10041250 f i GrenadePrediction.obj
 0001:00040330       ?_Calculate_growth@?$vector@VVector@@V?$allocator@VVector@@@std@@@std@@ABEII@Z 10041330 f i GrenadePrediction.obj
 0001:00040330       ?_Calculate_growth@?$vector@Vtarget@@V?$allocator@Vtarget@@@std@@@std@@ABEII@Z 10041330 f i aim.obj
 0001:000403e0       ?_Change_array@?$vector@Vscanned_target@@V?$allocator@Vscanned_target@@@std@@@std@@AAEXQAVscanned_target@@II@Z 100413e0 f i aim.obj
 0001:000404c0       ?_Calculate_growth@?$vector@Vscanned_target@@V?$allocator@Vscanned_target@@@std@@@std@@ABEII@Z 100414c0 f i aim.obj
 0001:00040570       ?_Change_array@?$vector@Uaim_shot@@V?$allocator@Uaim_shot@@@std@@@std@@AAEXQAUaim_shot@@II@Z 10041570 f i aim.obj
 0001:00040660       ?_Calculate_growth@?$vector@Uaim_shot@@V?$allocator@Uaim_shot@@@std@@@std@@ABEII@Z 10041660 f i aim.obj
 0001:00040710       ?_Destroy@?$vector@Uaim_shot@@V?$allocator@Uaim_shot@@@std@@@std@@AAEXPAUaim_shot@@0@Z 10041710 f i aim.obj
 0001:00040750       ?deallocate@?$allocator@Uaim_shot@@@std@@QAEXQAUaim_shot@@I@Z 10041750 f i aim.obj
 0001:00040780       ?_Change_array@?$vector@HV?$allocator@H@std@@@std@@AAEXQAHII@Z 10041780 f i aim.obj
 0001:00040860       ?_Calculate_growth@?$vector@HV?$allocator@H@std@@@std@@ABEII@Z 10041860 f i aim.obj
 0001:00040910       ??$_Sort_unchecked@V?$_Deque_unchecked_iterator@V?$_Deque_val@U?$_Deque_simple_types@Voptimized_adjust_data@@@std@@@std@@@std@@P6A_NABVoptimized_adjust_data@@0@Z@std@@YAXV?$_Deque_unchecked_iterator@V?$_Deque_val@U?$_Deque_simple_types@Voptimized_adjust_data@@@std@@@std@@@0@0HP6A_NABVoptimized_adjust_data@@1@Z@Z 10041910 f i aim.obj
 0001:00040a70       ??$_Sort_unchecked@PAVscan_point@@P6A_NABV1@0@Z@std@@YAXPAVscan_point@@0HP6A_NABV1@1@Z@Z 10041a70 f i aim.obj
 0001:00040ba0       ??$_Sort_unchecked@PAVscanned_target@@P6A_NABV1@0@Z@std@@YAXPAVscanned_target@@0HP6A_NABV1@1@Z@Z 10041ba0 f i aim.obj
 0001:00040cd0       ??$_Uninitialized_move@PAVscan_point@@V?$allocator@Vscan_point@@@std@@@std@@YAPAVscan_point@@QAV1@0PAV1@AAV?$allocator@Vscan_point@@@0@@Z 10041cd0 f i aim.obj
 0001:00040db0       ??$_Uninitialized_move@PAVadjust_data@@V?$allocator@Vadjust_data@@@std@@@std@@YAPAVadjust_data@@QAV1@0PAV1@AAV?$allocator@Vadjust_data@@@0@@Z 10041db0 f i aim.obj
 0001:00040e80       ??$_Uninitialized_move@PAVVector@@V?$allocator@VVector@@@std@@@std@@YAPAVVector@@QAV1@0PAV1@AAV?$allocator@VVector@@@0@@Z 10041e80 f i GrenadePrediction.obj
 0001:00040e80       ??$_Uninitialized_move@PAVtarget@@V?$allocator@Vtarget@@@std@@@std@@YAPAVtarget@@QAV1@0PAV1@AAV?$allocator@Vtarget@@@0@@Z 10041e80 f i aim.obj
 0001:00040f40       ??$_Uninitialized_move@PAVscanned_target@@V?$allocator@Vscanned_target@@@std@@@std@@YAPAVscanned_target@@QAV1@0PAV1@AAV?$allocator@Vscanned_target@@@0@@Z 10041f40 f i aim.obj
 0001:00040ff0       ??$_Destroy_range@V?$allocator@Uaim_shot@@@std@@@std@@YAXPAUaim_shot@@QAU1@AAV?$allocator@Uaim_shot@@@0@@Z 10041ff0 f i aim.obj
 0001:00041070       ??$_Uninitialized_move@PAUaim_shot@@V?$allocator@Uaim_shot@@@std@@@std@@YAPAUaim_shot@@QAU1@0PAU1@AAV?$allocator@Uaim_shot@@@0@@Z 10042070 f i aim.obj
 0001:00041120       ??$_Uninitialized_move@PAHV?$allocator@H@std@@@std@@YAPAHQAH0PAHAAV?$allocator@H@0@@Z 10042120 f i aim.obj
 0001:00041170       ??$_Uninitialized_copy@PAVscanned_target@@V?$allocator@Vscanned_target@@@std@@@std@@YAPAVscanned_target@@QAV1@0PAV1@AAV?$allocator@Vscanned_target@@@0@@Z 10042170 f i aim.obj
 0001:00041220       ??1?$_Uninitialized_backout_al@V?$allocator@Uaim_shot@@@std@@@std@@QAE@XZ 10042220 f i aim.obj
 0001:00041280       ??1?$_Uninitialized_backout_al@V?$allocator@Vscanned_target@@@std@@@std@@QAE@XZ 10042280 f i aim.obj
 0001:000412e0       ?_Verify_range@std@@YAXABV?$_Vector_const_iterator@V?$_Vector_val@U?$_Simple_types@U?$pair@E_N@std@@@std@@@std@@@1@0@Z 100422e0 f i util.obj
 0001:000412e0       ?_Verify_range@std@@YAXABV?$_Vector_const_iterator@V?$_Vector_val@U?$_Simple_types@Vscanned_target@@@std@@@std@@@1@0@Z 100422e0 f i aim.obj
 0001:000412e0       ?_Verify_range@std@@YAXABV?$_Vector_const_iterator@V?$_Vector_val@U?$_Simple_types@Vscan_point@@@std@@@std@@@1@0@Z 100422e0 f i aim.obj
 0001:000413f0       ?_Verify_range@std@@YAXABV?$_Deque_const_iterator@V?$_Deque_val@U?$_Deque_simple_types@Voptimized_adjust_data@@@std@@@std@@@1@0@Z 100423f0 f i aim.obj
 0001:000414b0       ?_Compat@?$_Deque_const_iterator@V?$_Deque_val@U?$_Deque_simple_types@Voptimized_adjust_data@@@std@@@std@@@std@@QBEXABV12@@Z 100424b0 f i aim.obj
 0001:00041570       ??$_Insertion_sort_unchecked@V?$_Deque_unchecked_iterator@V?$_Deque_val@U?$_Deque_simple_types@Voptimized_adjust_data@@@std@@@std@@@std@@P6A_NABVoptimized_adjust_data@@0@Z@std@@YA?AV?$_Deque_unchecked_iterator@V?$_Deque_val@U?$_Deque_simple_types@Voptimized_adjust_data@@@std@@@std@@@0@V10@V10@P6A_NABVoptimized_adjust_data@@2@Z@Z 10042570 f i aim.obj
 0001:00041970       ??$_Make_heap_unchecked@V?$_Deque_unchecked_iterator@V?$_Deque_val@U?$_Deque_simple_types@Voptimized_adjust_data@@@std@@@std@@@std@@P6A_NABVoptimized_adjust_data@@0@Z@std@@YAXV?$_Deque_unchecked_iterator@V?$_Deque_val@U?$_Deque_simple_types@Voptimized_adjust_data@@@std@@@std@@@0@0P6A_NABVoptimized_adjust_data@@1@Z@Z 10042970 f i aim.obj
 0001:00041a40       ??$_Partition_by_median_guess_unchecked@V?$_Deque_unchecked_iterator@V?$_Deque_val@U?$_Deque_simple_types@Voptimized_adjust_data@@@std@@@std@@@std@@P6A_NABVoptimized_adjust_data@@0@Z@std@@YA?AU?$pair@V?$_Deque_unchecked_iterator@V?$_Deque_val@U?$_Deque_simple_types@Voptimized_adjust_data@@@std@@@std@@@std@@V12@@0@V?$_Deque_unchecked_iterator@V?$_Deque_val@U?$_Deque_simple_types@Voptimized_adjust_data@@@std@@@std@@@0@0P6A_NABVoptimized_adjust_data@@1@Z@Z 10042a40 f i aim.obj
 0001:00042430       ??$_Insertion_sort_unchecked@PAVscan_point@@P6A_NABV1@0@Z@std@@YAPAVscan_point@@PAV1@QAV1@P6A_NABV1@2@Z@Z 10043430 f i aim.obj
 0001:00042570       ??$_Make_heap_unchecked@PAVscan_point@@P6A_NABV1@0@Z@std@@YAXPAVscan_point@@0P6A_NABV1@1@Z@Z 10043570 f i aim.obj
 0001:00042600       ??$_Partition_by_median_guess_unchecked@PAVscan_point@@P6A_NABV1@0@Z@std@@YA?AU?$pair@PAVscan_point@@PAV1@@0@PAVscan_point@@0P6A_NABV2@1@Z@Z 10043600 f i aim.obj
 0001:00042d00       ??$_Insertion_sort_unchecked@PAVscanned_target@@P6A_NABV1@0@Z@std@@YAPAVscanned_target@@PAV1@QAV1@P6A_NABV1@2@Z@Z 10043d00 f i aim.obj
 0001:00042e30       ??$_Make_heap_unchecked@PAVscanned_target@@P6A_NABV1@0@Z@std@@YAXPAVscanned_target@@0P6A_NABV1@1@Z@Z 10043e30 f i aim.obj
 0001:00042eb0       ??$_Partition_by_median_guess_unchecked@PAVscanned_target@@P6A_NABV1@0@Z@std@@YA?AU?$pair@PAVscanned_target@@PAV1@@0@PAVscanned_target@@0P6A_NABV2@1@Z@Z 10043eb0 f i aim.obj
 0001:000432b0       ??$_Emplace_back@Vscanned_target@@@?$_Uninitialized_backout_al@V?$allocator@Vscanned_target@@@std@@@std@@QAEX$$QAVscanned_target@@@Z 100442b0 f i aim.obj
 0001:000432b0       ??$_Emplace_back@AAVscanned_target@@@?$_Uninitialized_backout_al@V?$allocator@Vscanned_target@@@std@@@std@@QAEXAAVscanned_target@@@Z 100442b0 f i aim.obj
 0001:00043320       ??$_Emplace_back@Uaim_shot@@@?$_Uninitialized_backout_al@V?$allocator@Uaim_shot@@@std@@@std@@QAEX$$QAUaim_shot@@@Z 10044320 f i aim.obj
 0001:000433a0       ??4optimized_adjust_data@@QAEAAV0@$$QAV0@@Z 100443a0 f i aim.obj
 0001:00043450       ??$_Debug_lt_pred@AAP6A_NABVscanned_target@@0@ZAAV1@AAV1@$0A@@std@@YA_NAAP6A_NABVscanned_target@@0@ZAAV1@2@Z 10044450 f i aim.obj
 0001:00043450       ??$_Debug_lt_pred@AAP6A_NABVscan_point@@0@ZAAV1@AAV1@$0A@@std@@YA_NAAP6A_NABVscan_point@@0@ZAAV1@2@Z 10044450 f i aim.obj
 0001:00043450       ??$_Debug_lt_pred@AAP6A_NABVoptimized_adjust_data@@0@ZAAV1@AAV1@$0A@@std@@YA_NAAP6A_NABVoptimized_adjust_data@@0@ZAAV1@2@Z 10044450 f i aim.obj
 0001:00043500       ??$_Move_backward_unchecked@V?$_Deque_unchecked_iterator@V?$_Deque_val@U?$_Deque_simple_types@Voptimized_adjust_data@@@std@@@std@@@std@@V12@@std@@YA?AV?$_Deque_unchecked_iterator@V?$_Deque_val@U?$_Deque_simple_types@Voptimized_adjust_data@@@std@@@std@@@0@V10@00@Z 10044500 f i aim.obj
 0001:000435d0       ??$_Pop_heap_hole_by_index@V?$_Deque_unchecked_iterator@V?$_Deque_val@U?$_Deque_simple_types@Voptimized_adjust_data@@@std@@@std@@@std@@Voptimized_adjust_data@@P6A_NABV3@0@Z@std@@YAXV?$_Deque_unchecked_iterator@V?$_Deque_val@U?$_Deque_simple_types@Voptimized_adjust_data@@@std@@@std@@@0@HH$$QAVoptimized_adjust_data@@P6A_NABV2@2@Z@Z 100445d0 f i aim.obj
 0001:00043900       ??$_Pop_heap_unchecked@V?$_Deque_unchecked_iterator@V?$_Deque_val@U?$_Deque_simple_types@Voptimized_adjust_data@@@std@@@std@@@std@@P6A_NABVoptimized_adjust_data@@0@Z@std@@YAXV?$_Deque_unchecked_iterator@V?$_Deque_val@U?$_Deque_simple_types@Voptimized_adjust_data@@@std@@@std@@@0@0P6A_NABVoptimized_adjust_data@@1@Z@Z 10044900 f i aim.obj
 0001:000439c0       ??$_Guess_median_unchecked@V?$_Deque_unchecked_iterator@V?$_Deque_val@U?$_Deque_simple_types@Voptimized_adjust_data@@@std@@@std@@@std@@P6A_NABVoptimized_adjust_data@@0@Z@std@@YAXV?$_Deque_unchecked_iterator@V?$_Deque_val@U?$_Deque_simple_types@Voptimized_adjust_data@@@std@@@std@@@0@00P6A_NABVoptimized_adjust_data@@1@Z@Z 100449c0 f i aim.obj
 0001:00043e30       ??$iter_swap@V?$_Deque_unchecked_iterator@V?$_Deque_val@U?$_Deque_simple_types@Voptimized_adjust_data@@@std@@@std@@@std@@V12@@std@@YAXV?$_Deque_unchecked_iterator@V?$_Deque_val@U?$_Deque_simple_types@Voptimized_adjust_data@@@std@@@std@@@0@0@Z 10044e30 f i aim.obj
 0001:00043ea0       ??$_Pop_heap_hole_by_index@PAVscan_point@@V1@P6A_NABV1@0@Z@std@@YAXPAVscan_point@@HH$$QAV1@P6A_NABV1@2@Z@Z 10044ea0 f i aim.obj
 0001:00043fb0       ??$_Pop_heap_unchecked@PAVscan_point@@P6A_NABV1@0@Z@std@@YAXPAVscan_point@@0P6A_NABV1@1@Z@Z 10044fb0 f i aim.obj
 0001:00044050       ??$_Guess_median_unchecked@PAVscan_point@@P6A_NABV1@0@Z@std@@YAXPAVscan_point@@00P6A_NABV1@1@Z@Z 10045050 f i aim.obj
 0001:00044140       ??$_Pop_heap_hole_by_index@PAVscanned_target@@V1@P6A_NABV1@0@Z@std@@YAXPAVscanned_target@@HH$$QAV1@P6A_NABV1@2@Z@Z 10045140 f i aim.obj
 0001:00044250       ??$_Pop_heap_unchecked@PAVscanned_target@@P6A_NABV1@0@Z@std@@YAXPAVscanned_target@@0P6A_NABV1@1@Z@Z 10045250 f i aim.obj
 0001:000442e0       ??$_Guess_median_unchecked@PAVscanned_target@@P6A_NABV1@0@Z@std@@YAXPAVscanned_target@@00P6A_NABV1@1@Z@Z 100452e0 f i aim.obj
 0001:000443d0       ??0aim_shot@@QAE@$$QAU0@@Z 100453d0 f i aim.obj
 0001:00044480       ??0shot_info@@QAE@$$QAU0@@Z 10045480 f i aim.obj
 0001:00044560       ??$_Push_heap_by_index@V?$_Deque_unchecked_iterator@V?$_Deque_val@U?$_Deque_simple_types@Voptimized_adjust_data@@@std@@@std@@@std@@Voptimized_adjust_data@@P6A_NABV3@0@Z@std@@YAXV?$_Deque_unchecked_iterator@V?$_Deque_val@U?$_Deque_simple_types@Voptimized_adjust_data@@@std@@@std@@@0@HH$$QAVoptimized_adjust_data@@P6A_NABV2@2@Z@Z 10045560 f i aim.obj
 0001:00044700       ??$_Pop_heap_hole_unchecked@V?$_Deque_unchecked_iterator@V?$_Deque_val@U?$_Deque_simple_types@Voptimized_adjust_data@@@std@@@std@@@std@@Voptimized_adjust_data@@P6A_NABV3@0@Z@std@@YAXV?$_Deque_unchecked_iterator@V?$_Deque_val@U?$_Deque_simple_types@Voptimized_adjust_data@@@std@@@std@@@0@00$$QAVoptimized_adjust_data@@P6A_NABV2@2@Z@Z 10045700 f i aim.obj
 0001:000447d0       ??$_Med3_unchecked@V?$_Deque_unchecked_iterator@V?$_Deque_val@U?$_Deque_simple_types@Voptimized_adjust_data@@@std@@@std@@@std@@P6A_NABVoptimized_adjust_data@@0@Z@std@@YAXV?$_Deque_unchecked_iterator@V?$_Deque_val@U?$_Deque_simple_types@Voptimized_adjust_data@@@std@@@std@@@0@00P6A_NABVoptimized_adjust_data@@1@Z@Z 100457d0 f i aim.obj
 0001:000448c0       ??$swap@Voptimized_adjust_data@@$0A@@std@@YAXAAVoptimized_adjust_data@@0@Z 100458c0 f i aim.obj
 0001:00044910       ??$_Push_heap_by_index@PAVscan_point@@V1@P6A_NABV1@0@Z@std@@YAXPAVscan_point@@HH$$QAV1@P6A_NABV1@2@Z@Z 10045910 f i aim.obj
 0001:000449a0       ??$_Med3_unchecked@PAVscan_point@@P6A_NABV1@0@Z@std@@YAXPAVscan_point@@00P6A_NABV1@1@Z@Z 100459a0 f i aim.obj
 0001:00044b00       ??$_Push_heap_by_index@PAVscanned_target@@V1@P6A_NABV1@0@Z@std@@YAXPAVscanned_target@@HH$$QAV1@P6A_NABV1@2@Z@Z 10045b00 f i aim.obj
 0001:00044b90       ??$_Med3_unchecked@PAVscanned_target@@P6A_NABV1@0@Z@std@@YAXPAVscanned_target@@00P6A_NABV1@1@Z@Z 10045b90 f i aim.obj
 0001:00044c20       ??$swap@Vscanned_target@@$0A@@std@@YAXAAVscanned_target@@0@Z 10045c20 f i aim.obj
 0001:00044c70       ?m_fThrowTime@weapon_t@@QBEAAMXZ 10045c70 f i antiaim.obj
 0001:00044d20       ?create_move@antiaim@@QAEXPAVCUserCmd@@@Z 10045d20 f   antiaim.obj
 0001:00045000       ?get_pitch@antiaim@@QAEMPAVCUserCmd@@@Z 10046000 f   antiaim.obj
 0001:00045240       ?get_yaw@antiaim@@QAEMPAVCUserCmd@@@Z 10046240 f   antiaim.obj
 0001:00045b00       ?condition@antiaim@@QAE_NPAVCUserCmd@@_N@Z 10046b00 f   antiaim.obj
 0001:00045d50       ?should_break_lby@antiaim@@QAE_NPAVCUserCmd@@H@Z 10046d50 f   antiaim.obj
 0001:00045ea0       ?at_targets@antiaim@@QAEMXZ 10046ea0 f   antiaim.obj
 0001:00046090       ?automatic_direction@antiaim@@QAE_NXZ 10047090 f   antiaim.obj
 0001:00046b00       ?freestanding@antiaim@@QAEXPAVCUserCmd@@@Z 10047b00 f   antiaim.obj
 0001:000475e0       ?Normalize@Vector@@QBEMXZ  100485e0 f i knifebot.obj
 0001:00047680       ?VectorCrossProduct@Vector@@QAEXABV1@0AAV1@@Z 10048680 f i knifebot.obj
 0001:00047720       ?ToEulerAngles@Vector@@QAE?AV1@PAV1@@Z 10048720 f i knifebot.obj
 0001:00047b30       ?Init@Ray_t@@QAEXABVVector@@000@Z 10048b30 f i knifebot.obj
 0001:00048020       ?m_flNextPrimaryAttack@weapon_t@@QBEAAMXZ 10049020 f i knifebot.obj
 0001:000480d0       ?run@knifebot@@QAEXPAVCUserCmd@@@Z 100490d0 f   knifebot.obj
 0001:00048140       ?scan_targets@knifebot@@AAEXXZ 10049140 f   knifebot.obj
 0001:000482b0       ?fire@knifebot@@AAEXPAVCUserCmd@@@Z 100492b0 f   knifebot.obj
 0001:000486c0       ?determinate_hit_type@knifebot@@AAEH_NABVVector@@@Z 100496c0 f   knifebot.obj
 0001:000489b0       ??$ToDegrees@M@@YAMM@Z     100499b0 f i knifebot.obj
 0001:000489e0       ?run@zeusbot@@QAEXPAVCUserCmd@@@Z 100499e0 f   zeusbot.obj
 0001:00048ad0       ?scan_targets@zeusbot@@AAEXXZ 10049ad0 f   zeusbot.obj
 0001:00048d60       ?scan@zeusbot@@AAEXPAVadjust_data@@AAVscan_data@@@Z 10049d60 f   zeusbot.obj
 0001:000493a0       ?find_best_target@zeusbot@@AAEXXZ 1004a3a0 f   zeusbot.obj
 0001:00049460       ?fire@zeusbot@@AAEXPAVCUserCmd@@@Z 1004a460 f   zeusbot.obj
 0001:00049ec0       ?hitchance@zeusbot@@AAEHABVVector@@@Z 1004aec0 f   zeusbot.obj
 0001:0004a580       ?hitbox_intersection@zeusbot@@AAE_NPAVplayer_t@@PAVmatrix3x4_t@@HABVVector@@2PAM@Z 1004b580 f   zeusbot.obj
 0001:0004a840       ??0BeamInfo_t@@QAE@XZ      1004b840 f i bullet_tracers.obj
 0001:0004a950       ?draw_beam@bullettracers@@AAEX_NABVVector@@1VColor@@@Z 1004b950 f   bullet_tracers.obj
 0001:0004aba0       ?events@bullettracers@@QAEXPAVIGameEvent@@@Z 1004bba0 f   bullet_tracers.obj
 0001:0004b020       ?draw_beams@bullettracers@@QAEXXZ 1004c020 f   bullet_tracers.obj
 0001:0004bfb0       ?erase@?$vector@Uimpact_data@bullettracers@@V?$allocator@Uimpact_data@bullettracers@@@std@@@std@@QAE?AV?$_Vector_iterator@V?$_Vector_val@U?$_Simple_types@Uimpact_data@bullettracers@@@std@@@std@@@2@V?$_Vector_const_iterator@V?$_Vector_val@U?$_Simple_types@Uimpact_data@bullettracers@@@std@@@std@@@2@@Z 1004cfb0 f i bullet_tracers.obj
 0001:0004c160       ??$emplace_back@Uimpact_data@bullettracers@@@?$vector@Uimpact_data@bullettracers@@V?$allocator@Uimpact_data@bullettracers@@@std@@@std@@QAEAAUimpact_data@bullettracers@@$$QAU23@@Z 1004d160 f i bullet_tracers.obj
 0001:0004c1e0       ??$_Emplace_back_with_unused_capacity@Uimpact_data@bullettracers@@@?$vector@Uimpact_data@bullettracers@@V?$allocator@Uimpact_data@bullettracers@@@std@@@std@@AAEAAUimpact_data@bullettracers@@$$QAU23@@Z 1004d1e0 f i bullet_tracers.obj
 0001:0004c2a0       ??C?$_Vector_const_iterator@V?$_Vector_val@U?$_Simple_types@Uimpact_data@bullettracers@@@std@@@std@@@std@@QBEPBUimpact_data@bullettracers@@XZ 1004d2a0 f i bullet_tracers.obj
 0001:0004c3a0       ??$_Move_unchecked@PAUimpact_data@bullettracers@@PAU12@@std@@YAPAUimpact_data@bullettracers@@PAU12@00@Z 1004d3a0 f i bullet_tracers.obj
 0001:0004c430       ??$_Emplace_reallocate@Uimpact_data@bullettracers@@@?$vector@Uimpact_data@bullettracers@@V?$allocator@Uimpact_data@bullettracers@@@std@@@std@@QAEPAUimpact_data@bullettracers@@QAU23@$$QAU23@@Z 1004d430 f i bullet_tracers.obj
 0001:0004c740       ?_Change_array@?$vector@Uimpact_data@bullettracers@@V?$allocator@Uimpact_data@bullettracers@@@std@@@std@@AAEXQAUimpact_data@bullettracers@@II@Z 1004d740 f i bullet_tracers.obj
 0001:0004c820       ?_Calculate_growth@?$vector@Uimpact_data@bullettracers@@V?$allocator@Uimpact_data@bullettracers@@@std@@@std@@ABEII@Z 1004d820 f i bullet_tracers.obj
 0001:0004c8d0       ?deallocate@?$allocator@Uimpact_data@bullettracers@@@std@@QAEXQAUimpact_data@bullettracers@@I@Z 1004d8d0 f i bullet_tracers.obj
 0001:0004c900       ??$_Uninitialized_move@PAUimpact_data@bullettracers@@V?$allocator@Uimpact_data@bullettracers@@@std@@@std@@YAPAUimpact_data@bullettracers@@QAU12@0PAU12@AAV?$allocator@Uimpact_data@bullettracers@@@0@@Z 1004d900 f i bullet_tracers.obj
 0001:0004c9d0       ?m_bSpotted@player_t@@QBEAA_NXZ 1004d9d0 f i dormant_esp.obj
 0001:0004ca80       ?Override@SoundPlayer@c_dormant_esp@@QAEXAAUSndInfo_t@@@Z 1004da80 f i dormant_esp.obj
 0001:0004cae0       ?start@c_dormant_esp@@QAEXXZ 1004dae0 f   dormant_esp.obj
 0001:0004ccc0       ?setup_adjust@c_dormant_esp@@QAEXPAVplayer_t@@AAUSndInfo_t@@@Z 1004dcc0 f   dormant_esp.obj
 0001:0004d070       ?adjust_sound@c_dormant_esp@@QAE_NPAVplayer_t@@@Z 1004e070 f   dormant_esp.obj
 0001:0004d180       ?valid_sound@c_dormant_esp@@QAE_NAAUSndInfo_t@@@Z 1004e180 f   dormant_esp.obj
 0001:0004d1f0       ??4?$CUtlVector@USndInfo_t@@V?$CUtlMemory@USndInfo_t@@H@@@@QAEAAV0@ABV0@@Z 1004e1f0 f i dormant_esp.obj
 0001:0004d290       ?RemoveAll@?$CUtlVector@USndInfo_t@@V?$CUtlMemory@USndInfo_t@@H@@@@QAEXXZ 1004e290 f i dormant_esp.obj
 0001:0004d2f0       ?SetCount@?$CUtlVector@USndInfo_t@@V?$CUtlMemory@USndInfo_t@@H@@@@QAEXH@Z 1004e2f0 f i dormant_esp.obj
 0001:0004d330       ?InsertMultipleBefore@?$CUtlVector@USndInfo_t@@V?$CUtlMemory@USndInfo_t@@H@@@@QAEHHH@Z 1004e330 f i dormant_esp.obj
 0001:0004d3b0       ?GrowVector@?$CUtlVector@USndInfo_t@@V?$CUtlMemory@USndInfo_t@@H@@@@QAEXH@Z 1004e3b0 f i dormant_esp.obj
 0001:0004d430       ?ShiftElementsRight@?$CUtlVector@USndInfo_t@@V?$CUtlMemory@USndInfo_t@@H@@@@QAEXHH@Z 1004e430 f i dormant_esp.obj
 0001:0004d4a0       ?Grow@?$CUtlMemory@USndInfo_t@@H@@QAEXH@Z 1004e4a0 f i dormant_esp.obj
 0001:0004d5f0       ?IsExternallyAllocated@?$CUtlMemory@USndInfo_t@@H@@QBE_NXZ 1004e5f0 f i dormant_esp.obj
 0001:0004d630       ?Normalized@Vector@@QBE?AV1@XZ 1004e630 f i GrenadePrediction.obj
 0001:0004d6e0       ?Tick@GrenadePrediction@@QAEXH@Z 1004e6e0 f   GrenadePrediction.obj
 0001:0004d770       ?View@GrenadePrediction@@QAEXPAVCViewSetup@@PAVweapon_t@@@Z 1004e770 f   GrenadePrediction.obj
 0001:0004d7f0       ?Paint@GrenadePrediction@@QAEXXZ 1004e7f0 f   GrenadePrediction.obj
 0001:0004ec70       ?Setup@GrenadePrediction@@AAEXAAVVector@@0ABV2@@Z 1004fc70 f   GrenadePrediction.obj
 0001:0004f0e0       ?Simulate@GrenadePrediction@@AAEXPAVCViewSetup@@@Z 100500e0 f   GrenadePrediction.obj
 0001:0004f340       ??$emplace_back@U?$pair@VVector@@VColor@@@std@@@?$vector@U?$pair@VVector@@VColor@@@std@@V?$allocator@U?$pair@VVector@@VColor@@@std@@@2@@std@@QAEAAU?$pair@VVector@@VColor@@@1@$$QAU21@@Z 10050340 f i GrenadePrediction.obj
 0001:0004f3c0       ??$_Emplace_back_with_unused_capacity@U?$pair@VVector@@VColor@@@std@@@?$vector@U?$pair@VVector@@VColor@@@std@@V?$allocator@U?$pair@VVector@@VColor@@@std@@@2@@std@@AAEAAU?$pair@VVector@@VColor@@@1@$$QAU21@@Z 100503c0 f i GrenadePrediction.obj
 0001:0004f470       ?VectorAngles@@YAXABVVector@@AAVQAngle@@@Z 10050470 f   GrenadePrediction.obj
 0001:0004f710       ?Step@GrenadePrediction@@AAEHAAVVector@@0HM@Z 10050710 f   GrenadePrediction.obj
 0001:0004f940       ?CheckDetonate@GrenadePrediction@@AAE_NABVVector@@ABVCGameTrace@@HM@Z 10050940 f   GrenadePrediction.obj
 0001:0004fd40       ?TraceHull@GrenadePrediction@@AAEXAAVVector@@0AAVCGameTrace@@@Z 10050d40 f   GrenadePrediction.obj
 0001:0004fe30       ?AddGravityMove@GrenadePrediction@@AAEXAAVVector@@0M_N@Z 10050e30 f   GrenadePrediction.obj
 0001:0004ffb0       ?PushEntity@GrenadePrediction@@AAEXAAVVector@@ABV2@AAVCGameTrace@@@Z 10050fb0 f   GrenadePrediction.obj
 0001:00050030       ?ResolveFlyCollisionCustom@GrenadePrediction@@AAEXAAVCGameTrace@@AAVVector@@ABV3@M@Z 10051030 f   GrenadePrediction.obj
 0001:00050480       ?PhysicsClipVelocity@GrenadePrediction@@AAEHABVVector@@0AAV2@M@Z 10051480 f   GrenadePrediction.obj
 0001:000505d0       ?back@?$vector@U?$pair@VVector@@VColor@@@std@@V?$allocator@U?$pair@VVector@@VColor@@@std@@@2@@std@@QAEAAU?$pair@VVector@@VColor@@@2@XZ 100515d0 f i GrenadePrediction.obj
 0001:00050680       ??A?$vector@VVector@@V?$allocator@VVector@@@std@@@std@@QAEAAVVector@@I@Z 10051680 f i GrenadePrediction.obj
 0001:00050740       ??E?$_Vector_const_iterator@V?$_Vector_val@U?$_Simple_types@U?$pair@VVector@@VColor@@@std@@@std@@@std@@@std@@QAEAAV01@XZ 10051740 f i GrenadePrediction.obj
 0001:00050840       ??C?$_Vector_const_iterator@V?$_Vector_val@U?$_Simple_types@U?$pair@VVector@@VColor@@@std@@@std@@@std@@@std@@QBEPBU?$pair@VVector@@VColor@@@1@XZ 10051840 f i GrenadePrediction.obj
 0001:00050940       ??E?$_Vector_const_iterator@V?$_Vector_val@U?$_Simple_types@VVector@@@std@@@std@@@std@@QAEAAV01@XZ 10051940 f i GrenadePrediction.obj
 0001:00050a40       ??D?$_Vector_const_iterator@V?$_Vector_val@U?$_Simple_types@VVector@@@std@@@std@@@std@@QBEABVVector@@XZ 10051a40 f i GrenadePrediction.obj
 0001:00050b40       ?_Compat@?$_Vector_const_iterator@V?$_Vector_val@U?$_Simple_types@U?$pair@VVector@@VColor@@@std@@@std@@@std@@@std@@QBEXABV12@@Z 10051b40 f i GrenadePrediction.obj
 0001:00050c00       ?_Compat@?$_Vector_const_iterator@V?$_Vector_val@U?$_Simple_types@VVector@@@std@@@std@@@std@@QBEXABV12@@Z 10051c00 f i GrenadePrediction.obj
 0001:00050cc0       ??$_Emplace_reallocate@U?$pair@VVector@@VColor@@@std@@@?$vector@U?$pair@VVector@@VColor@@@std@@V?$allocator@U?$pair@VVector@@VColor@@@std@@@2@@std@@QAEPAU?$pair@VVector@@VColor@@@1@QAU21@$$QAU21@@Z 10051cc0 f i GrenadePrediction.obj
 0001:00050fc0       ?_Change_array@?$vector@U?$pair@VVector@@VColor@@@std@@V?$allocator@U?$pair@VVector@@VColor@@@std@@@2@@std@@AAEXQAU?$pair@VVector@@VColor@@@2@II@Z 10051fc0 f i GrenadePrediction.obj
 0001:000510a0       ?_Calculate_growth@?$vector@U?$pair@VVector@@VColor@@@std@@V?$allocator@U?$pair@VVector@@VColor@@@std@@@2@@std@@ABEII@Z 100520a0 f i GrenadePrediction.obj
 0001:00051150       ?deallocate@?$allocator@U?$pair@VVector@@VColor@@@std@@@std@@QAEXQAU?$pair@VVector@@VColor@@@2@I@Z 10052150 f i GrenadePrediction.obj
 0001:00051180       ??$_Uninitialized_move@PAU?$pair@VVector@@VColor@@@std@@V?$allocator@U?$pair@VVector@@VColor@@@std@@@2@@std@@YAPAU?$pair@VVector@@VColor@@@0@QAU10@0PAU10@AAV?$allocator@U?$pair@VVector@@VColor@@@std@@@0@@Z 10052180 f i GrenadePrediction.obj
 0001:00051250       ??0MaterialBackup@@QAE@GPAVIMaterial@@@Z 10052250 f i nightmode.obj
 0001:00051340       ?restore@MaterialBackup@@QAEXXZ 10052340 f i nightmode.obj
 0001:00051440       ?clear_stored_materials@nightmode@@QAEXXZ 10052440 f   nightmode.obj
 0001:00051460       ?modulate@nightmode@@QAEXGPAVIMaterial@@_N@Z 10052460 f   nightmode.obj
 0001:000516b0       ??$emplace_back@VMaterialBackup@@@?$vector@VMaterialBackup@@V?$allocator@VMaterialBackup@@@std@@@std@@QAEAAVMaterialBackup@@$$QAV2@@Z 100526b0 f i nightmode.obj
 0001:00051730       ??$_Emplace_back_with_unused_capacity@VMaterialBackup@@@?$vector@VMaterialBackup@@V?$allocator@VMaterialBackup@@@std@@@std@@AAEAAVMaterialBackup@@$$QAV2@@Z 10052730 f i nightmode.obj
 0001:000517e0       ?apply@nightmode@@QAEXXZ   100527e0 f   nightmode.obj
 0001:000519c0       ?remove@nightmode@@QAEXXZ  100529c0 f   nightmode.obj
 0001:00051aa0       ??A?$vector@VMaterialBackup@@V?$allocator@VMaterialBackup@@@std@@@std@@QAEAAVMaterialBackup@@I@Z 10052aa0 f i nightmode.obj
 0001:00051b60       ??1?$vector@VMaterialBackup@@V?$allocator@VMaterialBackup@@@std@@@std@@QAE@XZ 10052b60 f i nightmode.obj
 0001:00051bf0       ?_Tidy@?$vector@VMaterialBackup@@V?$allocator@VMaterialBackup@@@std@@@std@@AAEXXZ 10052bf0 f i nightmode.obj
 0001:00051cf0       ?deallocate@?$allocator@VMaterialBackup@@@std@@QAEXQAVMaterialBackup@@I@Z 10052cf0 f i nightmode.obj
 0001:00051d20       ??$_Emplace_reallocate@VMaterialBackup@@@?$vector@VMaterialBackup@@V?$allocator@VMaterialBackup@@@std@@@std@@QAEPAVMaterialBackup@@QAV2@$$QAV2@@Z 10052d20 f i nightmode.obj
 0001:00052010       ?_Change_array@?$vector@VMaterialBackup@@V?$allocator@VMaterialBackup@@@std@@@std@@AAEXQAVMaterialBackup@@II@Z 10053010 f i nightmode.obj
 0001:000520f0       ??$_Uninitialized_move@PAVMaterialBackup@@V?$allocator@VMaterialBackup@@@std@@@std@@YAPAVMaterialBackup@@QAV1@0PAV1@AAV?$allocator@VMaterialBackup@@@0@@Z 100530f0 f i nightmode.obj
 0001:000521b0       ?can_penetrate@@YA_NPAVweapon_t@@@Z 100531b0 f   other_esp.obj
 0001:00052570       ?penetration_reticle@otheresp@@QAEXXZ 10053570 f   other_esp.obj
 0001:000526f0       ?indicators@otheresp@@QAEXXZ 100536f0 f   other_esp.obj
 0001:000533b0       ??1m_indicator@@QAE@XZ     100543b0 f i other_esp.obj
 0001:000533d0       ?draw_indicators@otheresp@@QAEXXZ 100543d0 f   other_esp.obj
 0001:00053540       ?hitmarker_paint@otheresp@@QAEXXZ 10054540 f   other_esp.obj
 0001:00053d00       ?damage_marker_paint@otheresp@@QAEXXZ 10054d00 f   other_esp.obj
 0001:00053e80       ?automatic_peek_indicator@otheresp@@QAEXXZ 10054e80 f   other_esp.obj
 0001:00054460       ?clear@?$vector@Um_indicator@@V?$allocator@Um_indicator@@@std@@@std@@QAEXXZ 10055460 f i other_esp.obj
 0001:00054500       ??$emplace_back@Um_indicator@@@?$vector@Um_indicator@@V?$allocator@Um_indicator@@@std@@@std@@QAEAAUm_indicator@@$$QAU2@@Z 10055500 f i other_esp.obj
 0001:00054580       ??$_Emplace_back_with_unused_capacity@Um_indicator@@@?$vector@Um_indicator@@V?$allocator@Um_indicator@@@std@@@std@@AAEAAUm_indicator@@$$QAU2@@Z 10055580 f i other_esp.obj
 0001:00054640       ?_Destroy@?$vector@Um_indicator@@V?$allocator@Um_indicator@@@std@@@std@@AAEXPAUm_indicator@@0@Z 10055640 f i other_esp.obj
 0001:00054680       ??$_Emplace_reallocate@Um_indicator@@@?$vector@Um_indicator@@V?$allocator@Um_indicator@@@std@@@std@@QAEPAUm_indicator@@QAU2@$$QAU2@@Z 10055680 f i other_esp.obj
 0001:00054990       ??$_Destroy_range@V?$allocator@Um_indicator@@@std@@@std@@YAXPAUm_indicator@@QAU1@AAV?$allocator@Um_indicator@@@0@@Z 10055990 f i other_esp.obj
 0001:00054a00       ?_Change_array@?$vector@Um_indicator@@V?$allocator@Um_indicator@@@std@@@std@@AAEXQAUm_indicator@@II@Z 10055a00 f i other_esp.obj
 0001:00054ae0       ?_Calculate_growth@?$vector@Um_indicator@@V?$allocator@Um_indicator@@@std@@@std@@ABEII@Z 10055ae0 f i other_esp.obj
 0001:00054b90       ?deallocate@?$allocator@Um_indicator@@@std@@QAEXQAUm_indicator@@I@Z 10055b90 f i other_esp.obj
 0001:00054bc0       ??$_Uninitialized_move@PAUm_indicator@@V?$allocator@Um_indicator@@@std@@@std@@YAPAUm_indicator@@QAU1@0PAU1@AAV?$allocator@Um_indicator@@@0@@Z 10055bc0 f i other_esp.obj
 0001:00054c70       ??1?$_Uninitialized_backout_al@V?$allocator@Um_indicator@@@std@@@std@@QAE@XZ 10055c70 f i other_esp.obj
 0001:00054cd0       ??$_Emplace_back@Um_indicator@@@?$_Uninitialized_backout_al@V?$allocator@Um_indicator@@@std@@@std@@QAEX$$QAUm_indicator@@@Z 10055cd0 f i other_esp.obj
 0001:00054d60       ?GetPing@C_CSPlayerResource@@QAEHH@Z 10055d60 f i player_esp.obj
 0001:00054e20       ?m_bHasDefuser@player_t@@QBEAA_NXZ 10055e20 f i player_esp.obj
 0001:00054ed0       ?m_iAccount@player_t@@QBEAAHXZ 10055ed0 f i player_esp.obj
 0001:00054f80       ?reset@SoundPlayer@c_dormant_esp@@QAEX_NABVVector@@H@Z 10055f80 f i player_esp.obj
 0001:00055030       ?paint_traverse@playeresp@@QAEXXZ 10056030 f   player_esp.obj
 0001:00055cd0       ?draw_skeleton@playeresp@@QAEXPAVplayer_t@@VColor@@QAVmatrix3x4_t@@@Z 10056cd0 f   player_esp.obj
 0001:00056230       ?draw_box@playeresp@@QAEXPAVplayer_t@@ABUBox@@@Z 10057230 f   player_esp.obj
 0001:00056460       ?draw_health@playeresp@@QAEXPAVplayer_t@@ABUBox@@ABUHPInfo@@@Z 10057460 f   player_esp.obj
 0001:00056990       ?draw_ammobar@playeresp@@QAE_NPAVplayer_t@@ABUBox@@@Z 10057990 f   player_esp.obj
 0001:00056e70       ?draw_name@playeresp@@QAEXPAVplayer_t@@ABUBox@@@Z 10057e70 f   player_esp.obj
 0001:00057230       ?draw_weapon@playeresp@@QAEXPAVplayer_t@@ABUBox@@_N@Z 10058230 f   player_esp.obj
 0001:000576b0       ?draw_flags@playeresp@@QAEXPAVplayer_t@@ABUBox@@@Z 100586b0 f   player_esp.obj
 0001:00058830       ?draw_lines@playeresp@@QAEXPAVplayer_t@@@Z 10059830 f   player_esp.obj
 0001:00058a30       ?draw_multi_points@playeresp@@QAEXPAVplayer_t@@@Z 10059a30 f   player_esp.obj
 0001:00059220       ?get@?$singleton@Vc_dormant_esp@@@@SAAAVc_dormant_esp@@XZ 1005a220 f i player_esp.obj
 0001:00059370       ??0SoundPlayer@c_dormant_esp@@QAE@XZ 1005a370 f i player_esp.obj
 0001:000593c0       ??1?$CUtlVector@USndInfo_t@@V?$CUtlMemory@USndInfo_t@@H@@@@QAE@XZ 1005a3c0 f i player_esp.obj
 0001:00059430       ??0?$CUtlMemory@USndInfo_t@@H@@QAE@HH@Z 1005a430 f i player_esp.obj
 0001:00059490       ??1?$CUtlMemory@USndInfo_t@@H@@QAE@XZ 1005a490 f i player_esp.obj
 0001:000594e0       ?Purge@?$CUtlMemory@USndInfo_t@@H@@QAEXXZ 1005a4e0 f i player_esp.obj
 0001:00059530       ?m_hOwnerEntity@entity_t@@QBEAAV?$CHandle@Vplayer_t@@@@XZ 1005a530 f i world_esp.obj
 0001:000595e0       ?m_flC4Blow@CCSBomb@@QBEAAMXZ 1005a5e0 f i world_esp.obj
 0001:00059690       ?m_nSmokeEffectTickBegin@smoke_t@@QBEAAHXZ 1005a690 f i world_esp.obj
 0001:00059740       ?m_bDidSmokeEffect@smoke_t@@QBEAA_NXZ 1005a740 f i world_esp.obj
 0001:000597f0       ?paint_traverse@worldesp@@QAEXXZ 1005a7f0 f   world_esp.obj
 0001:00059c00       ?skybox_changer@worldesp@@QAEXXZ 1005ac00 f   world_esp.obj
 0001:0005a9d0       ?fog_changer@worldesp@@QAEXXZ 1005b9d0 f   world_esp.obj
 0001:0005af60       ?world_modulation@worldesp@@QAEXPAVentity_t@@@Z 1005bf60 f   world_esp.obj
 0001:0005b0a0       ?molotov_timer@worldesp@@QAEXPAVentity_t@@@Z 1005c0a0 f   world_esp.obj
 0001:0005b600       ?smoke_timer@worldesp@@QAEXPAVentity_t@@@Z 1005c600 f   world_esp.obj
 0001:0005bba0       ?grenade_projectiles@worldesp@@QAEXPAVentity_t@@@Z 1005cba0 f   world_esp.obj
 0001:0005ceb0       ?bomb_timer@worldesp@@QAEXPAVentity_t@@@Z 1005deb0 f   world_esp.obj
 0001:0005d1e0       ?dropped_weapons@worldesp@@QAEXPAVentity_t@@@Z 1005e1e0 f   world_esp.obj
 0001:0005dc20       ??$?9DU?$char_traits@D@std@@V?$allocator@D@1@@std@@YA_NABV?$basic_string@DU?$char_traits@D@std@@V?$allocator@D@2@@0@0@Z 1005ec20 f i world_esp.obj
 0001:0005dc80       ??$?8DU?$char_traits@D@std@@V?$allocator@D@1@@std@@YA_NABV?$basic_string@DU?$char_traits@D@std@@V?$allocator@D@2@@0@0@Z 1005ec80 f i world_esp.obj
 0001:0005dcd0       ?_Equal@?$basic_string@DU?$char_traits@D@std@@V?$allocator@D@2@@std@@QBE_NABV12@@Z 1005ecd0 f i world_esp.obj
 0001:0005de10       ??0bad_cast@std@@QAE@XZ    1005ee10 f i configs.obj
 0001:0005de80       ?_Throw_bad_cast@std@@YAXXZ 1005ee80 f i configs.obj
 0001:0005deb0       ??0bad_cast@std@@QAE@ABV01@@Z 1005eeb0 f i configs.obj
 0001:0005df00       ??1locale@std@@QAE@XZ      1005ef00 f i configs.obj
 0001:0005df80       ?_Getfacet@locale@std@@QBEPBVfacet@12@I@Z 1005ef80 f i configs.obj
 0001:0005e010       ??0key_bind@@QAE@W4key_bind_mode@@@Z 1005f010 f i configs.obj
 0001:0005e050       ?_Throw_tree_length_error@std@@YAXXZ 1005f050 f i configs.obj
 0001:0005e070       ??0C_ConfigItem@C_ConfigManager@@QAE@V?$basic_string@DU?$char_traits@D@std@@V?$allocator@D@2@@std@@PAX0@Z 1005f070 f i configs.obj
 0001:0005e150       ??0Config@@QAE@XZ          1005f150 f i configs.obj
 0001:0005e290       ??0Legitbot_t@Config@@QAE@XZ 1005f290 f i configs.obj
 0001:0005e300       ??0Ragebot_t@Config@@QAE@XZ 1005f300 f i configs.obj
 0001:0005e3c0       ??0AntiAim_t@Config@@QAE@XZ 1005f3c0 f i configs.obj
 0001:0005e4d0       ??0Player_t@Config@@QAE@XZ 1005f4d0 f i configs.obj
 0001:0005e550       ??0Visuals_t@Config@@QAE@XZ 1005f550 f i configs.obj
 0001:0005e730       ??0Misc_t@Config@@QAE@XZ   1005f730 f i configs.obj
 0001:0005e880       ??0?$array@Uitem_setting@@$0CE@@std@@QAE@XZ 1005f880 f i configs.obj
 0001:0005e8d0       ??1Config@@QAE@XZ          1005f8d0 f i configs.obj
 0001:0005e9f0       ??0item_setting@@QAE@XZ    1005f9f0 f i configs.obj
 0001:0005eaa0       ??1Ragebot_t@Config@@QAE@XZ 1005faa0 f i configs.obj
 0001:0005eaf0       ??1weapon@Ragebot_t@Config@@QAE@XZ 1005faf0 f i configs.obj
 0001:0005eb20       ??1AntiAim_t@Config@@QAE@XZ 1005fb20 f i configs.obj
 0001:0005eb40       ??0weapon@Ragebot_t@Config@@QAE@XZ 1005fb40 f i configs.obj
 0001:0005eba0       ??1Player_t@Config@@QAE@XZ 1005fba0 f i configs.obj
 0001:0005ebf0       ??1type@Player_t@Config@@QAE@XZ 1005fbf0 f i configs.obj
 0001:0005ec20       ??1Player_list_t@Config@@QAE@XZ 1005fc20 f i configs.obj
 0001:0005ec40       ??0type@Player_t@Config@@QAE@XZ 1005fc40 f i configs.obj
 0001:0005ed40       ??1Visuals_t@Config@@QAE@XZ 1005fd40 f i configs.obj
 0001:0005eda0       ??1item_setting@@QAE@XZ    1005fda0 f i configs.obj
 0001:0005edc0       ??1Misc_t@Config@@QAE@XZ   1005fdc0 f i configs.obj
 0001:0005edf0       ??1Skins_t@Config@@QAE@XZ  1005fdf0 f i configs.obj
 0001:0005ee60       ?get_by_definition_index@@YAPAUitem_setting@@H@Z 1005fe60 f   configs.obj
 0001:0005f020       ?setup@C_ConfigManager@@QAEXXZ 10060020 f   configs.obj
 0001:000660d0       ?add_item@C_ConfigManager@@QAEXPAXPBDABV?$basic_string@DU?$char_traits@D@std@@V?$allocator@D@2@@std@@@Z 100670d0 f   configs.obj
 0001:000661a0       ?setup_item@C_ConfigManager@@QAEXPAHHABV?$basic_string@DU?$char_traits@D@std@@V?$allocator@D@2@@std@@@Z 100671a0 f   configs.obj
 0001:00066270       ?setup_item@C_ConfigManager@@QAEXPA_N_NABV?$basic_string@DU?$char_traits@D@std@@V?$allocator@D@2@@std@@@Z 10067270 f   configs.obj
 0001:00066340       ?setup_item@C_ConfigManager@@QAEXPAMMABV?$basic_string@DU?$char_traits@D@std@@V?$allocator@D@2@@std@@@Z 10067340 f   configs.obj
 0001:00066410       ?setup_item@C_ConfigManager@@QAEXPAUkey_bind@@U2@ABV?$basic_string@DU?$char_traits@D@std@@V?$allocator@D@2@@std@@@Z 10067410 f   configs.obj
 0001:000664f0       ?setup_item@C_ConfigManager@@QAEXPAVColor@@V2@ABV?$basic_string@DU?$char_traits@D@std@@V?$allocator@D@2@@std@@@Z 100674f0 f   configs.obj
 0001:000666d0       ?setup_item@C_ConfigManager@@QAEXPAV?$vector@HV?$allocator@H@std@@@std@@HABV?$basic_string@DU?$char_traits@D@std@@V?$allocator@D@2@@3@@Z 100676d0 f   configs.obj
 0001:000667d0       ?setup_item@C_ConfigManager@@QAEXPAV?$basic_string@DU?$char_traits@D@std@@V?$allocator@D@2@@std@@ABV23@1@Z 100677d0 f   configs.obj
 0001:000668c0       ??_D?$basic_ifstream@DU?$char_traits@D@std@@@std@@QAEXXZ 100678c0 f i configs.obj
 0001:000668f0       ?close@?$basic_ifstream@DU?$char_traits@D@std@@@std@@QAEXXZ 100678f0 f i configs.obj
 0001:00066940       ??1?$basic_ifstream@DU?$char_traits@D@std@@@std@@UAE@XZ 10067940 f i configs.obj
 0001:000669c0       ?imbue@?$basic_filebuf@DU?$char_traits@D@std@@@std@@MAEXABVlocale@2@@Z 100679c0 f i configs.obj
 0001:00066a20       ?sync@?$basic_filebuf@DU?$char_traits@D@std@@@std@@MAEHXZ 10067a20 f i configs.obj
 0001:00066ab0       ?setbuf@?$basic_filebuf@DU?$char_traits@D@std@@@std@@MAEPAV?$basic_streambuf@DU?$char_traits@D@std@@@2@PAD_J@Z 10067ab0 f i configs.obj
 0001:00066b30       ?seekpos@?$basic_filebuf@DU?$char_traits@D@std@@@std@@MAE?AV?$fpos@U_Mbstatet@@@2@V32@H@Z 10067b30 f i configs.obj
 0001:00066c30       ?seekoff@?$basic_filebuf@DU?$char_traits@D@std@@@std@@MAE?AV?$fpos@U_Mbstatet@@@2@_JHH@Z 10067c30 f i configs.obj
 0001:00066d70       ?xsputn@?$basic_filebuf@DU?$char_traits@D@std@@@std@@MAE_JPBD_J@Z 10067d70 f i configs.obj
 0001:00066ee0       ?xsgetn@?$basic_filebuf@DU?$char_traits@D@std@@@std@@MAE_JPAD_J@Z 10067ee0 f i configs.obj
 0001:000670b0       ?uflow@?$basic_filebuf@DU?$char_traits@D@std@@@std@@MAEHXZ 100680b0 f i configs.obj
 0001:00067560       ?underflow@?$basic_filebuf@DU?$char_traits@D@std@@@std@@MAEHXZ 10068560 f i configs.obj
 0001:00067620       ?pbackfail@?$basic_filebuf@DU?$char_traits@D@std@@@std@@MAEHH@Z 10068620 f i configs.obj
 0001:00067840       ?overflow@?$basic_filebuf@DU?$char_traits@D@std@@@std@@MAEHH@Z 10068840 f i configs.obj
 0001:00067b10       ?_Unlock@?$basic_filebuf@DU?$char_traits@D@std@@@std@@UAEXXZ 10068b10 f i configs.obj
 0001:00067b40       ?_Lock@?$basic_filebuf@DU?$char_traits@D@std@@@std@@UAEXXZ 10068b40 f i configs.obj
 0001:00067b70       ??1?$basic_filebuf@DU?$char_traits@D@std@@@std@@UAE@XZ 10068b70 f i configs.obj
 0001:00067be0       ??0?$unordered_map@V?$basic_string@DU?$char_traits@D@std@@V?$allocator@D@2@@std@@$$BY03MU?$hash@V?$basic_string@DU?$char_traits@D@std@@V?$allocator@D@2@@std@@@2@U?$equal_to@V?$basic_string@DU?$char_traits@D@std@@V?$allocator@D@2@@std@@@2@V?$allocator@U?$pair@$$CBV?$basic_string@DU?$char_traits@D@std@@V?$allocator@D@2@@std@@$$BY03M@std@@@2@@std@@QAE@XZ 10068be0 f i configs.obj
 0001:00067c60       ??1?$_Hash_vec@V?$allocator@V?$_List_unchecked_iterator@V?$_List_val@U?$_List_simple_types@U?$pair@$$CBV?$basic_string@DU?$char_traits@D@std@@V?$allocator@D@2@@std@@$$BY03M@std@@@std@@@std@@@std@@@std@@@std@@QAE@XZ 10068c60 f i configs.obj
 0001:00067cf0       ??1?$list@U?$pair@$$CBV?$basic_string@DU?$char_traits@D@std@@V?$allocator@D@2@@std@@$$BY03M@std@@V?$allocator@U?$pair@$$CBV?$basic_string@DU?$char_traits@D@std@@V?$allocator@D@2@@std@@$$BY03M@std@@@2@@std@@QAE@XZ 10068cf0 f i configs.obj
 0001:00067d60       ??1?$vector@UPlayer_list_data@@V?$allocator@UPlayer_list_data@@@std@@@std@@QAE@XZ 10068d60 f i configs.obj
 0001:00067df0       ??0?$vector@PAVC_ConfigItem@C_ConfigManager@@V?$allocator@PAVC_ConfigItem@C_ConfigManager@@@std@@@std@@QAE@XZ 10068df0 f i configs.obj
 0001:00067df0       ??0?$vector@UPlayer_list_data@@V?$allocator@UPlayer_list_data@@@std@@@std@@QAE@XZ 10068df0 f i configs.obj
 0001:00067e80       ??$emplace_back@PAVC_ConfigItem@C_ConfigManager@@@?$vector@PAVC_ConfigItem@C_ConfigManager@@V?$allocator@PAVC_ConfigItem@C_ConfigManager@@@std@@@std@@QAEAAPAVC_ConfigItem@C_ConfigManager@@$$QAPAV23@@Z 10068e80 f i configs.obj
 0001:00067f00       ??$_Emplace_back_with_unused_capacity@PAVC_ConfigItem@C_ConfigManager@@@?$vector@PAVC_ConfigItem@C_ConfigManager@@V?$allocator@PAVC_ConfigItem@C_ConfigManager@@@std@@@std@@AAEAAPAVC_ConfigItem@C_ConfigManager@@$$QAPAV23@@Z 10068f00 f i configs.obj
 0001:00067fa0       ??1?$vector@PAVC_ConfigItem@C_ConfigManager@@V?$allocator@PAVC_ConfigItem@C_ConfigManager@@@std@@@std@@QAE@XZ 10068fa0 f i configs.obj
 0001:00068030       ?clear@?$vector@HV?$allocator@H@std@@@std@@QAEXXZ 10069030 f i configs.obj
 0001:000680d0       ??$emplace_back@H@?$vector@HV?$allocator@H@std@@@std@@QAEAAH$$QAH@Z 100690d0 f i configs.obj
 0001:00068150       ??$_Emplace_back_with_unused_capacity@H@?$vector@HV?$allocator@H@std@@@std@@AAEAAH$$QAH@Z 10069150 f i configs.obj
 0001:000681f0       ??R?$hash@V?$basic_string@DU?$char_traits@D@std@@V?$allocator@D@2@@std@@@std@@QBEIABV?$basic_string@DU?$char_traits@D@std@@V?$allocator@D@2@@1@@Z 100691f0 f i configs.obj
 0001:000682b0       ?compare@?$basic_string@DU?$char_traits@D@std@@V?$allocator@D@2@@std@@QBEHABV12@@Z 100692b0 f i configs.obj
 0001:00068430       ?front@?$basic_string@DU?$char_traits@D@std@@V?$allocator@D@2@@std@@QAEAADXZ 10069430 f i configs.obj
 0001:00068520       ?push_back@?$basic_string@DU?$char_traits@D@std@@V?$allocator@D@2@@std@@QAEXD@Z 10069520 f i configs.obj
 0001:000685a0       ??A?$basic_string@DU?$char_traits@D@std@@V?$allocator@D@2@@std@@QAEAADI@Z 100695a0 f i configs.obj
 0001:00068690       ??0?$basic_string@DU?$char_traits@D@std@@V?$allocator@D@2@@std@@QAE@ID@Z 10069690 f i configs.obj
 0001:00068790       ??_E?$basic_ifstream@DU?$char_traits@D@std@@@std@@UAEPAXI@Z 10069790 f i * CIL library *:* CIL module *
 0001:00068790       ??_G?$basic_ifstream@DU?$char_traits@D@std@@@std@@UAEPAXI@Z 10069790 f i configs.obj
 0001:000687f0       ??_E?$basic_filebuf@DU?$char_traits@D@std@@@std@@UAEPAXI@Z 100697f0 f i * CIL library *:* CIL module *
 0001:000687f0       ??_G?$basic_filebuf@DU?$char_traits@D@std@@@std@@UAEPAXI@Z 100697f0 f i configs.obj
 0001:00068820       ?_Set_back@?$basic_filebuf@DU?$char_traits@D@std@@@std@@AAEXXZ 10069820 f i configs.obj
 0001:000688b0       ?_Reset_back@?$basic_filebuf@DU?$char_traits@D@std@@@std@@AAEXXZ 100698b0 f i configs.obj
 0001:00068920       ?_Endwrite@?$basic_filebuf@DU?$char_traits@D@std@@@std@@IAE_NXZ 10069920 f i configs.obj
 0001:00068a60       ?_Init@?$basic_filebuf@DU?$char_traits@D@std@@@std@@IAEXPAU_iobuf@@W4_Initfl@12@@Z 10069a60 f i configs.obj
 0001:00068b70       ?close@?$basic_filebuf@DU?$char_traits@D@std@@@std@@QAEPAV12@XZ 10069b70 f i configs.obj
 0001:00068be0       ?_Compat@?$_Array_const_iterator@Uitem_setting@@$0CE@@std@@QBEXABV12@@Z 10069be0 f i configs.obj
 0001:00068c80       ?_Tidy@?$_Hash_vec@V?$allocator@V?$_List_unchecked_iterator@V?$_List_val@U?$_List_simple_types@U?$pair@$$CBV?$basic_string@DU?$char_traits@D@std@@V?$allocator@D@2@@std@@$$BY03M@std@@@std@@@std@@@std@@@std@@@std@@QAEXXZ 10069c80 f i configs.obj
 0001:00068d30       ??0?$_Hash@V?$_Umap_traits@V?$basic_string@DU?$char_traits@D@std@@V?$allocator@D@2@@std@@$$BY03MV?$_Uhash_compare@V?$basic_string@DU?$char_traits@D@std@@V?$allocator@D@2@@std@@U?$hash@V?$basic_string@DU?$char_traits@D@std@@V?$allocator@D@2@@std@@@2@U?$equal_to@V?$basic_string@DU?$char_traits@D@std@@V?$allocator@D@2@@std@@@2@@2@V?$allocator@U?$pair@$$CBV?$basic_string@DU?$char_traits@D@std@@V?$allocator@D@2@@std@@$$BY03M@std@@@2@$0A@@std@@@std@@IAE@ABV?$_Uhash_compare@V?$basic_string@DU?$char_traits@D@std@@V?$allocator@D@2@@std@@U?$hash@V?$basic_string@DU?$char_traits@D@std@@V?$allocator@D@2@@std@@@2@U?$equal_to@V?$basic_string@DU?$char_traits@D@std@@V?$allocator@D@2@@std@@@2@@1@ABV?$allocator@U?$pair@$$CBV?$basic_string@DU?$char_traits@D@std@@V?$allocator@D@2@@std@@$$BY03M@std@@@1@@Z 10069d30 f i configs.obj
 0001:00068e50       ?_Tidy@?$list@U?$pair@$$CBV?$basic_string@DU?$char_traits@D@std@@V?$allocator@D@2@@std@@$$BY03M@std@@V?$allocator@U?$pair@$$CBV?$basic_string@DU?$char_traits@D@std@@V?$allocator@D@2@@std@@$$BY03M@std@@@2@@std@@AAEXXZ 10069e50 f i configs.obj
 0001:00068f30       ?_Tidy@?$vector@UPlayer_list_data@@V?$allocator@UPlayer_list_data@@@std@@@std@@AAEXXZ 10069f30 f i configs.obj
 0001:00069030       ?_Orphan_range@?$vector@PAVC_ConfigItem@C_ConfigManager@@V?$allocator@PAVC_ConfigItem@C_ConfigManager@@@std@@@std@@ABEXPAPAVC_ConfigItem@C_ConfigManager@@0@Z 1006a030 f i configs.obj
 0001:000690c0       ?_Tidy@?$vector@PAVC_ConfigItem@C_ConfigManager@@V?$allocator@PAVC_ConfigItem@C_ConfigManager@@@std@@@std@@AAEXXZ 1006a0c0 f i configs.obj
 0001:000691c0       ?_Eos@?$basic_string@DU?$char_traits@D@std@@V?$allocator@D@2@@std@@AAEXI@Z 1006a1c0 f i configs.obj
 0001:00069210       ?assign@?$basic_string@DU?$char_traits@D@std@@V?$allocator@D@2@@std@@QAEAAV12@ID@Z 1006a210 f i configs.obj
 0001:00069290       ?open@?$basic_filebuf@DU?$char_traits@D@std@@@std@@QAEPAV12@PBDHH@Z 1006a290 f i configs.obj
 0001:00069380       ??C?$_Array_const_iterator@Uitem_setting@@$0CE@@std@@QBEPBUitem_setting@@XZ 1006a380 f i configs.obj
 0001:00069480       ?_Assign_grow@?$_Hash_vec@V?$allocator@V?$_List_unchecked_iterator@V?$_List_val@U?$_List_simple_types@U?$pair@$$CBV?$basic_string@DU?$char_traits@D@std@@V?$allocator@D@2@@std@@$$BY03M@std@@@std@@@std@@@std@@@std@@@std@@QAEXIV?$_List_unchecked_iterator@V?$_List_val@U?$_List_simple_types@U?$pair@$$CBV?$basic_string@DU?$char_traits@D@std@@V?$allocator@D@2@@std@@$$BY03M@std@@@std@@@std@@@2@@Z 1006a480 f i configs.obj
 0001:000695b0       ?_Destroy@?$vector@UPlayer_list_data@@V?$allocator@UPlayer_list_data@@@std@@@std@@AAEXPAUPlayer_list_data@@0@Z 1006a5b0 f i configs.obj
 0001:000695f0       ?deallocate@?$allocator@UPlayer_list_data@@@std@@QAEXQAUPlayer_list_data@@I@Z 1006a5f0 f i configs.obj
 0001:00069620       ?_Destroy@?$vector@PAVC_ConfigItem@C_ConfigManager@@V?$allocator@PAVC_ConfigItem@C_ConfigManager@@@std@@@std@@AAEXPAPAVC_ConfigItem@C_ConfigManager@@0@Z 1006a620 f i configs.obj
 0001:00069660       ?deallocate@?$allocator@PAVC_ConfigItem@C_ConfigManager@@@std@@QAEXQAPAVC_ConfigItem@C_ConfigManager@@I@Z 1006a660 f i configs.obj
 0001:00069690       ??0?$_List_unchecked_const_iterator@V?$_List_val@U?$_List_simple_types@U?$pair@$$CBV?$basic_string@DU?$char_traits@D@std@@V?$allocator@D@2@@std@@$$BY03M@std@@@std@@@std@@U_Iterator_base0@2@@std@@QAE@PAU?$_List_node@U?$pair@$$CBV?$basic_string@DU?$char_traits@D@std@@V?$allocator@D@2@@std@@$$BY03M@std@@PAX@1@PBV?$_List_val@U?$_List_simple_types@U?$pair@$$CBV?$basic_string@DU?$char_traits@D@std@@V?$allocator@D@2@@std@@$$BY03M@std@@@std@@@1@@Z 1006a690 f i configs.obj
 0001:000696e0       ?_Alloc_sentinel_and_proxy@?$list@U?$pair@$$CBV?$basic_string@DU?$char_traits@D@std@@V?$allocator@D@2@@std@@$$BY03M@std@@V?$allocator@U?$pair@$$CBV?$basic_string@DU?$char_traits@D@std@@V?$allocator@D@2@@std@@$$BY03M@std@@@2@@std@@AAEXXZ 1006a6e0 f i configs.obj
 0001:000697e0       ??$_Hash_array_representation@D@std@@YAIQBDI@Z 1006a7e0 f i configs.obj
 0001:00069860       ??$?MDU?$char_traits@D@std@@V?$allocator@D@1@@std@@YA_NABV?$basic_string@DU?$char_traits@D@std@@V?$allocator@D@2@@0@0@Z 1006a860 f i configs.obj
 0001:00069980       ??$use_facet@V?$codecvt@DDU_Mbstatet@@@std@@@std@@YAABV?$codecvt@DDU_Mbstatet@@@0@ABVlocale@0@@Z 1006a980 f i configs.obj
 0001:00069ac0       ??$_Try_emplace@ABV?$basic_string@DU?$char_traits@D@std@@V?$allocator@D@2@@std@@$$V@?$_Hash@V?$_Umap_traits@V?$basic_string@DU?$char_traits@D@std@@V?$allocator@D@2@@std@@$$BY03MV?$_Uhash_compare@V?$basic_string@DU?$char_traits@D@std@@V?$allocator@D@2@@std@@U?$hash@V?$basic_string@DU?$char_traits@D@std@@V?$allocator@D@2@@std@@@2@U?$equal_to@V?$basic_string@DU?$char_traits@D@std@@V?$allocator@D@2@@std@@@2@@2@V?$allocator@U?$pair@$$CBV?$basic_string@DU?$char_traits@D@std@@V?$allocator@D@2@@std@@$$BY03M@std@@@2@$0A@@std@@@std@@IAE?AU?$pair@PAU?$_List_node@U?$pair@$$CBV?$basic_string@DU?$char_traits@D@std@@V?$allocator@D@2@@std@@$$BY03M@std@@PAX@std@@_N@1@ABV?$basic_string@DU?$char_traits@D@std@@V?$allocator@D@2@@1@@Z 1006aac0 f i configs.obj
 0001:00069cd0       ??$_Find_last@V?$basic_string@DU?$char_traits@D@std@@V?$allocator@D@2@@std@@@?$_Hash@V?$_Umap_traits@V?$basic_string@DU?$char_traits@D@std@@V?$allocator@D@2@@std@@$$BY03MV?$_Uhash_compare@V?$basic_string@DU?$char_traits@D@std@@V?$allocator@D@2@@std@@U?$hash@V?$basic_string@DU?$char_traits@D@std@@V?$allocator@D@2@@std@@@2@U?$equal_to@V?$basic_string@DU?$char_traits@D@std@@V?$allocator@D@2@@std@@@2@@2@V?$allocator@U?$pair@$$CBV?$basic_string@DU?$char_traits@D@std@@V?$allocator@D@2@@std@@$$BY03M@std@@@2@$0A@@std@@@std@@IBE?AU?$_Hash_find_last_result@PAU?$_List_node@U?$pair@$$CBV?$basic_string@DU?$char_traits@D@std@@V?$allocator@D@2@@std@@$$BY03M@std@@PAX@std@@@1@ABV?$basic_string@DU?$char_traits@D@std@@V?$allocator@D@2@@1@I@Z 1006acd0 f i configs.obj
 0001:00069de0       ??$_Emplace_reallocate@PAVC_ConfigItem@C_ConfigManager@@@?$vector@PAVC_ConfigItem@C_ConfigManager@@V?$allocator@PAVC_ConfigItem@C_ConfigManager@@@std@@@std@@QAEPAPAVC_ConfigItem@C_ConfigManager@@QAPAV23@$$QAPAV23@@Z 1006ade0 f i configs.obj
 0001:0006a0d0       ??$_Emplace_reallocate@H@?$vector@HV?$allocator@H@std@@@std@@QAEPAHQAH$$QAH@Z 1006b0d0 f i configs.obj
 0001:0006a3c0       ??$_Reallocate_grow_by@V<lambda_1>@?1??push_back@?$basic_string@DU?$char_traits@D@std@@V?$allocator@D@2@@std@@QAEXD@Z@D@?$basic_string@DU?$char_traits@D@std@@V?$allocator@D@2@@std@@AAEAAV01@IV<lambda_1>@?1??push_back@01@QAEXD@Z@D@Z 1006b3c0 f i configs.obj
 0001:0006a540       ??$_Destroy_range@V?$allocator@PAVC_ConfigItem@C_ConfigManager@@@std@@@std@@YAXPAPAVC_ConfigItem@C_ConfigManager@@QAPAV12@AAV?$allocator@PAVC_ConfigItem@C_ConfigManager@@@0@@Z 1006b540 f i configs.obj
 0001:0006a540       ??$_Destroy_in_place@PAU?$_List_node@U?$pair@$$CBV?$basic_string@DU?$char_traits@D@std@@V?$allocator@D@2@@std@@$$BY03M@std@@PAX@std@@@std@@YAXAAPAU?$_List_node@U?$pair@$$CBV?$basic_string@DU?$char_traits@D@std@@V?$allocator@D@2@@std@@$$BY03M@std@@PAX@0@@Z 1006b540 f i configs.obj
 0001:0006a540       ??$_Destroy_range@PAV?$_List_unchecked_iterator@V?$_List_val@U?$_List_simple_types@U?$pair@$$CBV?$basic_string@DU?$char_traits@D@std@@V?$allocator@D@2@@std@@$$BY03M@std@@@std@@@std@@@std@@@std@@YAXPAV?$_List_unchecked_iterator@V?$_List_val@U?$_List_simple_types@U?$pair@$$CBV?$basic_string@DU?$char_traits@D@std@@V?$allocator@D@2@@std@@$$BY03M@std@@@std@@@std@@@0@QAV10@@Z 1006b540 f i configs.obj
 0001:0006a580       ??$?0ABV?$allocator@U?$pair@$$CBV?$basic_string@DU?$char_traits@D@std@@V?$allocator@D@2@@std@@$$BY03M@std@@@std@@$0A@@?$_Hash_vec@V?$allocator@V?$_List_unchecked_iterator@V?$_List_val@U?$_List_simple_types@U?$pair@$$CBV?$basic_string@DU?$char_traits@D@std@@V?$allocator@D@2@@std@@$$BY03M@std@@@std@@@std@@@std@@@std@@@std@@QAE@ABV?$allocator@U?$pair@$$CBV?$basic_string@DU?$char_traits@D@std@@V?$allocator@D@2@@std@@$$BY03M@std@@@1@@Z 1006b580 f i configs.obj
 0001:0006a630       ??$_Freenode@V?$allocator@U?$_List_node@U?$pair@$$CBV?$basic_string@DU?$char_traits@D@std@@V?$allocator@D@2@@std@@$$BY03M@std@@PAX@std@@@std@@@?$_List_node@U?$pair@$$CBV?$basic_string@DU?$char_traits@D@std@@V?$allocator@D@2@@std@@$$BY03M@std@@PAX@std@@SAXAAV?$allocator@U?$_List_node@U?$pair@$$CBV?$basic_string@DU?$char_traits@D@std@@V?$allocator@D@2@@std@@$$BY03M@std@@PAX@std@@@1@PAU01@@Z 1006b630 f i configs.obj
 0001:0006a6c0       ??$_Reallocate_for@V<lambda_1>@?1??assign@?$basic_string@DU?$char_traits@D@std@@V?$allocator@D@2@@std@@QAEAAV34@ID@Z@D@?$basic_string@DU?$char_traits@D@std@@V?$allocator@D@2@@std@@AAEAAV01@IV<lambda_1>@?1??assign@01@QAEAAV01@ID@Z@D@Z 1006b6c0 f i configs.obj
 0001:0006a7c0       ??$uninitialized_fill@PAV?$_List_unchecked_iterator@V?$_List_val@U?$_List_simple_types@U?$pair@$$CBV?$basic_string@DU?$char_traits@D@std@@V?$allocator@D@2@@std@@$$BY03M@std@@@std@@@std@@@std@@V12@@std@@YAXQAV?$_List_unchecked_iterator@V?$_List_val@U?$_List_simple_types@U?$pair@$$CBV?$basic_string@DU?$char_traits@D@std@@V?$allocator@D@2@@std@@$$BY03M@std@@@std@@@std@@@0@0ABV10@@Z 1006b7c0 f i configs.obj
 0001:0006a850       ??$_Destroy_range@V?$allocator@UPlayer_list_data@@@std@@@std@@YAXPAUPlayer_list_data@@QAU1@AAV?$allocator@UPlayer_list_data@@@0@@Z 1006b850 f i configs.obj
 0001:0006a8d0       ??$_Construct_in_place@PAU?$_List_node@U?$pair@$$CBV?$basic_string@DU?$char_traits@D@std@@V?$allocator@D@2@@std@@$$BY03M@std@@PAX@std@@AAPAU12@@std@@YAXAAPAU?$_List_node@U?$pair@$$CBV?$basic_string@DU?$char_traits@D@std@@V?$allocator@D@2@@std@@$$BY03M@std@@PAX@0@0@Z 1006b8d0 f i configs.obj
 0001:0006a8d0       ??$_Construct_in_place@PAU?$_List_node@U?$pair@$$CBV?$basic_string@DU?$char_traits@D@std@@V?$allocator@D@2@@std@@$$BY03M@std@@PAX@std@@ABQAU12@@std@@YAXAAPAU?$_List_node@U?$pair@$$CBV?$basic_string@DU?$char_traits@D@std@@V?$allocator@D@2@@std@@$$BY03M@std@@PAX@0@ABQAU10@@Z 1006b8d0 f i configs.obj
 0001:0006a930       ??1?$_List_node_emplace_op2@V?$allocator@U?$_List_node@U?$pair@$$CBV?$basic_string@DU?$char_traits@D@std@@V?$allocator@D@2@@std@@$$BY03M@std@@PAX@std@@@std@@@std@@QAE@XZ 1006b930 f i configs.obj
 0001:0006a9e0       ??1?$unique_ptr@V_Facet_base@std@@U?$default_delete@V_Facet_base@std@@@2@@std@@QAE@XZ 1006b9e0 f i configs.obj
 0001:0006aa70       ?_Rehash_for_1@?$_Hash@V?$_Umap_traits@V?$basic_string@DU?$char_traits@D@std@@V?$allocator@D@2@@std@@$$BY03MV?$_Uhash_compare@V?$basic_string@DU?$char_traits@D@std@@V?$allocator@D@2@@std@@U?$hash@V?$basic_string@DU?$char_traits@D@std@@V?$allocator@D@2@@std@@@2@U?$equal_to@V?$basic_string@DU?$char_traits@D@std@@V?$allocator@D@2@@std@@@2@@2@V?$allocator@U?$pair@$$CBV?$basic_string@DU?$char_traits@D@std@@V?$allocator@D@2@@std@@$$BY03M@std@@@2@$0A@@std@@@std@@IAEXXZ 1006ba70 f i configs.obj
 0001:0006aab0       ?_Check_rehash_required_1@?$_Hash@V?$_Umap_traits@V?$basic_string@DU?$char_traits@D@std@@V?$allocator@D@2@@std@@$$BY03MV?$_Uhash_compare@V?$basic_string@DU?$char_traits@D@std@@V?$allocator@D@2@@std@@U?$hash@V?$basic_string@DU?$char_traits@D@std@@V?$allocator@D@2@@std@@@2@U?$equal_to@V?$basic_string@DU?$char_traits@D@std@@V?$allocator@D@2@@std@@@2@@2@V?$allocator@U?$pair@$$CBV?$basic_string@DU?$char_traits@D@std@@V?$allocator@D@2@@std@@$$BY03M@std@@@2@$0A@@std@@@std@@IBE_NXZ 1006bab0 f i configs.obj
 0001:0006ab90       ?_Check_max_size@?$_Hash@V?$_Umap_traits@V?$basic_string@DU?$char_traits@D@std@@V?$allocator@D@2@@std@@$$BY03MV?$_Uhash_compare@V?$basic_string@DU?$char_traits@D@std@@V?$allocator@D@2@@std@@U?$hash@V?$basic_string@DU?$char_traits@D@std@@V?$allocator@D@2@@std@@@2@U?$equal_to@V?$basic_string@DU?$char_traits@D@std@@V?$allocator@D@2@@std@@@2@@2@V?$allocator@U?$pair@$$CBV?$basic_string@DU?$char_traits@D@std@@V?$allocator@D@2@@std@@$$BY03M@std@@@2@$0A@@std@@@std@@IBEXXZ 1006bb90 f i configs.obj
 0001:0006ac10       ?_Insert_new_node_before@?$_Hash@V?$_Umap_traits@V?$basic_string@DU?$char_traits@D@std@@V?$allocator@D@2@@std@@$$BY03MV?$_Uhash_compare@V?$basic_string@DU?$char_traits@D@std@@V?$allocator@D@2@@std@@U?$hash@V?$basic_string@DU?$char_traits@D@std@@V?$allocator@D@2@@std@@@2@U?$equal_to@V?$basic_string@DU?$char_traits@D@std@@V?$allocator@D@2@@std@@@2@@2@V?$allocator@U?$pair@$$CBV?$basic_string@DU?$char_traits@D@std@@V?$allocator@D@2@@std@@$$BY03M@std@@@2@$0A@@std@@@std@@IAEPAU?$_List_node@U?$pair@$$CBV?$basic_string@DU?$char_traits@D@std@@V?$allocator@D@2@@std@@$$BY03M@std@@PAX@2@IQAU32@0@Z 1006bc10 f i configs.obj
 0001:0006ad20       ?_Xlength@?$vector@PAVC_ConfigItem@C_ConfigManager@@V?$allocator@PAVC_ConfigItem@C_ConfigManager@@@std@@@std@@CAXXZ 1006bd20 f i configs.obj
 0001:0006ad40       ?_Change_array@?$vector@PAVC_ConfigItem@C_ConfigManager@@V?$allocator@PAVC_ConfigItem@C_ConfigManager@@@std@@@std@@AAEXQAPAVC_ConfigItem@C_ConfigManager@@II@Z 1006bd40 f i configs.obj
 0001:0006ae20       ?_Calculate_growth@?$vector@PAVC_ConfigItem@C_ConfigManager@@V?$allocator@PAVC_ConfigItem@C_ConfigManager@@@std@@@std@@ABEII@Z 1006be20 f i configs.obj
 0001:0006aed0       ??1?$_Alloc_construct_ptr@V?$allocator@U?$_List_node@U?$pair@$$CBV?$basic_string@DU?$char_traits@D@std@@V?$allocator@D@2@@std@@$$BY03M@std@@PAX@std@@@std@@@std@@QAE@XZ 1006bed0 f i configs.obj
 0001:0006af50       ?_Forced_rehash@?$_Hash@V?$_Umap_traits@V?$basic_string@DU?$char_traits@D@std@@V?$allocator@D@2@@std@@$$BY03MV?$_Uhash_compare@V?$basic_string@DU?$char_traits@D@std@@V?$allocator@D@2@@std@@U?$hash@V?$basic_string@DU?$char_traits@D@std@@V?$allocator@D@2@@std@@@2@U?$equal_to@V?$basic_string@DU?$char_traits@D@std@@V?$allocator@D@2@@std@@@2@@2@V?$allocator@U?$pair@$$CBV?$basic_string@DU?$char_traits@D@std@@V?$allocator@D@2@@std@@$$BY03M@std@@@2@$0A@@std@@@std@@IAEXI@Z 1006bf50 f i configs.obj
 0001:0006b510       ?_Desired_grow_bucket_count@?$_Hash@V?$_Umap_traits@V?$basic_string@DU?$char_traits@D@std@@V?$allocator@D@2@@std@@$$BY03MV?$_Uhash_compare@V?$basic_string@DU?$char_traits@D@std@@V?$allocator@D@2@@std@@U?$hash@V?$basic_string@DU?$char_traits@D@std@@V?$allocator@D@2@@std@@@2@U?$equal_to@V?$basic_string@DU?$char_traits@D@std@@V?$allocator@D@2@@std@@@2@@2@V?$allocator@U?$pair@$$CBV?$basic_string@DU?$char_traits@D@std@@V?$allocator@D@2@@std@@$$BY03M@std@@@2@$0A@@std@@@std@@IBEII@Z 1006c510 f i configs.obj
 0001:0006b630       ?_Buy_raw@?$vector@HV?$allocator@H@std@@@std@@AAEXI@Z 1006c630 f i configs.obj
 0001:0006b6d0       ?clear@?$_Hash@V?$_Umap_traits@V?$basic_string@DU?$char_traits@D@std@@V?$allocator@D@2@@std@@$$BY03MV?$_Uhash_compare@V?$basic_string@DU?$char_traits@D@std@@V?$allocator@D@2@@std@@U?$hash@V?$basic_string@DU?$char_traits@D@std@@V?$allocator@D@2@@std@@@2@U?$equal_to@V?$basic_string@DU?$char_traits@D@std@@V?$allocator@D@2@@std@@@2@@2@V?$allocator@U?$pair@$$CBV?$basic_string@DU?$char_traits@D@std@@V?$allocator@D@2@@std@@$$BY03M@std@@@2@$0A@@std@@@std@@QAEXXZ 1006c6d0 f i configs.obj
 0001:0006b7e0       ?_Unchecked_erase@?$_Hash@V?$_Umap_traits@V?$basic_string@DU?$char_traits@D@std@@V?$allocator@D@2@@std@@$$BY03MV?$_Uhash_compare@V?$basic_string@DU?$char_traits@D@std@@V?$allocator@D@2@@std@@U?$hash@V?$basic_string@DU?$char_traits@D@std@@V?$allocator@D@2@@std@@@2@U?$equal_to@V?$basic_string@DU?$char_traits@D@std@@V?$allocator@D@2@@std@@@2@@2@V?$allocator@U?$pair@$$CBV?$basic_string@DU?$char_traits@D@std@@V?$allocator@D@2@@std@@$$BY03M@std@@@2@$0A@@std@@@std@@AAEPAU?$_List_node@U?$pair@$$CBV?$basic_string@DU?$char_traits@D@std@@V?$allocator@D@2@@std@@$$BY03M@std@@PAX@2@PAU32@QAU32@@Z 1006c7e0 f i configs.obj
 0001:0006ba90       ?clear@?$list@U?$pair@$$CBV?$basic_string@DU?$char_traits@D@std@@V?$allocator@D@2@@std@@$$BY03M@std@@V?$allocator@U?$pair@$$CBV?$basic_string@DU?$char_traits@D@std@@V?$allocator@D@2@@std@@$$BY03M@std@@@2@@std@@QAEXXZ 1006ca90 f i configs.obj
 0001:0006bb60       ?_Orphan_non_end@?$_List_val@U?$_List_simple_types@U?$pair@$$CBV?$basic_string@DU?$char_traits@D@std@@V?$allocator@D@2@@std@@$$BY03M@std@@@std@@@std@@QAEXXZ 1006cb60 f i configs.obj
 0001:0006bc10       ?_Unchecked_erase@?$list@U?$pair@$$CBV?$basic_string@DU?$char_traits@D@std@@V?$allocator@D@2@@std@@$$BY03M@std@@V?$allocator@U?$pair@$$CBV?$basic_string@DU?$char_traits@D@std@@V?$allocator@D@2@@std@@$$BY03M@std@@@2@@std@@AAEPAU?$_List_node@U?$pair@$$CBV?$basic_string@DU?$char_traits@D@std@@V?$allocator@D@2@@std@@$$BY03M@std@@PAX@2@PAU32@QAU32@@Z 1006cc10 f i configs.obj
 0001:0006bd80       ??$?0ABUpiecewise_construct_t@std@@V?$tuple@ABV?$basic_string@DU?$char_traits@D@std@@V?$allocator@D@2@@std@@@1@V?$tuple@$$V@1@@?$_List_node_emplace_op2@V?$allocator@U?$_List_node@U?$pair@$$CBV?$basic_string@DU?$char_traits@D@std@@V?$allocator@D@2@@std@@$$BY03M@std@@PAX@std@@@std@@@std@@QAE@AAV?$allocator@U?$_List_node@U?$pair@$$CBV?$basic_string@DU?$char_traits@D@std@@V?$allocator@D@2@@std@@$$BY03M@std@@PAX@std@@@1@ABUpiecewise_construct_t@1@$$QAV?$tuple@ABV?$basic_string@DU?$char_traits@D@std@@V?$allocator@D@2@@std@@@1@$$QAV?$tuple@$$V@1@@Z 1006cd80 f i configs.obj
 0001:0006be50       ??$_Uninitialized_move@PAPAVC_ConfigItem@C_ConfigManager@@V?$allocator@PAVC_ConfigItem@C_ConfigManager@@@std@@@std@@YAPAPAVC_ConfigItem@C_ConfigManager@@QAPAV12@0PAPAV12@AAV?$allocator@PAVC_ConfigItem@C_ConfigManager@@@0@@Z 1006ce50 f i configs.obj
 0001:0006bea0       ?_Allocate@?$_Alloc_construct_ptr@V?$allocator@U?$_List_node@U?$pair@$$CBV?$basic_string@DU?$char_traits@D@std@@V?$allocator@D@2@@std@@$$BY03M@std@@PAX@std@@@std@@@std@@QAEXXZ 1006cea0 f i configs.obj
 0001:0006bf10       ??$construct@U?$pair@$$CBV?$basic_string@DU?$char_traits@D@std@@V?$allocator@D@2@@std@@$$BY03M@std@@ABUpiecewise_construct_t@2@V?$tuple@ABV?$basic_string@DU?$char_traits@D@std@@V?$allocator@D@2@@std@@@2@V?$tuple@$$V@2@@?$_Default_allocator_traits@V?$allocator@U?$_List_node@U?$pair@$$CBV?$basic_string@DU?$char_traits@D@std@@V?$allocator@D@2@@std@@$$BY03M@std@@PAX@std@@@std@@@std@@SAXAAV?$allocator@U?$_List_node@U?$pair@$$CBV?$basic_string@DU?$char_traits@D@std@@V?$allocator@D@2@@std@@$$BY03M@std@@PAX@std@@@1@QAU?$pair@$$CBV?$basic_string@DU?$char_traits@D@std@@V?$allocator@D@2@@std@@$$BY03M@1@ABUpiecewise_construct_t@1@$$QAV?$tuple@ABV?$basic_string@DU?$char_traits@D@std@@V?$allocator@D@2@@std@@@1@$$QAV?$tuple@$$V@1@@Z 1006cf10 f i configs.obj
 0001:0006bf70       ??$_Copy_memmove@PBHPAH@std@@YAPAHPBH0PAH@Z 1006cf70 f i configs.obj
 0001:0006bf70       ??$_Copy_memmove@PAPAVC_ConfigItem@C_ConfigManager@@PAPAV12@@std@@YAPAPAVC_ConfigItem@C_ConfigManager@@PAPAV12@00@Z 1006cf70 f i configs.obj
 0001:0006bfe0       ??$_Verify_range@V?$_List_unchecked_iterator@V?$_List_val@U?$_List_simple_types@U?$pair@$$CBV?$basic_string@DU?$char_traits@D@std@@V?$allocator@D@2@@std@@$$BY03M@std@@@std@@@std@@@std@@@std@@YAXQBV?$_List_unchecked_iterator@V?$_List_val@U?$_List_simple_types@U?$pair@$$CBV?$basic_string@DU?$char_traits@D@std@@V?$allocator@D@2@@std@@$$BY03M@std@@@std@@@std@@@0@0@Z 1006cfe0 f i configs.obj
 0001:0006c070       ??$_Construct_in_place@V?$_List_unchecked_iterator@V?$_List_val@U?$_List_simple_types@U?$pair@$$CBV?$basic_string@DU?$char_traits@D@std@@V?$allocator@D@2@@std@@$$BY03M@std@@@std@@@std@@@std@@ABV12@@std@@YAXAAV?$_List_unchecked_iterator@V?$_List_val@U?$_List_simple_types@U?$pair@$$CBV?$basic_string@DU?$char_traits@D@std@@V?$allocator@D@2@@std@@$$BY03M@std@@@std@@@std@@@0@ABV10@@Z 1006d070 f i configs.obj
 0001:0006c0d0       ?_Verify_with@?$_Array_const_iterator@Uitem_setting@@$0CE@@std@@QBEXABV12@@Z 1006d0d0 f i configs.obj
 0001:0006c1c0       ??$?0ABV?$basic_string@DU?$char_traits@D@std@@V?$allocator@D@2@@std@@$$Z$$V@?$pair@$$CBV?$basic_string@DU?$char_traits@D@std@@V?$allocator@D@2@@std@@$$BY03M@std@@QAE@Upiecewise_construct_t@1@V?$tuple@ABV?$basic_string@DU?$char_traits@D@std@@V?$allocator@D@2@@std@@@1@V?$tuple@$$V@1@@Z 1006d1c0 f i configs.obj
 0001:0006c200       ??$?0V?$tuple@ABV?$basic_string@DU?$char_traits@D@std@@V?$allocator@D@2@@std@@@std@@V?$tuple@$$V@1@$0A@$$Z$S@?$pair@$$CBV?$basic_string@DU?$char_traits@D@std@@V?$allocator@D@2@@std@@$$BY03M@std@@QAE@AAV?$tuple@ABV?$basic_string@DU?$char_traits@D@std@@V?$allocator@D@2@@std@@@1@AAV?$tuple@$$V@1@U?$integer_sequence@I$0A@@1@U?$integer_sequence@I$S@1@@Z 1006d200 f i configs.obj
 0001:0006c24f       ??_E?$basic_ifstream@DU?$char_traits@D@std@@@std@@$4PPPPPPPM@A@AEPAXI@Z 1006d24f f i configs.obj
 0001:0006c260       ?GetEventDebugID@IGameEventListener2@@UAEHXZ 1006d260 f i hooks.obj
 0001:0006c280       ??_EIGameEventListener2@@UAEPAXI@Z 1006d280 f i * CIL library *:* CIL module *
 0001:0006c280       ??_GC_HookedEvents@@UAEPAXI@Z 1006d280 f i hooks.obj
 0001:0006c280       ??_GIGameEventListener2@@UAEPAXI@Z 1006d280 f i hooks.obj
 0001:0006c280       ??_EC_HookedEvents@@UAEPAXI@Z 1006d280 f i * CIL library *:* CIL module *
 0001:0006c2b0       ?Hooked_WndProc@hooks@@YGJPAUHWND__@@IIJ@Z 1006d2b0 f   hooks.obj
 0001:0006c530       ?Hooked_EndScene@hooks@@YGJPAUIDirect3DDevice9@@@Z 1006d530 f   hooks.obj
 0001:0006c5e0       ?hooked_present@hooks@@YGJPAUIDirect3DDevice9@@PAUtagRECT@@1PAUHWND__@@PAU_RGNDATA@@@Z 1006d5e0 f   hooks.obj
 0001:0006c790       ?Hooked_EndScene_Reset@hooks@@YGJPAUIDirect3DDevice9@@PAU_D3DPRESENT_PARAMETERS_@@@Z 1006d790 f   hooks.obj
 0001:0006c880       ?hooked_setkeycodestate@hooks@@YIXPAX0W4ButtonCode_t@@_N@Z 1006d880 f   hooks.obj
 0001:0006c970       ?hooked_setmousecodestate@hooks@@YIXPAX0W4ButtonCode_t@@W4MouseCodeState_t@@@Z 1006d970 f   hooks.obj
 0001:0006ca60       ?hooked_beginframe@hooks@@YIXPAX0M@Z 1006da60 f   hooked_beginframe.obj
 0001:0006cb20       ?getforeignfallbackfontname_detour@hooks@@YAPBDPAXI@Z 1006db20 f   hooked_beginframe.obj
 0001:0006cbd0       ?hooked_getforeignfallbackfontname@hooks@@YIPBDPAXI@Z 1006dbd0 f   hooked_beginframe.obj
 0001:0006cc00       ?hooked_createmove@hooks@@YG_NMPAVCUserCmd@@@Z 1006dc00 f   hooked_createmove.obj
 0001:0006e990       ??$emplace_front@$$V@?$deque@Ucorrection_data@@V?$allocator@Ucorrection_data@@@std@@@std@@QAEAAUcorrection_data@@XZ 1006f990 f i hooked_createmove.obj
 0001:0006ec80       ??$emplace_back@AAH@?$vector@HV?$allocator@H@std@@@std@@QAEAAHAAH@Z 1006fc80 f i hooked_createmove.obj
 0001:0006ed00       ??$_Emplace_back_with_unused_capacity@AAH@?$vector@HV?$allocator@H@std@@@std@@AAEAAHAAH@Z 1006fd00 f i hooked_createmove.obj
 0001:0006eda0       ??$emplace_back@$$V@?$deque@Ucommand@@V?$allocator@Ucommand@@@std@@@std@@QAEAAUcommand@@XZ 1006fda0 f i hooked_createmove.obj
 0001:0006f050       ?get@?$singleton@Vzeusbot@@@@SAAAVzeusbot@@XZ 10070050 f i hooked_createmove.obj
 0001:0006f110       ?get@?$singleton@Vknifebot@@@@SAAAVknifebot@@XZ 10070110 f i hooked_createmove.obj
 0001:0006f1d0       ?get@?$singleton@VGrenadePrediction@@@@SAAAVGrenadePrediction@@XZ 100701d0 f i hooked_createmove.obj
 0001:0006f2a0       ?get@?$singleton@Vspammers@@@@SAAAVspammers@@XZ 100702a0 f i hooked_createmove.obj
 0001:0006f310       ?get@?$singleton@Vairstrafe@@@@SAAAVairstrafe@@XZ 10070310 f i hooked_createmove.obj
 0001:0006f380       ?get@?$singleton@Vbunnyhop@@@@SAAAVbunnyhop@@XZ 10070380 f i hooked_createmove.obj
 0001:0006f3f0       ?get@?$singleton@Vlegit_bot@@@@SAAAVlegit_bot@@XZ 100703f0 f i hooked_createmove.obj
 0001:0006f4a0       ?_Growmap@?$deque@Ucommand@@V?$allocator@Ucommand@@@std@@@std@@AAEXI@Z 100704a0 f i hooked_createmove.obj
 0001:0006f4a0       ?_Growmap@?$deque@Ucorrection_data@@V?$allocator@Ucorrection_data@@@std@@@std@@AAEXI@Z 100704a0 f i hooked_createmove.obj
 0001:0006f9b0       ?pop_back@?$deque@Ucorrection_data@@V?$allocator@Ucorrection_data@@@std@@@std@@QAEXXZ 100709b0 f i hooked_createmove.obj
 0001:0006fb60       ?front@?$deque@Ucorrection_data@@V?$allocator@Ucorrection_data@@@std@@@std@@QAEAAUcorrection_data@@XZ 10070b60 f i hooked_createmove.obj
 0001:0006fcb0       ?pop_front@?$deque@Ucommand@@V?$allocator@Ucommand@@@std@@@std@@QAEXXZ 10070cb0 f i hooked_createmove.obj
 0001:0006fea0       ?back@?$deque@Ucommand@@V?$allocator@Ucommand@@@std@@@std@@QAEAAUcommand@@XZ 10070ea0 f i hooked_createmove.obj
 0001:00070020       ??0legit_bot@@QAE@XZ       10071020 f i hooked_createmove.obj
 0001:000700d0       ??1?$singleton@Vplayeresp@@@@IAE@XZ 100710d0 f i hooked_dme.obj
 0001:000700d0       ??1?$singleton@Vzeusbot@@@@IAE@XZ 100710d0 f i hooked_createmove.obj
 0001:000700d0       ??1?$singleton@Votheresp@@@@IAE@XZ 100710d0 f i hooked_events.obj
 0001:000700d0       ??1?$singleton@Vknifebot@@@@IAE@XZ 100710d0 f i hooked_createmove.obj
 0001:000700d0       ??1?$singleton@Vlagcompensation@@@@IAE@XZ 100710d0 f i hooked_events.obj
 0001:00070110       ??1?$vector@U?$pair@VVector@@VColor@@@std@@V?$allocator@U?$pair@VVector@@VColor@@@std@@@2@@std@@QAE@XZ 10071110 f i hooked_createmove.obj
 0001:000701a0       ??0?$vector@Uimpact_data@bullettracers@@V?$allocator@Uimpact_data@bullettracers@@@std@@@std@@QAE@XZ 100711a0 f i hooked_events.obj
 0001:000701a0       ??0?$vector@VVector@@V?$allocator@VVector@@@std@@@std@@QAE@XZ 100711a0 f i hooked_createmove.obj
 0001:000701a0       ??0?$vector@Uaim_shot@@V?$allocator@Uaim_shot@@@std@@@std@@QAE@XZ 100711a0 f i ctx.obj
 0001:000701a0       ??0?$vector@Um_indicator@@V?$allocator@Um_indicator@@@std@@@std@@QAE@XZ 100711a0 f i hooked_events.obj
 0001:000701a0       ??0?$vector@U?$pair@VVector@@VColor@@@std@@V?$allocator@U?$pair@VVector@@VColor@@@std@@@2@@std@@QAE@XZ 100711a0 f i hooked_createmove.obj
 0001:00070230       ??1?$vector@VVector@@V?$allocator@VVector@@@std@@@std@@QAE@XZ 10071230 f i hooked_createmove.obj
 0001:000702c0       ?_Orphan_off@?$deque@Ucommand@@V?$allocator@Ucommand@@@std@@@std@@ABEXI@Z 100712c0 f i hooked_createmove.obj
 0001:000702c0       ?_Orphan_off@?$deque@Ucorrection_data@@V?$allocator@Ucorrection_data@@@std@@@std@@ABEXI@Z 100712c0 f i hooked_createmove.obj
 0001:000703e0       ?_Xlen@?$deque@Ucorrection_data@@V?$allocator@Ucorrection_data@@@std@@@std@@ABEXXZ 100713e0 f i hooked_createmove.obj
 0001:000703e0       ?_Xlen@?$deque@Ucommand@@V?$allocator@Ucommand@@@std@@@std@@ABEXXZ 100713e0 f i hooked_createmove.obj
 0001:00070400       ??D?$_Deque_unchecked_const_iterator@V?$_Deque_val@U?$_Deque_simple_types@Ucommand@@@std@@@std@@@std@@QBEABUcommand@@XZ 10071400 f i hooked_createmove.obj
 0001:00070460       ?_Tidy@?$vector@U?$pair@VVector@@VColor@@@std@@V?$allocator@U?$pair@VVector@@VColor@@@std@@@2@@std@@AAEXXZ 10071460 f i hooked_createmove.obj
 0001:00070560       ?_Tidy@?$vector@VVector@@V?$allocator@VVector@@@std@@@std@@AAEXXZ 10071560 f i hooked_createmove.obj
 0001:000706a0       ??$_Emplace_reallocate@AAH@?$vector@HV?$allocator@H@std@@@std@@QAEPAHQAHAAH@Z 100716a0 f i hooked_createmove.obj
 0001:00070990       ??$uninitialized_copy@PAPAUcommand@@PAPAU1@@std@@YAPAPAUcommand@@QAPAU1@0PAPAU1@@Z 10071990 f i hooked_createmove.obj
 0001:00070990       ??$uninitialized_copy@PAPAUcorrection_data@@PAPAU1@@std@@YAPAPAUcorrection_data@@QAPAU1@0PAPAU1@@Z 10071990 f i hooked_createmove.obj
 0001:00070a00       ??$_Uninitialized_value_construct_n_unchecked1@PAPAUcommand@@I@std@@YAPAPAUcommand@@PAPAU1@I@Z 10071a00 f i hooked_createmove.obj
 0001:00070a00       ??$_Uninitialized_value_construct_n_unchecked1@PAPAUcorrection_data@@I@std@@YAPAPAUcorrection_data@@PAPAU1@I@Z 10071a00 f i hooked_createmove.obj
 0001:00070a30       ??$_Destroy_in_place@PAU?$_List_node@U?$pair@$$CBV?$basic_string@DU?$char_traits@D@std@@V?$allocator@D@2@@std@@H@std@@PAX@std@@@std@@YAXAAPAU?$_List_node@U?$pair@$$CBV?$basic_string@DU?$char_traits@D@std@@V?$allocator@D@2@@std@@H@std@@PAX@0@@Z 10071a30 f i hooked_painttraverse.obj
 0001:00070a30       ??$_Destroy_in_place@PAUcommand@@@std@@YAXAAPAUcommand@@@Z 10071a30 f i hooked_painttraverse.obj
 0001:00070a30       ??$_Destroy_in_place@PAUcorrection_data@@@std@@YAXAAPAUcorrection_data@@@Z 10071a30 f i hooked_senddatagram.obj
 0001:00070a30       ??$_Destroy_range@PAPAUcorrection_data@@@std@@YAXPAPAUcorrection_data@@QAPAU1@@Z 10071a30 f i hooked_createmove.obj
 0001:00070a30       ??$_Destroy_range@V?$allocator@PBD@std@@@std@@YAXPAPBDQAPBDAAV?$allocator@PBD@0@@Z 10071a30 f i hooked_fsn.obj
 0001:00070a30       ??$_Destroy_range@PAPAUcommand@@@std@@YAXPAPAUcommand@@QAPAU1@@Z 10071a30 f i hooked_createmove.obj
 0001:00070a70       ??$_Copy_memmove@PAPAUcommand@@PAPAU1@@std@@YAPAPAUcommand@@PAPAU1@00@Z 10071a70 f i hooked_createmove.obj
 0001:00070a70       ??$_Copy_memmove@PAPAUcorrection_data@@PAPAU1@@std@@YAPAPAUcorrection_data@@PAPAU1@00@Z 10071a70 f i hooked_createmove.obj
 0001:00070a70       ??$_Copy_memmove@PBQBDPAPBD@std@@YAPAPBDPBQBD0PAPBD@Z 10071a70 f i hooked_fsn.obj
 0001:00070ac0       ??$_Zero_range@PAPAUcorrection_data@@@std@@YAPAPAUcorrection_data@@QAPAU1@0@Z 10071ac0 f i hooked_createmove.obj
 0001:00070ac0       ??$_Zero_range@PAPAUcommand@@@std@@YAPAPAUcommand@@QAPAU1@0@Z 10071ac0 f i hooked_createmove.obj
 0001:00070b00       ??$_Verify_range@PAUcommand@@@std@@YAXQBQAUcommand@@0@Z 10071b00 f i hooked_createmove.obj
 0001:00070b00       ??$_Verify_range@PAUcorrection_data@@@std@@YAXQBQAUcorrection_data@@0@Z 10071b00 f i hooked_createmove.obj
 0001:00070b00       ??$_Verify_range@V?$_List_unchecked_iterator@V?$_List_val@U?$_List_simple_types@U?$pair@$$CBV?$basic_string@DU?$char_traits@D@std@@V?$allocator@D@2@@std@@H@std@@@std@@@std@@@std@@@std@@YAXQBV?$_List_unchecked_iterator@V?$_List_val@U?$_List_simple_types@U?$pair@$$CBV?$basic_string@DU?$char_traits@D@std@@V?$allocator@D@2@@std@@H@std@@@std@@@std@@@0@0@Z 10071b00 f i hooked_painttraverse.obj
 0001:00070b90       ?CreateMaterial@@YAPAVIMaterial@@_NABV?$basic_string@DU?$char_traits@D@std@@V?$allocator@D@2@@std@@@Z 10071b90 f   hooked_dme.obj
 0001:00071040       ?hooked_dme@hooks@@YGXPAVIMatRenderContext@@ABUDrawModelState_t@@ABUModelRenderInfo_t@@PAVmatrix3x4_t@@@Z 10072040 f   hooked_dme.obj
 0001:000761d0       ?get@?$singleton@Vplayeresp@@@@SAAAVplayeresp@@XZ 100771d0 f i hooked_dme.obj
 0001:000762f0       ??0HPInfo@@QAE@XZ          100772f0 f i hooked_dme.obj
 0001:00076320       ?hooked_drawfog@hooks@@YI_NPAX0@Z 10077320 f   hooked_drawfog.obj
 0001:00076370       ?m_flHealthShotBoostExpirationTime@player_t@@QBEAAMXZ 10077370 f i hooked_events.obj
 0001:00076420       ?weapon_is_aim@@YA_NABV?$basic_string@DU?$char_traits@D@std@@V?$allocator@D@2@@std@@@Z 10077420 f   hooked_events.obj
 0001:000764c0       ?FireGameEvent@C_HookedEvents@@UAEXPAVIGameEvent@@@Z 100774c0 f   hooked_events.obj
 0001:00078e80       ??4Damage_marker@otheresp@@QAEAAU01@$$QAU01@@Z 10079e80 f i hooked_events.obj
 0001:00078f00       ?GetEventDebugID@C_HookedEvents@@UAEHXZ 10079f00 f   hooked_events.obj
 0001:00078f20       ?RegisterSelf@C_HookedEvents@@QAEXXZ 10079f20 f   hooked_events.obj
 0001:00079130       ??$emplace_back@AAY0BA@$$CBD@?$vector@V?$basic_string@DU?$char_traits@D@std@@V?$allocator@D@2@@std@@V?$allocator@V?$basic_string@DU?$char_traits@D@std@@V?$allocator@D@2@@std@@@2@@std@@QAEAAV?$basic_string@DU?$char_traits@D@std@@V?$allocator@D@2@@1@AAY0BA@$$CBD@Z 1007a130 f i hooked_events.obj
 0001:00079130       ??$emplace_back@AAY0N@$$CBD@?$vector@V?$basic_string@DU?$char_traits@D@std@@V?$allocator@D@2@@std@@V?$allocator@V?$basic_string@DU?$char_traits@D@std@@V?$allocator@D@2@@std@@@2@@std@@QAEAAV?$basic_string@DU?$char_traits@D@std@@V?$allocator@D@2@@1@AAY0N@$$CBD@Z 1007a130 f i hooked_events.obj
 0001:00079130       ??$emplace_back@AAY0M@$$CBD@?$vector@V?$basic_string@DU?$char_traits@D@std@@V?$allocator@D@2@@std@@V?$allocator@V?$basic_string@DU?$char_traits@D@std@@V?$allocator@D@2@@std@@@2@@std@@QAEAAV?$basic_string@DU?$char_traits@D@std@@V?$allocator@D@2@@1@AAY0M@$$CBD@Z 1007a130 f i hooked_events.obj
 0001:00079130       ??$emplace_back@AAY0BB@$$CBD@?$vector@V?$basic_string@DU?$char_traits@D@std@@V?$allocator@D@2@@std@@V?$allocator@V?$basic_string@DU?$char_traits@D@std@@V?$allocator@D@2@@std@@@2@@std@@QAEAAV?$basic_string@DU?$char_traits@D@std@@V?$allocator@D@2@@1@AAY0BB@$$CBD@Z 1007a130 f i hooked_events.obj
 0001:00079130       ??$emplace_back@AAY0O@$$CBD@?$vector@V?$basic_string@DU?$char_traits@D@std@@V?$allocator@D@2@@std@@V?$allocator@V?$basic_string@DU?$char_traits@D@std@@V?$allocator@D@2@@std@@@2@@std@@QAEAAV?$basic_string@DU?$char_traits@D@std@@V?$allocator@D@2@@1@AAY0O@$$CBD@Z 1007a130 f i hooked_events.obj
 0001:000791b0       ??$_Emplace_back_with_unused_capacity@AAY0BA@$$CBD@?$vector@V?$basic_string@DU?$char_traits@D@std@@V?$allocator@D@2@@std@@V?$allocator@V?$basic_string@DU?$char_traits@D@std@@V?$allocator@D@2@@std@@@2@@std@@AAEAAV?$basic_string@DU?$char_traits@D@std@@V?$allocator@D@2@@1@AAY0BA@$$CBD@Z 1007a1b0 f i hooked_events.obj
 0001:000791b0       ??$_Emplace_back_with_unused_capacity@AAY0O@$$CBD@?$vector@V?$basic_string@DU?$char_traits@D@std@@V?$allocator@D@2@@std@@V?$allocator@V?$basic_string@DU?$char_traits@D@std@@V?$allocator@D@2@@std@@@2@@std@@AAEAAV?$basic_string@DU?$char_traits@D@std@@V?$allocator@D@2@@1@AAY0O@$$CBD@Z 1007a1b0 f i hooked_events.obj
 0001:000791b0       ??$_Emplace_back_with_unused_capacity@AAY0M@$$CBD@?$vector@V?$basic_string@DU?$char_traits@D@std@@V?$allocator@D@2@@std@@V?$allocator@V?$basic_string@DU?$char_traits@D@std@@V?$allocator@D@2@@std@@@2@@std@@AAEAAV?$basic_string@DU?$char_traits@D@std@@V?$allocator@D@2@@1@AAY0M@$$CBD@Z 1007a1b0 f i hooked_events.obj
 0001:000791b0       ??$_Emplace_back_with_unused_capacity@AAY0N@$$CBD@?$vector@V?$basic_string@DU?$char_traits@D@std@@V?$allocator@D@2@@std@@V?$allocator@V?$basic_string@DU?$char_traits@D@std@@V?$allocator@D@2@@std@@@2@@std@@AAEAAV?$basic_string@DU?$char_traits@D@std@@V?$allocator@D@2@@1@AAY0N@$$CBD@Z 1007a1b0 f i hooked_events.obj
 0001:000791b0       ??$_Emplace_back_with_unused_capacity@AAY0BB@$$CBD@?$vector@V?$basic_string@DU?$char_traits@D@std@@V?$allocator@D@2@@std@@V?$allocator@V?$basic_string@DU?$char_traits@D@std@@V?$allocator@D@2@@std@@@2@@std@@AAEAAV?$basic_string@DU?$char_traits@D@std@@V?$allocator@D@2@@1@AAY0BB@$$CBD@Z 1007a1b0 f i hooked_events.obj
 0001:00079260       ?get@?$singleton@Vbullettracers@@@@SAAAVbullettracers@@XZ 1007a260 f i hooked_events.obj
 0001:000792f0       ?get@?$singleton@Votheresp@@@@SAAAVotheresp@@XZ 1007a2f0 f i hooked_events.obj
 0001:00079420       ?get@?$singleton@Vlagcompensation@@@@SAAAVlagcompensation@@XZ 1007a420 f i hooked_events.obj
 0001:00079530       ?clear@?$vector@Uaim_shot@@V?$allocator@Uaim_shot@@@std@@@std@@QAEXXZ 1007a530 f i hooked_events.obj
 0001:000795d0       ??0Damage_marker@otheresp@@QAE@XZ 1007a5d0 f i hooked_events.obj
 0001:00079640       ??0resolver@@QAE@XZ        1007a640 f i hooked_events.obj
 0001:000796c0       ??1?$vector@Uimpact_data@bullettracers@@V?$allocator@Uimpact_data@bullettracers@@@std@@@std@@QAE@XZ 1007a6c0 f i hooked_events.obj
 0001:00079750       ??1?$vector@Um_indicator@@V?$allocator@Um_indicator@@@std@@@std@@QAE@XZ 1007a750 f i hooked_events.obj
 0001:000797e0       ?_Tidy@?$vector@Uimpact_data@bullettracers@@V?$allocator@Uimpact_data@bullettracers@@@std@@@std@@AAEXXZ 1007a7e0 f i hooked_events.obj
 0001:000798e0       ?_Tidy@?$vector@Um_indicator@@V?$allocator@Um_indicator@@@std@@@std@@AAEXXZ 1007a8e0 f i hooked_events.obj
 0001:000799e0       ??$_Emplace_reallocate@AAY0M@$$CBD@?$vector@V?$basic_string@DU?$char_traits@D@std@@V?$allocator@D@2@@std@@V?$allocator@V?$basic_string@DU?$char_traits@D@std@@V?$allocator@D@2@@std@@@2@@std@@QAEPAV?$basic_string@DU?$char_traits@D@std@@V?$allocator@D@2@@1@QAV21@AAY0M@$$CBD@Z 1007a9e0 f i hooked_events.obj
 0001:000799e0       ??$_Emplace_reallocate@AAY0N@$$CBD@?$vector@V?$basic_string@DU?$char_traits@D@std@@V?$allocator@D@2@@std@@V?$allocator@V?$basic_string@DU?$char_traits@D@std@@V?$allocator@D@2@@std@@@2@@std@@QAEPAV?$basic_string@DU?$char_traits@D@std@@V?$allocator@D@2@@1@QAV21@AAY0N@$$CBD@Z 1007a9e0 f i hooked_events.obj
 0001:000799e0       ??$_Emplace_reallocate@AAY0BA@$$CBD@?$vector@V?$basic_string@DU?$char_traits@D@std@@V?$allocator@D@2@@std@@V?$allocator@V?$basic_string@DU?$char_traits@D@std@@V?$allocator@D@2@@std@@@2@@std@@QAEPAV?$basic_string@DU?$char_traits@D@std@@V?$allocator@D@2@@1@QAV21@AAY0BA@$$CBD@Z 1007a9e0 f i hooked_events.obj
 0001:000799e0       ??$_Emplace_reallocate@AAY0O@$$CBD@?$vector@V?$basic_string@DU?$char_traits@D@std@@V?$allocator@D@2@@std@@V?$allocator@V?$basic_string@DU?$char_traits@D@std@@V?$allocator@D@2@@std@@@2@@std@@QAEPAV?$basic_string@DU?$char_traits@D@std@@V?$allocator@D@2@@1@QAV21@AAY0O@$$CBD@Z 1007a9e0 f i hooked_events.obj
 0001:000799e0       ??$_Emplace_reallocate@AAY0BB@$$CBD@?$vector@V?$basic_string@DU?$char_traits@D@std@@V?$allocator@D@2@@std@@V?$allocator@V?$basic_string@DU?$char_traits@D@std@@V?$allocator@D@2@@std@@@2@@std@@QAEPAV?$basic_string@DU?$char_traits@D@std@@V?$allocator@D@2@@1@QAV21@AAY0BB@$$CBD@Z 1007a9e0 f i hooked_events.obj
 0001:00079ce0       ??0Player_list_data@@QAE@HV?$basic_string@DU?$char_traits@D@std@@V?$allocator@D@2@@std@@@Z 1007ace0 f i hooked_fsn.obj
 0001:00079d80       ?weather@@YAXXZ            1007ad80 f   hooked_fsn.obj
 0001:0007a520       ?remove_smoke@@YAXXZ       1007b520 f   hooked_fsn.obj
 0001:0007a880       ?hooked_fsn@hooks@@YGXW4ClientFrameStage_t@@@Z 1007b880 f   hooked_fsn.obj
 0001:0007c500       ??$emplace_back@UPlayer_list_data@@@?$vector@UPlayer_list_data@@V?$allocator@UPlayer_list_data@@@std@@@std@@QAEAAUPlayer_list_data@@$$QAU2@@Z 1007d500 f i hooked_fsn.obj
 0001:0007c580       ??$_Emplace_back_with_unused_capacity@UPlayer_list_data@@@?$vector@UPlayer_list_data@@V?$allocator@UPlayer_list_data@@@std@@@std@@AAEAAUPlayer_list_data@@$$QAU2@@Z 1007d580 f i hooked_fsn.obj
 0001:0007c640       ??4?$_Tree_unchecked_const_iterator@V?$_Tree_val@U?$_Tree_simple_types@U?$pair@$$CBIM@std@@@std@@@std@@U_Iterator_base12@2@@std@@QAEAAV01@$$QAV01@@Z 1007d640 f i imgui_widgets.obj
 0001:0007c640       ??4?$_Tree_unchecked_const_iterator@V?$_Tree_val@U?$_Tree_simple_types@U?$pair@$$CBIUImVec4@@@std@@@std@@@std@@U_Iterator_base12@2@@std@@QAEAAV01@$$QAV01@@Z 1007d640 f i imgui_widgets.obj
 0001:0007c640       ??4?$_Vector_const_iterator@V?$_Vector_val@U?$_Simple_types@Uaim_shot@@@std@@@std@@@std@@QAEAAV01@ABV01@@Z 1007d640 f i hooked_fsn.obj
 0001:0007c670       ??$_Const_cast@$$CBUaim_shot@@@std@@YAPAUaim_shot@@PBU1@@Z 1007d670 f i hooked_fsn.obj
 0001:0007c6b0       ??1?$vector@PBDV?$allocator@PBD@std@@@std@@QAE@XZ 1007d6b0 f i hooked_fsn.obj
 0001:0007c740       ??0?$vector@PBDV?$allocator@PBD@std@@@std@@QAE@V?$initializer_list@PBD@1@ABV?$allocator@PBD@1@@Z 1007d740 f i hooked_fsn.obj
 0001:0007c840       ?get@?$singleton@Vnightmode@@@@SAAAVnightmode@@XZ 1007d840 f i hooked_fsn.obj
 0001:0007c8b0       ?_Orphan_range@?$vector@UPlayer_list_data@@V?$allocator@UPlayer_list_data@@@std@@@std@@ABEXPAUPlayer_list_data@@0@Z 1007d8b0 f i hooked_fsn.obj
 0001:0007c940       ?clear@?$vector@UPlayer_list_data@@V?$allocator@UPlayer_list_data@@@std@@@std@@QAEXXZ 1007d940 f i hooked_fsn.obj
 0001:0007c9e0       ?erase@?$vector@Uaim_shot@@V?$allocator@Uaim_shot@@@std@@@std@@QAE?AV?$_Vector_iterator@V?$_Vector_val@U?$_Simple_types@Uaim_shot@@@std@@@std@@@2@V?$_Vector_const_iterator@V?$_Vector_val@U?$_Simple_types@Uaim_shot@@@std@@@std@@@2@@Z 1007d9e0 f i hooked_fsn.obj
 0001:0007cbf0       ??E?$_Vector_const_iterator@V?$_Vector_val@U?$_Simple_types@Uaim_shot@@@std@@@std@@@std@@QAEAAV01@XZ 1007dbf0 f i hooked_fsn.obj
 0001:0007ccf0       ??C?$_Vector_const_iterator@V?$_Vector_val@U?$_Simple_types@Uaim_shot@@@std@@@std@@@std@@QBEPBUaim_shot@@XZ 1007dcf0 f i hooked_fsn.obj
 0001:0007cdf0       ?_Tidy@?$vector@PBDV?$allocator@PBD@std@@@std@@AAEXXZ 1007ddf0 f i hooked_fsn.obj
 0001:0007cef0       ?_Compat@?$_Vector_const_iterator@V?$_Vector_val@U?$_Simple_types@Uaim_shot@@@std@@@std@@@std@@QBEXABV12@@Z 1007def0 f i hooked_fsn.obj
 0001:0007cfb0       ??$_Emplace_reallocate@UPlayer_list_data@@@?$vector@UPlayer_list_data@@V?$allocator@UPlayer_list_data@@@std@@@std@@QAEPAUPlayer_list_data@@QAU2@$$QAU2@@Z 1007dfb0 f i hooked_fsn.obj
 0001:0007d420       ??$_Range_construct_or_tidy@PBQBD@?$vector@PBDV?$allocator@PBD@std@@@std@@AAEXPBQBD0Uforward_iterator_tag@1@@Z 1007e420 f i hooked_fsn.obj
 0001:0007d4e0       ??4aim_shot@@QAEAAU0@$$QAU0@@Z 1007e4e0 f i hooked_fsn.obj
 0001:0007d590       ??4shot_info@@QAEAAU0@$$QAU0@@Z 1007e590 f i hooked_fsn.obj
 0001:0007d700       ??1?$_Tidy_guard@V?$vector@PBDV?$allocator@PBD@std@@@std@@@std@@QAE@XZ 1007e700 f i hooked_fsn.obj
 0001:0007d750       ?_Buy_nonzero@?$vector@PBDV?$allocator@PBD@std@@@std@@AAEXI@Z 1007e750 f i hooked_fsn.obj
 0001:0007d7d0       ?_Xlength@?$vector@PBDV?$allocator@PBD@std@@@std@@CAXXZ 1007e7d0 f i hooked_fsn.obj
 0001:0007d7d0       ?_Xlength@?$vector@UPlayer_list_data@@V?$allocator@UPlayer_list_data@@@std@@@std@@CAXXZ 1007e7d0 f i hooked_fsn.obj
 0001:0007d7f0       ?_Change_array@?$vector@UPlayer_list_data@@V?$allocator@UPlayer_list_data@@@std@@@std@@AAEXQAUPlayer_list_data@@II@Z 1007e7f0 f i hooked_fsn.obj
 0001:0007d8d0       ?_Calculate_growth@?$vector@UPlayer_list_data@@V?$allocator@UPlayer_list_data@@@std@@@std@@ABEII@Z 1007e8d0 f i hooked_fsn.obj
 0001:0007d980       ?_Buy_raw@?$vector@PBDV?$allocator@PBD@std@@@std@@AAEXI@Z 1007e980 f i hooked_fsn.obj
 0001:0007da20       ??$_Uninitialized_move@PAUPlayer_list_data@@V?$allocator@UPlayer_list_data@@@std@@@std@@YAPAUPlayer_list_data@@QAU1@0PAU1@AAV?$allocator@UPlayer_list_data@@@0@@Z 1007ea20 f i hooked_fsn.obj
 0001:0007dad0       ??1?$_Uninitialized_backout_al@V?$allocator@UPlayer_list_data@@@std@@@std@@QAE@XZ 1007ead0 f i hooked_fsn.obj
 0001:0007db30       ??$_Uninitialized_copy@PBQBDV?$allocator@PBD@std@@@std@@YAPAPBDQBQBD0PAPBDAAV?$allocator@PBD@0@@Z 1007eb30 f i hooked_fsn.obj
 0001:0007db80       ??$_Emplace_back@UPlayer_list_data@@@?$_Uninitialized_backout_al@V?$allocator@UPlayer_list_data@@@std@@@std@@QAEX$$QAUPlayer_list_data@@@Z 1007eb80 f i hooked_fsn.obj
 0001:0007dc10       ?hooked_getmaterial@hooks@@YIPAVIMaterial@@PAX0PBD1_N1@Z 1007ec10 f   hooked_getmaterial.obj
 0001:0007dda0       ?hooked_ishltv@hooks@@YI_NPAX0@Z 1007eda0 f   hooked_ishltv.obj
 0001:0007dfb0       ?hooked_listleavesinbox@hooks@@YIHPAX0AAVVector@@1PAGH@Z 1007efb0 f   hooked_listleavesinbox.obj
 0001:0007e300       ?hooked_lockcursor@hooks@@YGXXZ 1007f300 f   hooked_lockcursor.obj
 0001:0007e3e0       ?m_iObserverMode@player_t@@QBEAAHXZ 1007f3e0 f i hooked_overrideview.obj
 0001:0007e490       ?hooked_overrideview@hooks@@YGXPAVCViewSetup@@@Z 1007f490 f   hooked_overrideview.obj
 0001:0007ead0       ?thirdperson@@YAX_N@Z      1007fad0 f   hooked_overrideview.obj
 0001:0007f350       ?reset@Damage_marker@otheresp@@QAEXXZ 10080350 f i hooked_painttraverse.obj
 0001:0007f3d0       ?hooked_painttraverse@hooks@@YIXPAX0I_N1@Z 100803d0 f   hooked_painttraverse.obj
 0001:00080b90       ?clear@?$_Hash@V?$_Umap_traits@V?$basic_string@DU?$char_traits@D@std@@V?$allocator@D@2@@std@@HV?$_Uhash_compare@V?$basic_string@DU?$char_traits@D@std@@V?$allocator@D@2@@std@@U?$hash@V?$basic_string@DU?$char_traits@D@std@@V?$allocator@D@2@@std@@@2@U?$equal_to@V?$basic_string@DU?$char_traits@D@std@@V?$allocator@D@2@@std@@@2@@2@V?$allocator@U?$pair@$$CBV?$basic_string@DU?$char_traits@D@std@@V?$allocator@D@2@@std@@H@std@@@2@$0A@@std@@@std@@QAEXXZ 10081b90 f i hooked_painttraverse.obj
 0001:00080ca0       ?_Unchecked_erase@?$_Hash@V?$_Umap_traits@V?$basic_string@DU?$char_traits@D@std@@V?$allocator@D@2@@std@@HV?$_Uhash_compare@V?$basic_string@DU?$char_traits@D@std@@V?$allocator@D@2@@std@@U?$hash@V?$basic_string@DU?$char_traits@D@std@@V?$allocator@D@2@@std@@@2@U?$equal_to@V?$basic_string@DU?$char_traits@D@std@@V?$allocator@D@2@@std@@@2@@2@V?$allocator@U?$pair@$$CBV?$basic_string@DU?$char_traits@D@std@@V?$allocator@D@2@@std@@H@std@@@2@$0A@@std@@@std@@AAEPAU?$_List_node@U?$pair@$$CBV?$basic_string@DU?$char_traits@D@std@@V?$allocator@D@2@@std@@H@std@@PAX@2@PAU32@QAU32@@Z 10081ca0 f i hooked_painttraverse.obj
 0001:00080f50       ?clear@?$list@U?$pair@$$CBV?$basic_string@DU?$char_traits@D@std@@V?$allocator@D@2@@std@@H@std@@V?$allocator@U?$pair@$$CBV?$basic_string@DU?$char_traits@D@std@@V?$allocator@D@2@@std@@H@std@@@2@@std@@QAEXXZ 10081f50 f i hooked_painttraverse.obj
 0001:00081020       ?_Tidy@?$deque@Ucommand@@V?$allocator@Ucommand@@@std@@@std@@AAEXXZ 10082020 f i hooked_painttraverse.obj
 0001:00081210       ?_Orphan_non_end@?$_List_val@U?$_List_simple_types@U?$pair@$$CBV?$basic_string@DU?$char_traits@D@std@@V?$allocator@D@2@@std@@H@std@@@std@@@std@@QAEXXZ 10082210 f i hooked_painttraverse.obj
 0001:000812c0       ?pop_back@?$deque@Ucommand@@V?$allocator@Ucommand@@@std@@@std@@QAEXXZ 100822c0 f i hooked_painttraverse.obj
 0001:00081470       ??0?$_List_unchecked_const_iterator@V?$_List_val@U?$_List_simple_types@U?$pair@$$CBV?$basic_string@DU?$char_traits@D@std@@V?$allocator@D@2@@std@@H@std@@@std@@@std@@U_Iterator_base0@2@@std@@QAE@PAU?$_List_node@U?$pair@$$CBV?$basic_string@DU?$char_traits@D@std@@V?$allocator@D@2@@std@@H@std@@PAX@1@PBV?$_List_val@U?$_List_simple_types@U?$pair@$$CBV?$basic_string@DU?$char_traits@D@std@@V?$allocator@D@2@@std@@H@std@@@std@@@1@@Z 10082470 f i hooked_painttraverse.obj
 0001:000814c0       ?_Unchecked_erase@?$list@U?$pair@$$CBV?$basic_string@DU?$char_traits@D@std@@V?$allocator@D@2@@std@@H@std@@V?$allocator@U?$pair@$$CBV?$basic_string@DU?$char_traits@D@std@@V?$allocator@D@2@@std@@H@std@@@2@@std@@AAEPAU?$_List_node@U?$pair@$$CBV?$basic_string@DU?$char_traits@D@std@@V?$allocator@D@2@@std@@H@std@@PAX@2@PAU32@QAU32@@Z 100824c0 f i hooked_painttraverse.obj
 0001:00081630       ??$_Freenode@V?$allocator@U?$_List_node@U?$pair@$$CBV?$basic_string@DU?$char_traits@D@std@@V?$allocator@D@2@@std@@H@std@@PAX@std@@@std@@@?$_List_node@U?$pair@$$CBV?$basic_string@DU?$char_traits@D@std@@V?$allocator@D@2@@std@@H@std@@PAX@std@@SAXAAV?$allocator@U?$_List_node@U?$pair@$$CBV?$basic_string@DU?$char_traits@D@std@@V?$allocator@D@2@@std@@H@std@@PAX@std@@@1@PAU01@@Z 10082630 f i hooked_painttraverse.obj
 0001:000816c0       ?hooked_postscreeneffects@hooks@@YIXPAX0PAVCViewSetup@@@Z 100826c0 f   hooked_postscreeneffects.obj
 0001:00082750       ??0CUserCmd@@QAE@XZ        10083750 f i hooked_runcommand.obj
 0001:00082800       ??1CUserCmd@@UAE@XZ        10083800 f i hooked_runcommand.obj
 0001:00082850       ??_GCUserCmd@@UAEPAXI@Z    10083850 f i hooked_runcommand.obj
 0001:00082850       ??_ECUserCmd@@UAEPAXI@Z    10083850 f i * CIL library *:* CIL module *
 0001:00082880       ?m_flPostponeFireReadyTime@weapon_t@@QBEAAMXZ 10083880 f i hooked_runcommand.obj
 0001:00082930       ?m_flVelocityModifier@player_t@@QBEAAMXZ 10083930 f i hooked_runcommand.obj
 0001:000829e0       ?hooked_runcommand@hooks@@YIXPAX0PAVplayer_t@@PAVCUserCmd@@PAVIMoveHelper@@@Z 100839e0 f   hooked_runcommand.obj
 0001:00082e40       ?hooked_writeusercmddeltatobuffer@hooks@@YI_NPAX0HPAVbf_write@@HH_N@Z 10083e40 f   hooked_runcommand.obj
 0001:00083180       ??4CUserCmd@@QAEAAV0@ABV0@@Z 10084180 f i hooked_runcommand.obj
 0001:000832d0       ?WriteUsermd@@YAXPAXPAVCUserCmd@@1@Z 100842d0 f   hooked_runcommand.obj
 0001:00083370       ?hooked_sceneend@hooks@@YIXPAX0@Z 10084370 f   hooked_sceneend.obj
 0001:00083b40       ?GetChecksum@CUserCmd@@QBEKXZ 10084b40 f i hooked_senddatagram.obj
 0001:00083ca0       ?hooked_packetstart@hooks@@YIXPAX0HH@Z 10084ca0 f   hooked_senddatagram.obj
 0001:000842a0       ?hooked_packetend@hooks@@YIXPAX0@Z 100852a0 f   hooked_senddatagram.obj
 0001:00084730       ?hooked_checkfilecrcswithserver@hooks@@YIXPAX0@Z 10085730 f   hooked_senddatagram.obj
 0001:00084750       ?hooked_loosefileallowed@hooks@@YI_NPAX0@Z 10085750 f   hooked_senddatagram.obj
 0001:00084770       ??C?$reverse_iterator@V?$_Deque_iterator@V?$_Deque_val@U?$_Deque_simple_types@Ucommand@@@std@@@std@@@std@@@std@@QBEPAUcommand@@XZ 10085770 f i hooked_senddatagram.obj
 0001:00084850       ?end@?$deque@Ucommand@@V?$allocator@Ucommand@@@std@@@std@@QAE?AV?$_Deque_iterator@V?$_Deque_val@U?$_Deque_simple_types@Ucommand@@@std@@@std@@@2@XZ 10085850 f i hooked_senddatagram.obj
 0001:00084850       ?end@?$deque@Ucorrection_data@@V?$allocator@Ucorrection_data@@@std@@@std@@QAE?AV?$_Deque_iterator@V?$_Deque_val@U?$_Deque_simple_types@Ucorrection_data@@@std@@@std@@@2@XZ 10085850 f i hooked_senddatagram.obj
 0001:00084900       ?begin@?$deque@Ucommand@@V?$allocator@Ucommand@@@std@@@std@@QAE?AV?$_Deque_iterator@V?$_Deque_val@U?$_Deque_simple_types@Ucommand@@@std@@@std@@@2@XZ 10085900 f i hooked_senddatagram.obj
 0001:00084900       ?begin@?$deque@Ucorrection_data@@V?$allocator@Ucorrection_data@@@std@@@std@@QAE?AV?$_Deque_iterator@V?$_Deque_val@U?$_Deque_simple_types@Ucorrection_data@@@std@@@std@@@2@XZ 10085900 f i hooked_senddatagram.obj
 0001:000849a0       ?erase@?$deque@Ucommand@@V?$allocator@Ucommand@@@std@@@std@@QAE?AV?$_Deque_iterator@V?$_Deque_val@U?$_Deque_simple_types@Ucommand@@@std@@@std@@@2@V?$_Deque_const_iterator@V?$_Deque_val@U?$_Deque_simple_types@Ucommand@@@std@@@std@@@2@@Z 100859a0 f i hooked_senddatagram.obj
 0001:00084a90       ??0?$reverse_iterator@V?$_Deque_iterator@V?$_Deque_val@U?$_Deque_simple_types@Ucommand@@@std@@@std@@@std@@@std@@QAE@V?$_Deque_iterator@V?$_Deque_val@U?$_Deque_simple_types@Ucommand@@@std@@@std@@@1@@Z 10085a90 f i hooked_senddatagram.obj
 0001:00084b30       ??E?$_Deque_const_iterator@V?$_Deque_val@U?$_Deque_simple_types@Ucommand@@@std@@@std@@@std@@QAEAAV01@XZ 10085b30 f i hooked_senddatagram.obj
 0001:00084c40       ??D?$_Deque_const_iterator@V?$_Deque_val@U?$_Deque_simple_types@Ucommand@@@std@@@std@@@std@@QBEABUcommand@@XZ 10085c40 f i hooked_senddatagram.obj
 0001:00084d80       ?_Tidy@?$deque@Ucorrection_data@@V?$allocator@Ucorrection_data@@@std@@@std@@AAEXXZ 10085d80 f i hooked_senddatagram.obj
 0001:00084f70       ?erase@?$deque@Ucommand@@V?$allocator@Ucommand@@@std@@@std@@QAE?AV?$_Deque_iterator@V?$_Deque_val@U?$_Deque_simple_types@Ucommand@@@std@@@std@@@2@V?$_Deque_const_iterator@V?$_Deque_val@U?$_Deque_simple_types@Ucommand@@@std@@@std@@@2@0@Z 10085f70 f i hooked_senddatagram.obj
 0001:00085570       ?_Compat@?$_Deque_const_iterator@V?$_Deque_val@U?$_Deque_simple_types@Ucorrection_data@@@std@@@std@@@std@@QBEXABV12@@Z 10086570 f i hooked_senddatagram.obj
 0001:00085630       ??H?$_Deque_iterator@V?$_Deque_val@U?$_Deque_simple_types@Ucommand@@@std@@@std@@@std@@QBE?AV01@H@Z 10086630 f i hooked_senddatagram.obj
 0001:00085700       ?_Compat@?$_Deque_const_iterator@V?$_Deque_val@U?$_Deque_simple_types@Ucommand@@@std@@@std@@@std@@QBEXABV12@@Z 10086700 f i hooked_senddatagram.obj
 0001:000857c0       ??F?$_Deque_const_iterator@V?$_Deque_val@U?$_Deque_simple_types@Ucommand@@@std@@@std@@@std@@QAEAAV01@XZ 100867c0 f i hooked_senddatagram.obj
 0001:000858c0       ?_Make_iter@?$deque@Ucommand@@V?$allocator@Ucommand@@@std@@@std@@QBE?AV?$_Deque_iterator@V?$_Deque_val@U?$_Deque_simple_types@Ucommand@@@std@@@std@@@2@V?$_Deque_const_iterator@V?$_Deque_val@U?$_Deque_simple_types@Ucommand@@@std@@@std@@@2@@Z 100868c0 f i hooked_senddatagram.obj
 0001:00085960       ??Y?$_Deque_const_iterator@V?$_Deque_val@U?$_Deque_simple_types@Ucommand@@@std@@@std@@@std@@QAEAAV01@H@Z 10086960 f i hooked_senddatagram.obj
 0001:00085a90       ??$?9V?$_Deque_iterator@V?$_Deque_val@U?$_Deque_simple_types@Ucommand@@@std@@@std@@@std@@V01@@std@@YA_NABV?$reverse_iterator@V?$_Deque_iterator@V?$_Deque_val@U?$_Deque_simple_types@Ucommand@@@std@@@std@@@std@@@0@0@Z 10086a90 f i hooked_senddatagram.obj
 0001:00085d00       ??$_Next_iter@V?$_Deque_const_iterator@V?$_Deque_val@U?$_Deque_simple_types@Ucommand@@@std@@@std@@@std@@@std@@YA?AV?$_Deque_const_iterator@V?$_Deque_val@U?$_Deque_simple_types@Ucommand@@@std@@@std@@@0@V10@@Z 10086d00 f i hooked_senddatagram.obj
 0001:00085db0       ??$move_backward@V?$_Deque_iterator@V?$_Deque_val@U?$_Deque_simple_types@Ucommand@@@std@@@std@@@std@@V12@@std@@YA?AV?$_Deque_iterator@V?$_Deque_val@U?$_Deque_simple_types@Ucommand@@@std@@@std@@@0@V10@00@Z 10086db0 f i hooked_senddatagram.obj
 0001:00085f50       ??$_Get_unwrapped_n@AAV?$_Deque_iterator@V?$_Deque_val@U?$_Deque_simple_types@Ucommand@@@std@@@std@@@std@@H@std@@YA?AV?$_Deque_unchecked_iterator@V?$_Deque_val@U?$_Deque_simple_types@Ucommand@@@std@@@std@@@0@AAV?$_Deque_iterator@V?$_Deque_val@U?$_Deque_simple_types@Ucommand@@@std@@@std@@@0@H@Z 10086f50 f i hooked_senddatagram.obj
 0001:00086020       ??$move@V?$_Deque_iterator@V?$_Deque_val@U?$_Deque_simple_types@Ucommand@@@std@@@std@@@std@@V12@@std@@YA?AV?$_Deque_iterator@V?$_Deque_val@U?$_Deque_simple_types@Ucommand@@@std@@@std@@@0@V10@00@Z 10087020 f i hooked_senddatagram.obj
 0001:000861c0       ?_Verify_range@std@@YAXABV?$_Deque_const_iterator@V?$_Deque_val@U?$_Deque_simple_types@Ucommand@@@std@@@std@@@1@0@Z 100871c0 f i hooked_senddatagram.obj
 0001:00086280       ?_Verify_offset@?$_Deque_const_iterator@V?$_Deque_val@U?$_Deque_simple_types@Ucommand@@@std@@@std@@@std@@QBEXH@Z 10087280 f i hooked_senddatagram.obj
 0001:000863c0       ??$_Move_backward_unchecked@V?$_Deque_unchecked_iterator@V?$_Deque_val@U?$_Deque_simple_types@Ucommand@@@std@@@std@@@std@@V12@@std@@YA?AV?$_Deque_unchecked_iterator@V?$_Deque_val@U?$_Deque_simple_types@Ucommand@@@std@@@std@@@0@V10@00@Z 100873c0 f i hooked_senddatagram.obj
 0001:000864c0       ??$_Move_unchecked@V?$_Deque_unchecked_iterator@V?$_Deque_val@U?$_Deque_simple_types@Ucommand@@@std@@@std@@@std@@V12@@std@@YA?AV?$_Deque_unchecked_iterator@V?$_Deque_val@U?$_Deque_simple_types@Ucommand@@@std@@@std@@@0@V10@00@Z 100874c0 f i hooked_senddatagram.obj
 0001:000865c0       ?_Verify_range@std@@YAXABV?$_Deque_const_iterator@V?$_Deque_val@U?$_Deque_simple_types@Ucorrection_data@@@std@@@std@@@1@0@Z 100875c0 f i hooked_senddatagram.obj
 0001:00086680       ?setupbones_detour@hooks@@YA_NPAXPAVmatrix3x4_t@@HHM@Z 10087680 f   hooked_player.obj
 0001:00086a40       ?hooked_setupbones@hooks@@YI_NPAX0PAVmatrix3x4_t@@HHM@Z 10087a40 f   hooked_player.obj
 0001:00086a80       ?standardblendingrules_detour@hooks@@YAXPAVplayer_t@@HPAVCStudioHdr@@PAVVector@@PAVQuaternion@@MH@Z 10087a80 f   hooked_player.obj
 0001:00086b20       ?hooked_standardblendingrules@hooks@@YIXPAVplayer_t@@HPAVCStudioHdr@@PAVVector@@PAVQuaternion@@MH@Z 10087b20 f   hooked_player.obj
 0001:00086b70       ?doextrabonesprocessing_detour@hooks@@YAXPAVplayer_t@@PAVCStudioHdr@@PAVVector@@PAVQuaternion@@ABVmatrix3x4_t@@PAEPAX@Z 10087b70 f   hooked_player.obj
 0001:00086b80       ?hooked_doextrabonesprocessing@hooks@@YIXPAVplayer_t@@PAXPAVCStudioHdr@@PAVVector@@PAVQuaternion@@ABVmatrix3x4_t@@PAE1@Z 10087b80 f   hooked_player.obj
 0001:00086bc0       ?updateclientsideanimation_detour@hooks@@YAXPAVplayer_t@@@Z 10087bc0 f   hooked_player.obj
 0001:00086c70       ?hooked_updateclientsideanimation@hooks@@YIXPAVplayer_t@@I@Z 10087c70 f   hooked_player.obj
 0001:00086ca0       ?physicssimulate_detour@hooks@@YAXPAVplayer_t@@@Z 10087ca0 f   hooked_player.obj
 0001:00086d40       ?hooked_physicssimulate@hooks@@YIXPAVplayer_t@@@Z 10087d40 f   hooked_player.obj
 0001:00086d70       ?modifyeyeposition_detour@hooks@@YAXPAVc_baseplayeranimationstate@@AAVVector@@@Z 10087d70 f   hooked_player.obj
 0001:00086db0       ?hooked_modifyeyeposition@hooks@@YIXPAVc_baseplayeranimationstate@@PAXAAVVector@@@Z 10087db0 f   hooked_player.obj
 0001:00086de0       ?calcviewmodelbob_detour@hooks@@YAXPAVplayer_t@@AAVVector@@@Z 10087de0 f   hooked_player.obj
 0001:00086e50       ?hooked_calcviewmodelbob@hooks@@YIXPAVplayer_t@@PAXAAVVector@@@Z 10087e50 f   hooked_player.obj
 0001:00086e80       ?TempInputText@ImGui@@YA_NABUImRect@@IPBDPADHH@Z 10087e80 f   imgui_widgets.obj
 0001:00086e80       ?hooked_shouldskipanimframe@hooks@@YI_NXZ 10087e80 f   hooked_player.obj
 0001:00086ea0       ?processinterpolatedlist@hooks@@YAHXZ 10087ea0 f   hooked_player.obj
 0001:00086f60       ?hooked_isconnected@hooks@@YI_NPAX0@Z 10087f60 f   hooked_isconnected.obj
 0001:00087100       ?hooked_getscreenaspectratio@hooks@@YIMPAX0HH@Z 10088100 f   hooked_isconnected.obj
 0001:000871d0       ?hooked_clip_ray_collideable@hooks@@YIXPAX0ABURay_t@@IPAVICollideable@@PAVCGameTrace@@@Z 100881d0 f   hooked_trace.obj
 0001:000872f0       ?hooked_trace_ray@hooks@@YIXPAX0ABURay_t@@IPAVITraceFilter@@PAVCGameTrace@@@Z 100882f0 f   hooked_trace.obj
 0001:000873f0       ??0vmthook@@QAE@PAPAK@Z    100883f0 f   vfunc_hook.obj
 0001:00087420       ?initialize@vmthook@@QAE_NPAPAK@Z 10088420 f   vfunc_hook.obj
 0001:00087520       ?hook_function@vmthook@@QAEKKI@Z 10088520 f   vfunc_hook.obj
 0001:00087580       ?get_vt_count@vmthook@@AAEKPAK@Z 10088580 f   vfunc_hook.obj
 0001:000875e0       ___local_stdio_scanf_options 100885e0 f i imgui.obj
 0001:00087600       _sscanf                    10088600 f i imgui.obj
 0001:00087660       ??3@YAXPAXUImNewDummy@@0@Z 10088660 f i imgui.obj
 0001:000876a0       ?Clear@ImGuiPayload@@QAEXXZ 100886a0 f i imgui.obj
 0001:00087720       ?Clear@ImGuiStorage@@QAEXXZ 10088720 f i imgui.obj
 0001:00087720       ?clear@ImGuiTextBuffer@@QAEXXZ 10088720 f i imgui.obj
 0001:00087780       ??1ImGuiListClipper@@QAE@XZ 10088780 f i imgui.obj
 0001:000877c0       ??0ImDrawCmd@@QAE@XZ       100887c0 f i imgui.obj
 0001:00087830       ??0ImDrawList@@QAE@PBUImDrawListSharedData@@@Z 10088830 f i imgui.obj
 0001:00087a10       ??1ImDrawList@@QAE@XZ      10088a10 f i imgui.obj
 0001:00087bb0       ??0ImDrawData@@QAE@XZ      10088bb0 f i imgui.obj
 0001:00087c40       ??1ImDrawData@@QAE@XZ      10088c40 f i imgui.obj
 0001:00087c90       ?Clear@ImDrawData@@QAEXXZ  10088c90 f i imgui.obj
 0001:00087e80       ??0ImRect@@QAE@XZ          10088e80 f i imgui.obj
 0001:00087ee0       ??0ImRect@@QAE@ABUImVec4@@@Z 10088ee0 f i imgui.obj
 0001:00087f70       ?GetSize@ImRect@@QBE?AUImVec2@@XZ 10088f70 f i imgui.obj
 0001:00087fd0       ?Contains@ImRect@@QBE_NABUImVec2@@@Z 10088fd0 f i imgui.obj
 0001:00088040       ?Contains@ImRect@@QBE_NABU1@@Z 10089040 f i imgui.obj
 0001:000880b0       ?Overlaps@ImRect@@QBE_NABU1@@Z 100890b0 f i imgui.obj
 0001:00088120       ?Add@ImRect@@QAEXABU1@@Z   10089120 f i imgui.obj
 0001:000881b0       ?Expand@ImRect@@QAEXM@Z    100891b0 f i imgui.obj
 0001:00088220       ?Expand@ImRect@@QAEXABUImVec2@@@Z 10089220 f i imgui.obj
 0001:000882a0       ?ClipWith@ImRect@@QAEXABU1@@Z 100892a0 f i imgui.obj
 0001:000883d0       ?ClipWithFull@ImRect@@QAEXABU1@@Z 100893d0 f i imgui.obj
 0001:00088450       ??0ImGuiInputTextState@@QAE@XZ 10089450 f i imgui.obj
 0001:000884f0       ??0ImGuiPopupData@@QAE@XZ  100894f0 f i imgui.obj
 0001:00088580       ??0ImGuiNavMoveResult@@QAE@XZ 10089580 f i imgui.obj
 0001:000885f0       ?Clear@ImGuiNavMoveResult@@QAEXXZ 100895f0 f i imgui.obj
 0001:000886b0       ??0ImGuiNextWindowData@@QAE@XZ 100896b0 f i imgui.obj
 0001:000887d0       ??0ImGuiWindowSettings@@QAE@XZ 100897d0 f i imgui.obj
 0001:00088860       ??0ImGuiContext@@QAE@PAUImFontAtlas@@@Z 10089860 f i imgui.obj
 0001:000898b0       ??1ImGuiStorage@@QAE@XZ    1008a8b0 f i imgui.obj
 0001:000898b0       ??1ImGuiTextBuffer@@QAE@XZ 1008a8b0 f i imgui.obj
 0001:000898b0       ??1?$ImChunkStream@UImGuiWindowSettings@@@@QAE@XZ 1008a8b0 f i imgui.obj
 0001:00089910       ??1ImDrawDataBuilder@@QAE@XZ 1008a910 f i imgui.obj
 0001:00089960       ??1ImGuiInputTextState@@QAE@XZ 1008a960 f i imgui.obj
 0001:00089a20       ??0ImGuiWindowTempData@@QAE@XZ 1008aa20 f i imgui.obj
 0001:00089f40       ?Rect@ImGuiWindow@@QBE?AUImRect@@XZ 1008af40 f i imgui.obj
 0001:00089ff0       ?TitleBarHeight@ImGuiWindow@@QBEMXZ 1008aff0 f i imgui.obj
 0001:0008a090       ?TitleBarRect@ImGuiWindow@@QBE?AUImRect@@XZ 1008b090 f i imgui.obj
 0001:0008a120       ?MenuBarHeight@ImGuiWindow@@QBEMXZ 1008b120 f i imgui.obj
 0001:0008a1d0       ?MenuBarRect@ImGuiWindow@@QBE?AUImRect@@XZ 1008b1d0 f i imgui.obj
 0001:0008a290       ?GetDefaultFont@ImGui@@YAPAUImFont@@XZ 1008b290 f i imgui.obj
 0001:0008a330       ??0ImGuiStyle@@QAE@XZ      1008b330 f   imgui.obj
 0001:0008a840       ??0ImGuiIO@@QAE@XZ         1008b840 f   imgui.obj
 0001:0008ad10       ?AddInputCharacter@ImGuiIO@@QAEXI@Z 1008bd10 f   imgui.obj
 0001:0008ad70       ?ImLineClosestPoint@@YA?AUImVec2@@ABU1@00@Z 1008bd70 f   imgui.obj
 0001:0008af20       ?ImTriangleContainsPoint@@YA_NABUImVec2@@000@Z 1008bf20 f   imgui.obj
 0001:0008b0a0       ?ImTriangleBarycentricCoords@@YAXABUImVec2@@000AAM11@Z 1008c0a0 f   imgui.obj
 0001:0008b1f0       ?ImTriangleClosestPoint@@YA?AUImVec2@@ABU1@000@Z 1008c1f0 f   imgui.obj
 0001:0008b3f0       ?ImStrncpy@@YAXPADPBDI@Z   1008c3f0 f   imgui.obj
 0001:0008b430       ?ImStrdup@@YAPADPBD@Z      1008c430 f   imgui.obj
 0001:0008b4a0       ?ImStrdupcpy@@YAPADPADPAIPBD@Z 1008c4a0 f   imgui.obj
 0001:0008b580       ?ImStrchrRange@@YAPBDPBD0D@Z 1008c580 f   imgui.obj
 0001:0008b5c0       ?ImStreolRange@@YAPBDPBD0@Z 1008c5c0 f   imgui.obj
 0001:0008b610       ?ImStrbolW@@YAPBGPBG0@Z    1008c610 f   imgui.obj
 0001:0008b650       ?ImStrTrimBlanks@@YAXPAD@Z 1008c650 f   imgui.obj
 0001:0008b720       ?ImFormatString@@YAHPADIPBDZZ 1008c720 f   imgui.obj
 0001:0008b7c0       ?ImFormatStringV@@YAHPADIPBD0@Z 1008c7c0 f   imgui.obj
 0001:0008b850       ?ImHashData@@YAIPBXII@Z    1008c850 f   imgui.obj
 0001:0008b8d0       ?ImHashStr@@YAIPBDII@Z     1008c8d0 f   imgui.obj
 0001:0008ba20       ?ImFileOpen@@YAPAU_iobuf@@PBD0@Z 1008ca20 f   imgui.obj
 0001:0008bb40       ?ImFileClose@@YA_NPAU_iobuf@@@Z 1008cb40 f   imgui.obj
 0001:0008bb80       ?ImFileGetSize@@YA_KPAU_iobuf@@@Z 1008cb80 f   imgui.obj
 0001:0008bc20       ?ImFileRead@@YA_KPAX_K1PAU_iobuf@@@Z 1008cc20 f   imgui.obj
 0001:0008bc50       ?ImFileWrite@@YA_KPBX_K1PAU_iobuf@@@Z 1008cc50 f   imgui.obj
 0001:0008bc80       ?ImFileLoadToMemory@@YAPAXPBD0PAIH@Z 1008cc80 f   imgui.obj
 0001:0008bdb0       ?ImTextCharFromUtf8@@YAHPAIPBD1@Z 1008cdb0 f   imgui.obj
 0001:0008c200       ?ImTextStrFromUtf8@@YAHPAGHPBD1PAPBD@Z 1008d200 f   imgui.obj
 0001:0008c2a0       ?ImTextCountCharsFromUtf8@@YAHPBD0@Z 1008d2a0 f   imgui.obj
 0001:0008c490       ?ImTextStrToUtf8@@YAHPADHPBG1@Z 1008d490 f   imgui.obj
 0001:0008c540       ?ImTextCountUtf8BytesFromStr@@YAHPBG0@Z 1008d540 f   imgui.obj
 0001:0008c610       ?ImAlphaBlendColors@@YAIII@Z 1008d610 f   imgui.obj
 0001:0008c710       ?ColorConvertFloat4ToU32@ImGui@@YAIABUImVec4@@@Z 1008d710 f   imgui.obj
 0001:0008c8f0       ?ColorConvertRGBtoHSV@ImGui@@YAXMMMAAM00@Z 1008d8f0 f   imgui.obj
 0001:0008ca20       ?ColorConvertHSVtoRGB@ImGui@@YAXMMMAAM00@Z 1008da20 f   imgui.obj
 0001:0008ccd0       ?GetVoidPtr@ImGuiStorage@@QBEPAXI@Z 1008dcd0 f   imgui.obj
 0001:0008cd30       ?SetVoidPtr@ImGuiStorage@@QAEXIPAX@Z 1008dd30 f   imgui.obj
 0001:0008cdb0       ?append@ImGuiTextBuffer@@QAEXPBD0@Z 1008ddb0 f   imgui.obj
 0001:0008ced0       ?appendf@ImGuiTextBuffer@@QAAXPBDZZ 1008ded0 f   imgui.obj
 0001:0008cf00       ?appendfv@ImGuiTextBuffer@@QAEXPBDPAD@Z 1008df00 f   imgui.obj
 0001:0008d000       ?CalcListClipping@ImGui@@YAXHMPAH0@Z 1008e000 f   imgui.obj
 0001:0008d3b0       ?Begin@ImGuiListClipper@@QAEXHM@Z 1008e3b0 f   imgui.obj
 0001:0008d4a0       ?End@ImGuiListClipper@@QAEXXZ 1008e4a0 f   imgui.obj
 0001:0008d520       ?Step@ImGuiListClipper@@QAE_NXZ 1008e520 f   imgui.obj
 0001:0008d660       ?GetStyle@ImGui@@YAAAUImGuiStyle@@XZ 1008e660 f   imgui.obj
 0001:0008d680       ?GetColorU32@ImGui@@YAIHM@Z 1008e680 f   imgui.obj
 0001:0008d6f0       ?GetColorU32@ImGui@@YAIABUImVec4@@@Z 1008e6f0 f   imgui.obj
 0001:0008d750       ?GetStyleColorVec4@ImGui@@YAABUImVec4@@H@Z 1008e750 f   imgui.obj
 0001:0008d780       ?GetColorU32@ImGui@@YAII@Z 1008e780 f   imgui.obj
 0001:0008d810       ?PushStyleColor@ImGui@@YAXHABUImVec4@@@Z 1008e810 f   imgui.obj
 0001:0008d8d0       ?PopStyleColor@ImGui@@YAXH@Z 1008e8d0 f   imgui.obj
 0001:0008d990       ?PushStyleVar@ImGui@@YAXHM@Z 1008e990 f   imgui.obj
 0001:0008da30       ?PushStyleVar@ImGui@@YAXHABUImVec2@@@Z 1008ea30 f   imgui.obj
 0001:0008daf0       ?PopStyleVar@ImGui@@YAXH@Z 1008eaf0 f   imgui.obj
 0001:0008dc00       ?FindRenderedTextEnd@ImGui@@YAPBDPBD0@Z 1008ec00 f   imgui.obj
 0001:0008dc70       ?RenderText@ImGui@@YAXUImVec2@@PBD1_N@Z 1008ec70 f   imgui.obj
 0001:0008dda0       ?RenderTextWrapped@ImGui@@YAXUImVec2@@PBD1M@Z 1008eda0 f   imgui.obj
 0001:0008deb0       ?RenderTextClippedEx@ImGui@@YAXPAUImDrawList@@ABUImVec2@@1PBD2PBU3@1PBUImRect@@@Z 1008eeb0 f   imgui.obj
 0001:0008e180       ?RenderTextClipped@ImGui@@YAXABUImVec2@@0PBD1PBU2@0PBUImRect@@@Z 1008f180 f   imgui.obj
 0001:0008e220       ?RenderFrame@ImGui@@YAXUImVec2@@0I_NM@Z 1008f220 f   imgui.obj
 0001:0008e3f0       ?RenderFrameBorder@ImGui@@YAXUImVec2@@0M@Z 1008f3f0 f   imgui.obj
 0001:0008e590       ?RenderNavHighlight@ImGui@@YAXABUImRect@@IH@Z 1008f590 f   imgui.obj
 0001:0008e860       ??0ImGuiWindow@@QAE@PAUImGuiContext@@PBD@Z 1008f860 f   imgui.obj
 0001:0008f340       ??1ImGuiWindowTempData@@QAE@XZ 10090340 f i imgui.obj
 0001:0008f470       ?GetID@ImGuiWindow@@QAEIPBD0@Z 10090470 f   imgui.obj
 0001:0008f4f0       ?GetID@ImGuiWindow@@QAEIH@Z 100904f0 f   imgui.obj
 0001:0008f550       ?GetIDNoKeepAlive@ImGuiWindow@@QAEIPBD0@Z 10090550 f   imgui.obj
 0001:0008f5c0       ?GetIDNoKeepAlive@ImGuiWindow@@QAEIPBX@Z 100905c0 f   imgui.obj
 0001:0008f5c0       ?GetIDNoKeepAlive@ImGuiWindow@@QAEIH@Z 100905c0 f   imgui.obj
 0001:0008f610       ?GetIDFromRectangle@ImGuiWindow@@QAEIABUImRect@@@Z 10090610 f   imgui.obj
 0001:0008f780       ?GcCompactTransientWindowBuffers@ImGui@@YAXPAUImGuiWindow@@@Z 10090780 f   imgui.obj
 0001:0008f960       ?GcAwakeTransientWindowBuffers@ImGui@@YAXPAUImGuiWindow@@@Z 10090960 f   imgui.obj
 0001:0008f9e0       ?SetActiveID@ImGui@@YAXIPAUImGuiWindow@@@Z 100909e0 f   imgui.obj
 0001:0008fb40       ?ClearActiveID@ImGui@@YAXXZ 10090b40 f   imgui.obj
 0001:0008fb60       ?SetHoveredID@ImGui@@YAXI@Z 10090b60 f   imgui.obj
 0001:0008fbc0       ?KeepAliveID@ImGui@@YAXI@Z 10090bc0 f   imgui.obj
 0001:0008fc10       ?MarkItemEdited@ImGui@@YAXI@Z 10090c10 f   imgui.obj
 0001:0008fcf0       ?IsItemHovered@ImGui@@YA_NH@Z 10090cf0 f   imgui.obj
 0001:0008fe20       ?ItemHoverable@ImGui@@YA_NABUImRect@@I@Z 10090e20 f   imgui.obj
 0001:0008ffa0       ?IsClippedEx@ImGui@@YA_NABUImRect@@I_N@Z 10090fa0 f   imgui.obj
 0001:00090020       ?FocusableItemRegister@ImGui@@YA_NPAUImGuiWindow@@I@Z 10091020 f   imgui.obj
 0001:000901d0       ?FocusableItemUnregister@ImGui@@YAXPAUImGuiWindow@@@Z 100911d0 f   imgui.obj
 0001:00090210       ?CalcWrapWidthForPos@ImGui@@YAMABUImVec2@@M@Z 10091210 f   imgui.obj
 0001:000902d0       ?MemAlloc@ImGui@@YAPAXI@Z  100912d0 f   imgui.obj
 0001:00090330       ?MemFree@ImGui@@YAXPAX@Z   10091330 f   imgui.obj
 0001:00090390       ?GetClipboardText@ImGui@@YAPBDXZ 10091390 f   imgui.obj
 0001:000903f0       ?SetClipboardText@ImGui@@YAXPBD@Z 100913f0 f   imgui.obj
 0001:00090440       ?GetCurrentContext@ImGui@@YAPAUImGuiContext@@XZ 10091440 f   imgui.obj
 0001:00090460       ?SetCurrentContext@ImGui@@YAXPAUImGuiContext@@@Z 10091460 f   imgui.obj
 0001:00090480       ?CreateContext@ImGui@@YAPAUImGuiContext@@PAUImFontAtlas@@@Z 10091480 f   imgui.obj
 0001:00090530       ?GetIO@ImGui@@YAAAUImGuiIO@@XZ 10091530 f   imgui.obj
 0001:00090550       ?GetDrawData@ImGui@@YAPAUImDrawData@@XZ 10091550 f   imgui.obj
 0001:000905a0       ?GetForegroundDrawList@ImGui@@YAPAUImDrawList@@XZ 100915a0 f   imgui.obj
 0001:000905c0       ?StartMouseMovingWindow@ImGui@@YAXPAUImGuiWindow@@@Z 100915c0 f   imgui.obj
 0001:000906b0       ?UpdateMouseMovingWindowNewFrame@ImGui@@YAXXZ 100916b0 f   imgui.obj
 0001:00090850       ?UpdateMouseMovingWindowEndFrame@ImGui@@YAXXZ 10091850 f   imgui.obj
 0001:00091f70       ?UpdateHoveredWindowAndCaptureFlags@ImGui@@YAXXZ 10092f70 f   imgui.obj
 0001:000922a0       ?GetMergedKeyModFlags@ImGui@@YAHXZ 100932a0 f   imgui.obj
 0001:000922c0       ?NewFrame@ImGui@@YAXXZ     100932c0 f   imgui.obj
 0001:00092d70       ?Initialize@ImGui@@YAXPAUImGuiContext@@@Z 10093d70 f   imgui.obj
 0001:000930a0       ?FlattenIntoSingleLayer@ImDrawDataBuilder@@QAEXXZ 100940a0 f   imgui.obj
 0001:000932d0       ?PushClipRect@ImGui@@YAXABUImVec2@@0_N@Z 100942d0 f   imgui.obj
 0001:00093380       ?PopClipRect@ImGui@@YAXXZ  10094380 f   imgui.obj
 0001:00093410       ?EndFrame@ImGui@@YAXXZ     10094410 f   imgui.obj
 0001:00093790       ?Render@ImGui@@YAXXZ       10094790 f   imgui.obj
 0001:00093ae0       ?CalcTextSize@ImGui@@YA?AUImVec2@@PBD0_NM@Z 10094ae0 f   imgui.obj
 0001:00093e20       ?IsMouseHoveringRect@ImGui@@YA_NABUImVec2@@0_N@Z 10094e20 f   imgui.obj
 0001:00093f50       ?IsKeyDown@ImGui@@YA_NH@Z  10094f50 f   imgui.obj
 0001:00093f80       ?CalcTypematicRepeatAmount@ImGui@@YAHMMMM@Z 10094f80 f   imgui.obj
 0001:00094070       ?GetKeyPressedAmount@ImGui@@YAHHMM@Z 10095070 f   imgui.obj
 0001:000940f0       ?IsKeyPressed@ImGui@@YA_NH_N@Z 100950f0 f   imgui.obj
 0001:000941b0       ?IsMouseDown@ImGui@@YA_NH@Z 100951b0 f   imgui.obj
 0001:000941e0       ?IsMouseClicked@ImGui@@YA_NH_N@Z 100951e0 f   imgui.obj
 0001:000942a0       ?IsMouseReleased@ImGui@@YA_NH@Z 100952a0 f   imgui.obj
 0001:000942d0       ?IsMouseDragPastThreshold@ImGui@@YA_NHM@Z 100952d0 f   imgui.obj
 0001:00094340       ?IsMouseDragging@ImGui@@YA_NHM@Z 10095340 f   imgui.obj
 0001:00094390       ?IsMousePosValid@ImGui@@YA_NPBUImVec2@@@Z 10095390 f   imgui.obj
 0001:00094420       ?IsAnyMouseDown@ImGui@@YA_NXZ 10095420 f   imgui.obj
 0001:00094470       ?GetMouseCursor@ImGui@@YAHXZ 10095470 f   imgui.obj
 0001:00094490       ?SetMouseCursor@ImGui@@YAXH@Z 10095490 f   imgui.obj
 0001:000944b0       ?IsItemActive@ImGui@@YA_NXZ 100954b0 f   imgui.obj
 0001:00094510       ?IsItemFocused@ImGui@@YA_NXZ 10095510 f   imgui.obj
 0001:00094570       ?IsItemVisible@ImGui@@YA_NXZ 10095570 f   imgui.obj
 0001:000945c0       ?SetItemAllowOverlap@ImGui@@YAXXZ 100955c0 f   imgui.obj
 0001:000946b0       ?BeginChildEx@ImGui@@YA_NPBDIABUImVec2@@_NH@Z 100956b0 f   imgui.obj
 0001:00094980       ?BeginChild@ImGui@@YA_NPBDABUImVec2@@_NH@Z 10095980 f   imgui.obj
 0001:000949e0       ?BeginChild@ImGui@@YA_NIABUImVec2@@_NH@Z 100959e0 f   imgui.obj
 0001:00094a10       ?EndChild@ImGui@@YAXXZ     10095a10 f   imgui.obj
 0001:00094d10       ?BeginChildFrame@ImGui@@YA_NIABUImVec2@@H@Z 10095d10 f   imgui.obj
 0001:00094dd0       ?EndChildFrame@ImGui@@YAXXZ 10095dd0 f   imgui.obj
 0001:00094eb0       ?FindWindowByID@ImGui@@YAPAUImGuiWindow@@I@Z 10095eb0 f   imgui.obj
 0001:00094ef0       ?FindWindowByName@ImGui@@YAPAUImGuiWindow@@PBD@Z 10095ef0 f   imgui.obj
 0001:00095640       ??0ImGuiSizeCallbackData@@QAE@XZ 10096640 f i imgui.obj
 0001:00095c90       ?CalcWindowExpectedSize@ImGui@@YA?AUImVec2@@PAUImGuiWindow@@@Z 10096c90 f   imgui.obj
 0001:00099170       ?UpdateWindowParentAndRootLinks@ImGui@@YAXPAUImGuiWindow@@H0@Z 1009a170 f   imgui.obj
 0001:00099240       ?Begin@ImGui@@YA_NPBDPA_NH@Z 1009a240 f   imgui.obj
 0001:0009c490       ?End@ImGui@@YAXXZ          1009d490 f   imgui.obj
 0001:0009c5b0       ?BringWindowToFocusFront@ImGui@@YAXPAUImGuiWindow@@@Z 1009d5b0 f   imgui.obj
 0001:0009c6b0       ?BringWindowToDisplayFront@ImGui@@YAXPAUImGuiWindow@@@Z 1009d6b0 f   imgui.obj
 0001:0009c7d0       ?FocusWindow@ImGui@@YAXPAUImGuiWindow@@@Z 1009d7d0 f   imgui.obj
 0001:0009c940       ?FocusTopMostWindowUnderOne@ImGui@@YAXPAUImGuiWindow@@0@Z 1009d940 f   imgui.obj
 0001:0009ca20       ?SetCurrentFont@ImGui@@YAXPAUImFont@@@Z 1009da20 f   imgui.obj
 0001:0009cb80       ?PushFont@ImGui@@YAXPAUImFont@@@Z 1009db80 f   imgui.obj
 0001:0009cc00       ?PopFont@ImGui@@YAXXZ      1009dc00 f   imgui.obj
 0001:0009cca0       ?PushItemFlag@ImGui@@YAXH_N@Z 1009dca0 f   imgui.obj
 0001:0009cd30       ?PopItemFlag@ImGui@@YAXXZ  1009dd30 f   imgui.obj
 0001:0009cde0       ?IsWindowChildOf@ImGui@@YA_NPAUImGuiWindow@@0@Z 1009dde0 f   imgui.obj
 0001:0009ce30       ?IsWindowNavFocusable@ImGui@@YA_NPAUImGuiWindow@@@Z 1009de30 f   imgui.obj
 0001:0009ce80       ?GetWindowPos@ImGui@@YA?AUImVec2@@XZ 1009de80 f   imgui.obj
 0001:0009cec0       ?SetWindowPos@ImGui@@YAXPAUImGuiWindow@@ABUImVec2@@H@Z 1009dec0 f   imgui.obj
 0001:0009d060       ?GetWindowSize@ImGui@@YA?AUImVec2@@XZ 1009e060 f   imgui.obj
 0001:0009d0a0       ?SetWindowSize@ImGui@@YAXPAUImGuiWindow@@ABUImVec2@@H@Z 1009e0a0 f   imgui.obj
 0001:0009d170       ?SetWindowSize@ImGui@@YAXABUImVec2@@H@Z 1009e170 f   imgui.obj
 0001:0009d1a0       ?SetWindowCollapsed@ImGui@@YAXPAUImGuiWindow@@_NH@Z 1009e1a0 f   imgui.obj
 0001:0009d1f0       ?SetNextWindowPos@ImGui@@YAXABUImVec2@@H0@Z 1009e1f0 f   imgui.obj
 0001:0009d270       ?SetNextWindowSize@ImGui@@YAXABUImVec2@@H@Z 1009e270 f   imgui.obj
 0001:0009d2e0       ?SetNextWindowSizeConstraints@ImGui@@YAXABUImVec2@@0P6AXPAUImGuiSizeCallbackData@@@ZPAX@Z 1009e2e0 f   imgui.obj
 0001:0009d370       ?SetNextWindowScroll@ImGui@@YAXABUImVec2@@@Z 1009e370 f   imgui.obj
 0001:0009d3c0       ?SetNextWindowBgAlpha@ImGui@@YAXM@Z 1009e3c0 f   imgui.obj
 0001:0009d400       ?GetWindowDrawList@ImGui@@YAPAUImDrawList@@XZ 1009e400 f   imgui.obj
 0001:0009d440       ?GetFontTexUvWhitePixel@ImGui@@YA?AUImVec2@@XZ 1009e440 f   imgui.obj
 0001:0009d470       ?SetWindowFontScale@ImGui@@YAXM@Z 1009e470 f   imgui.obj
 0001:0009d540       ?SetItemDefaultFocus@ImGui@@YAXXZ 1009e540 f   imgui.obj
 0001:0009d720       ?PushID@ImGui@@YAXPBD@Z    1009e720 f   imgui.obj
 0001:0009d780       ?PushID@ImGui@@YAXPBX@Z    1009e780 f   imgui.obj
 0001:0009d780       ?PushID@ImGui@@YAXH@Z      1009e780 f   imgui.obj
 0001:0009d7d0       ?PopID@ImGui@@YAXXZ        1009e7d0 f   imgui.obj
 0001:0009d810       ?GetID@ImGui@@YAIPBD@Z     1009e810 f   imgui.obj
 0001:0009d840       ?IsRectVisible@ImGui@@YA_NABUImVec2@@0@Z 1009e840 f   imgui.obj
 0001:0009da70       ?ItemSize@ImGui@@YAXABUImVec2@@M@Z 1009ea70 f   imgui.obj
 0001:0009dd30       ?ItemSize@ImGui@@YAXABUImRect@@M@Z 1009ed30 f   imgui.obj
 0001:0009dd70       ?ItemAdd@ImGui@@YA_NABUImRect@@IPBU2@@Z 1009ed70 f   imgui.obj
 0001:0009def0       ?SameLine@ImGui@@YAXMM@Z   1009eef0 f   imgui.obj
 0001:0009e030       ?GetCursorScreenPos@ImGui@@YA?AUImVec2@@XZ 1009f030 f   imgui.obj
 0001:0009e080       ?SetCursorScreenPos@ImGui@@YAXABUImVec2@@@Z 1009f080 f   imgui.obj
 0001:0009e170       ?GetCursorPosX@ImGui@@YAMXZ 1009f170 f   imgui.obj
 0001:0009e1c0       ?GetCursorPosY@ImGui@@YAMXZ 1009f1c0 f   imgui.obj
 0001:0009e210       ?SetCursorPos@ImGui@@YAXABUImVec2@@@Z 1009f210 f   imgui.obj
 0001:0009e380       ?SetCursorPosX@ImGui@@YAXM@Z 1009f380 f   imgui.obj
 0001:0009e430       ?SetCursorPosY@ImGui@@YAXM@Z 1009f430 f   imgui.obj
 0001:0009e4e0       ?SetNextItemWidth@ImGui@@YAXM@Z 1009f4e0 f   imgui.obj
 0001:0009e520       ?PushItemWidth@ImGui@@YAXM@Z 1009f520 f   imgui.obj
 0001:0009e5c0       ?PopItemWidth@ImGui@@YAXXZ 1009f5c0 f   imgui.obj
 0001:0009e680       ?CalcItemWidth@ImGui@@YAMXZ 1009f680 f   imgui.obj
 0001:0009e760       ?CalcItemSize@ImGui@@YA?AUImVec2@@U2@MM@Z 1009f760 f   imgui.obj
 0001:0009e8b0       ?GetTextLineHeight@ImGui@@YAMXZ 1009f8b0 f   imgui.obj
 0001:0009e8e0       ?GetTextLineHeightWithSpacing@ImGui@@YAMXZ 1009f8e0 f   imgui.obj
 0001:0009e920       ?GetFrameHeight@ImGui@@YAMXZ 1009f920 f   imgui.obj
 0001:0009e970       ?GetContentRegionMaxAbs@ImGui@@YA?AUImVec2@@XZ 1009f970 f   imgui.obj
 0001:0009e9e0       ?GetContentRegionAvail@ImGui@@YA?AUImVec2@@XZ 1009f9e0 f   imgui.obj
 0001:0009ea70       ?BeginGroup@ImGui@@YAXXZ   1009fa70 f   imgui.obj
 0001:0009ec30       ?EndGroup@ImGui@@YAXXZ     1009fc30 f   imgui.obj
 0001:0009f330       ?ScrollToBringRectIntoView@ImGui@@YA?AUImVec2@@PAUImGuiWindow@@ABUImRect@@@Z 100a0330 f   imgui.obj
 0001:0009f750       ?GetScrollMaxY@ImGui@@YAMXZ 100a0750 f   imgui.obj
 0001:0009f780       ?SetScrollY@ImGui@@YAXM@Z  100a0780 f   imgui.obj
 0001:0009f7d0       ?SetScrollX@ImGui@@YAXPAUImGuiWindow@@M@Z 100a07d0 f   imgui.obj
 0001:0009f800       ?SetScrollY@ImGui@@YAXPAUImGuiWindow@@M@Z 100a0800 f   imgui.obj
 0001:0009f830       ?SetScrollFromPosX@ImGui@@YAXPAUImGuiWindow@@MM@Z 100a0830 f   imgui.obj
 0001:0009f870       ?SetScrollFromPosY@ImGui@@YAXPAUImGuiWindow@@MM@Z 100a0870 f   imgui.obj
 0001:0009f8f0       ?SetScrollFromPosY@ImGui@@YAXMM@Z 100a08f0 f   imgui.obj
 0001:0009f940       ?SetScrollHereY@ImGui@@YAXM@Z 100a0940 f   imgui.obj
 0001:0009f9e0       ?BeginTooltip@ImGui@@YAXXZ 100a09e0 f   imgui.obj
 0001:0009fa00       ?BeginTooltipEx@ImGui@@YAXHH@Z 100a0a00 f   imgui.obj
 0001:0009fbd0       ?EndTooltip@ImGui@@YAXXZ   100a0bd0 f   imgui.obj
 0001:0009fbf0       ?SetTooltipV@ImGui@@YAXPBDPAD@Z 100a0bf0 f   imgui.obj
 0001:0009fc20       ?SetTooltip@ImGui@@YAXPBDZZ 100a0c20 f   imgui.obj
 0001:0009fc50       ?IsPopupOpen@ImGui@@YA_NIH@Z 100a0c50 f   imgui.obj
 0001:0009fd80       ?GetTopMostPopupModal@ImGui@@YAPAUImGuiWindow@@XZ 100a0d80 f   imgui.obj
 0001:0009fdf0       ?OpenPopup@ImGui@@YAXPBDH@Z 100a0df0 f   imgui.obj
 0001:0009fe40       ?OpenPopupEx@ImGui@@YAXIH@Z 100a0e40 f   imgui.obj
 0001:0009fff0       ?ClosePopupsOverWindow@ImGui@@YAXPAUImGuiWindow@@_N@Z 100a0ff0 f   imgui.obj
 0001:000a0120       ?ClosePopupToLevel@ImGui@@YAXH_N@Z 100a1120 f   imgui.obj
 0001:000a01f0       ?CloseCurrentPopup@ImGui@@YAXXZ 100a11f0 f   imgui.obj
 0001:000a0330       ?BeginPopupEx@ImGui@@YA_NIH@Z 100a1330 f   imgui.obj
 0001:000a03f0       ?BeginPopup@ImGui@@YA_NPBDH@Z 100a13f0 f   imgui.obj
 0001:000a0470       ?EndPopup@ImGui@@YAXXZ     100a1470 f   imgui.obj
 0001:000a04e0       ?OpenPopupContextItem@ImGui@@YA_NPBDH@Z 100a14e0 f   imgui.obj
 0001:000a0570       ?FindBestWindowPosForPopupEx@ImGui@@YA?AUImVec2@@ABU2@0PAHABUImRect@@2W4ImGuiPopupPositionPolicy@@@Z 100a1570 f   imgui.obj
 0001:000a0c70       ?GetWindowAllowedExtentRect@ImGui@@YA?AUImRect@@PAUImGuiWindow@@@Z 100a1c70 f   imgui.obj
 0001:000a0d60       ?FindBestWindowPosForPopup@ImGui@@YA?AUImVec2@@PAUImGuiWindow@@@Z 100a1d60 f   imgui.obj
 0001:000a13b0       ?SetNavID@ImGui@@YAXIHI@Z  100a23b0 f   imgui.obj
 0001:000a1400       ?SetNavIDWithRectRel@ImGui@@YAXIHIABUImRect@@@Z 100a2400 f   imgui.obj
 0001:000a1480       ?SetFocusID@ImGui@@YAXIPAUImGuiWindow@@@Z 100a2480 f   imgui.obj
 0001:000a1630       ?ImGetDirQuadrantFromDelta@@YAHMM@Z 100a2630 f   imgui.obj
 0001:000a2320       ?NavMoveRequestButNoResultYet@ImGui@@YA_NXZ 100a3320 f   imgui.obj
 0001:000a2380       ?NavMoveRequestCancel@ImGui@@YAXXZ 100a3380 f   imgui.obj
 0001:000a23b0       ?NavMoveRequestForward@ImGui@@YAXHHABUImRect@@H@Z 100a33b0 f   imgui.obj
 0001:000a2440       ?NavMoveRequestTryWrapping@ImGui@@YAXPAUImGuiWindow@@H@Z 100a3440 f   imgui.obj
 0001:000a2650       ?NavInitWindow@ImGui@@YAXPAUImGuiWindow@@_N@Z 100a3650 f   imgui.obj
 0001:000a29e0       ?GetNavInputAmount@ImGui@@YAMHW4ImGuiInputReadMode@@@Z 100a39e0 f   imgui.obj
 0001:000a2c00       ?GetNavInputAmount2d@ImGui@@YA?AUImVec2@@HW4ImGuiInputReadMode@@MM@Z 100a3c00 f   imgui.obj
 0001:000a6a10       ?ClearDragDrop@ImGui@@YAXXZ 100a7a10 f   imgui.obj
 0001:000a6af0       ?BeginDragDropSource@ImGui@@YA_NH@Z 100a7af0 f   imgui.obj
 0001:000a6df0       ?EndDragDropSource@ImGui@@YAXXZ 100a7df0 f   imgui.obj
 0001:000a6e40       ?SetDragDropPayload@ImGui@@YA_NPBDPBXIH@Z 100a7e40 f   imgui.obj
 0001:000a6fa0       ?BeginDragDropTarget@ImGui@@YA_NXZ 100a7fa0 f   imgui.obj
 0001:000a70c0       ?AcceptDragDropPayload@ImGui@@YAPBUImGuiPayload@@PBDH@Z 100a80c0 f   imgui.obj
 0001:000a74e0       ?EndDragDropTarget@ImGui@@YAXXZ 100a84e0 f   imgui.obj
 0001:000a7510       ?LogText@ImGui@@YAXPBDZZ   100a8510 f   imgui.obj
 0001:000a7630       ?LogRenderedText@ImGui@@YAXPBUImVec2@@PBD1@Z 100a8630 f   imgui.obj
 0001:000a7830       ?LogFinish@ImGui@@YAXXZ    100a8830 f   imgui.obj
 0001:000a7a10       ?MarkIniSettingsDirty@ImGui@@YAXPAUImGuiWindow@@@Z 100a8a10 f   imgui.obj
 0001:000a7a60       ?CreateNewWindowSettings@ImGui@@YAPAUImGuiWindowSettings@@PBD@Z 100a8a60 f   imgui.obj
 0001:000a7b80       ?FindWindowSettings@ImGui@@YAPAUImGuiWindowSettings@@I@Z 100a8b80 f   imgui.obj
 0001:000a7c40       ?FindOrCreateWindowSettings@ImGui@@YAPAUImGuiWindowSettings@@PBD@Z 100a8c40 f   imgui.obj
 0001:000a7c90       ?FindSettingsHandler@ImGui@@YAPAUImGuiSettingsHandler@@PBD@Z 100a8c90 f   imgui.obj
 0001:000a7d20       ?LoadIniSettingsFromDisk@ImGui@@YAXPBD@Z 100a8d20 f   imgui.obj
 0001:000a7d80       ?LoadIniSettingsFromMemory@ImGui@@YAXPBDI@Z 100a8d80 f   imgui.obj
 0001:000a8130       ?SaveIniSettingsToDisk@ImGui@@YAXPBD@Z 100a9130 f   imgui.obj
 0001:000a81c0       ?SaveIniSettingsToMemory@ImGui@@YAPBDPAI@Z 100a91c0 f   imgui.obj
 0001:000a8aa0       ??1?$ImVector@UImGuiShrinkWidthItem@@@@QAE@XZ 100a9aa0 f i imgui.obj
 0001:000a8aa0       ??1?$ImVector@UImGuiColorMod@@@@QAE@XZ 100a9aa0 f i imgui.obj
 0001:000a8aa0       ??1?$ImVector@UImFontBuildSrcData@@@@QAE@XZ 100a9aa0 f i imgui_draw.obj
 0001:000a8aa0       ??1?$ImVector@UImGuiColumns@@@@QAE@XZ 100a9aa0 f i imgui.obj
 0001:000a8aa0       ??1?$ImVector@UImGuiSettingsHandler@@@@QAE@XZ 100a9aa0 f i imgui.obj
 0001:000a8aa0       ??1?$ImVector@PAUImDrawList@@@@QAE@XZ 100a9aa0 f i imgui.obj
 0001:000a8aa0       ??1?$ImVector@UImGuiPtrOrIndex@@@@QAE@XZ 100a9aa0 f i imgui.obj
 0001:000a8aa0       ??1?$ImVector@UImGuiStyleMod@@@@QAE@XZ 100a9aa0 f i imgui.obj
 0001:000a8aa0       ??1?$ImVector@E@@QAE@XZ    100a9aa0 f i imgui.obj
 0001:000a8aa0       ??1?$ImVector@PAUImGuiWindow@@@@QAE@XZ 100a9aa0 f i imgui.obj
 0001:000a8aa0       ??1?$ImVector@D@@QAE@XZ    100a9aa0 f i imgui.obj
 0001:000a8aa0       ??1?$ImVector@I@@QAE@XZ    100a9aa0 f i imgui.obj
 0001:000a8aa0       ??1?$ImVector@Ustbtt_packedchar@@@@QAE@XZ 100a9aa0 f i imgui_draw.obj
 0001:000a8aa0       ??1?$ImVector@UImFontBuildDstData@@@@QAE@XZ 100a9aa0 f i imgui_draw.obj
 0001:000a8aa0       ??1?$ImVector@PAUImFont@@@@QAE@XZ 100a9aa0 f i imgui.obj
 0001:000a8aa0       ??1?$ImVector@UImGuiPopupData@@@@QAE@XZ 100a9aa0 f i imgui.obj
 0001:000a8aa0       ??1?$ImVector@Ustbrp_rect@@@@QAE@XZ 100a9aa0 f i imgui_draw.obj
 0001:000a8b00       ?resize@?$ImVector@UImGuiGroupData@@@@QAEXH@Z 100a9b00 f i imgui.obj
 0001:000a8b80       ?push_back@?$ImVector@H@@QAEXABH@Z 100a9b80 f i imgui.obj
 0001:000a8b80       ?push_back@?$ImVector@PAUImGuiWindow@@@@QAEXABQAUImGuiWindow@@@Z 100a9b80 f i imgui.obj
 0001:000a8b80       ?push_back@?$ImVector@PAX@@QAEXABQAX@Z 100a9b80 f i imgui_draw.obj
 0001:000a8b80       ?push_back@?$ImVector@I@@QAEXABI@Z 100a9b80 f i imgui.obj
 0001:000a8b80       ?push_back@?$ImVector@PAUImDrawList@@@@QAEXABQAUImDrawList@@@Z 100a9b80 f i imgui.obj
 0001:000a8b80       ?push_back@?$ImVector@PAUImFont@@@@QAEXABQAUImFont@@@Z 100a9b80 f i imgui.obj
 0001:000a8b80       ?push_back@?$ImVector@M@@QAEXABM@Z 100a9b80 f i imgui.obj
 0001:000a8c20       ?resize@?$ImVector@PAX@@QAEXH@Z 100a9c20 f i imgui_draw.obj
 0001:000a8c20       ?resize@?$ImVector@M@@QAEXH@Z 100a9c20 f i imgui.obj
 0001:000a8c20       ?resize@?$ImVector@I@@QAEXH@Z 100a9c20 f i imgui.obj
 0001:000a8c20       ?resize@?$ImVector@H@@QAEXH@Z 100a9c20 f i imgui.obj
 0001:000a8c20       ?resize@?$ImVector@PAUImDrawList@@@@QAEXH@Z 100a9c20 f i imgui.obj
 0001:000a8c20       ?resize@?$ImVector@PAUImGuiWindow@@@@QAEXH@Z 100a9c20 f i imgui.obj
 0001:000a8ca0       ?alloc_chunk@?$ImChunkStream@UImGuiWindowSettings@@@@QAEPAUImGuiWindowSettings@@I@Z 100a9ca0 f i imgui.obj
 0001:000a8d10       ?Clear@ImBitVector@@QAEXXZ 100a9d10 f i imgui_draw.obj
 0001:000a8d10       ?clear@?$ImChunkStream@UImGuiWindowSettings@@@@QAEXXZ 100a9d10 f i imgui.obj
 0001:000a8d70       ?push_back@?$ImVector@UImGuiSettingsHandler@@@@QAEXABUImGuiSettingsHandler@@@Z 100a9d70 f i imgui.obj
 0001:000a8d70       ?push_back@?$ImVector@UImGuiPopupData@@@@QAEXABUImGuiPopupData@@@Z 100a9d70 f i imgui.obj
 0001:000a8e20       ?Clear@?$ImPool@UImGuiTabBar@@@@QAEXXZ 100a9e20 f i imgui.obj
 0001:000a8f00       ??1?$ImPool@UImGuiTabBar@@@@QAE@XZ 100a9f00 f i imgui.obj
 0001:000a8fa0       ??0?$ImPool@UImGuiTabBar@@@@QAE@XZ 100a9fa0 f i imgui.obj
 0001:000a9020       ?resize@?$ImVector@D@@QAEXH@Z 100aa020 f i imgui.obj
 0001:000a9020       ?resize@?$ImVector@E@@QAEXH@Z 100aa020 f i imgui.obj
 0001:000a90a0       ?resize@?$ImVector@UImGuiPopupData@@@@QAEXH@Z 100aa0a0 f i imgui.obj
 0001:000a9120       ?push_back@?$ImVector@UImGuiStyleMod@@@@QAEXABUImGuiStyleMod@@@Z 100aa120 f i imgui.obj
 0001:000a91d0       ?push_back@?$ImVector@UImGuiColorMod@@@@QAEXABUImGuiColorMod@@@Z 100aa1d0 f i imgui.obj
 0001:000a9290       ?reserve@?$ImVector@PAUImFont@@@@QAEXH@Z 100aa290 f i imgui.obj
 0001:000a9290       ?reserve@?$ImVector@PAX@@QAEXH@Z 100aa290 f i imgui_draw.obj
 0001:000a9290       ?reserve@?$ImVector@PAUImDrawList@@@@QAEXH@Z 100aa290 f i imgui.obj
 0001:000a9290       ?reserve@?$ImVector@I@@QAEXH@Z 100aa290 f i imgui.obj
 0001:000a9290       ?reserve@?$ImVector@M@@QAEXH@Z 100aa290 f i imgui.obj
 0001:000a9290       ?reserve@?$ImVector@PAUImGuiWindow@@@@QAEXH@Z 100aa290 f i imgui.obj
 0001:000a9290       ?reserve@?$ImVector@H@@QAEXH@Z 100aa290 f i imgui.obj
 0001:000a9310       ?swap@?$ImVector@PAUImGuiWindow@@@@QAEXAAU1@@Z 100aa310 f i imgui.obj
 0001:000a9380       ??0?$ImVector@PAUImDrawList@@@@QAE@XZ 100aa380 f i imgui.obj
 0001:000a93c0       ?push_back@?$ImVector@UImVec2@@@@QAEXABUImVec2@@@Z 100aa3c0 f i imgui.obj
 0001:000a9470       ?reserve@?$ImVector@UImGuiColorMod@@@@QAEXH@Z 100aa470 f i imgui.obj
 0001:000a9470       ?reserve@?$ImVector@UImDrawVert@@@@QAEXH@Z 100aa470 f i imgui.obj
 0001:000a94f0       ?insert@?$ImVector@UImGuiStoragePair@ImGuiStorage@@@@QAEPAUImGuiStoragePair@ImGuiStorage@@PBU23@ABU23@@Z 100aa4f0 f i imgui.obj
 0001:000a95f0       ?push_back@?$ImVector@D@@QAEXABD@Z 100aa5f0 f i imgui.obj
 0001:000a9690       ?reserve@?$ImVector@E@@QAEXH@Z 100aa690 f i imgui.obj
 0001:000a9690       ?reserve@?$ImVector@D@@QAEXH@Z 100aa690 f i imgui.obj
 0001:000a9710       ?push_back@?$ImVector@G@@QAEXABG@Z 100aa710 f i imgui.obj
 0001:000a97c0       ??1ImGuiTabBar@@QAE@XZ     100aa7c0 f i imgui.obj
 0001:000a9850       ?reserve@?$ImVector@UImGuiGroupData@@@@QAEXH@Z 100aa850 f i imgui.obj
 0001:000a98d0       ?reserve@?$ImVector@UImGuiSettingsHandler@@@@QAEXH@Z 100aa8d0 f i imgui.obj
 0001:000a98d0       ?reserve@?$ImVector@UImGuiPopupData@@@@QAEXH@Z 100aa8d0 f i imgui.obj
 0001:000a9950       ?reserve@?$ImVector@UImGuiStyleMod@@@@QAEXH@Z 100aa950 f i imgui.obj
 0001:000a99d0       ?insert@?$ImVector@PAUImGuiWindow@@@@QAEPAPAUImGuiWindow@@PBQAU2@ABQAU2@@Z 100aa9d0 f i imgui.obj
 0001:000a9ad0       ?reserve@?$ImVector@UImVec2@@@@QAEXH@Z 100aaad0 f i imgui.obj
 0001:000a9ad0       ?reserve@?$ImVector@UImGuiStoragePair@ImGuiStorage@@@@QAEXH@Z 100aaad0 f i imgui.obj
 0001:000a9b50       _sprintf                   100aab50 f i imgui_demo.obj
 0001:000a9bc0       ??0ImFontAtlasCustomRect@@QAE@XZ 100aabc0 f i imgui_draw.obj
 0001:000a9d90       ?Create@ImBitVector@@QAEXH@Z 100aad90 f i imgui_draw.obj
 0001:000b2930       ?StyleColorsDark@ImGui@@YAXPAUImGuiStyle@@@Z 100b3930 f   imgui_draw.obj
 0001:000b3bb0       ??0ImDrawListSharedData@@QAE@XZ 100b4bb0 f   imgui_draw.obj
 0001:000b3d80       ?SetCircleSegmentMaxError@ImDrawListSharedData@@QAEXM@Z 100b4d80 f   imgui_draw.obj
 0001:000b3e90       ?_ResetForNewFrame@ImDrawList@@QAEXXZ 100b4e90 f   imgui_draw.obj
 0001:000b3fa0       ?_ClearFreeMemory@ImDrawList@@QAEXXZ 100b4fa0 f   imgui_draw.obj
 0001:000b4160       ?AddDrawCmd@ImDrawList@@QAEXXZ 100b5160 f   imgui_draw.obj
 0001:000b41d0       ?_PopUnusedDrawCmd@ImDrawList@@QAEXXZ 100b51d0 f   imgui_draw.obj
 0001:000b4230       ?_OnChangedClipRect@ImDrawList@@QAEXXZ 100b5230 f   imgui_draw.obj
 0001:000b4310       ?_OnChangedTextureID@ImDrawList@@QAEXXZ 100b5310 f   imgui_draw.obj
 0001:000b43c0       ?_OnChangedVtxOffset@ImDrawList@@QAEXXZ 100b53c0 f   imgui_draw.obj
 0001:000b4420       ?PushClipRect@ImDrawList@@QAEXUImVec2@@0_N@Z 100b5420 f   imgui_draw.obj
 0001:000b4570       ?PushClipRectFullScreen@ImDrawList@@QAEXXZ 100b5570 f   imgui_draw.obj
 0001:000b4640       ?PopClipRect@ImDrawList@@QAEXXZ 100b5640 f   imgui_draw.obj
 0001:000b46d0       ?PushTextureID@ImDrawList@@QAEXPAX@Z 100b56d0 f   imgui_draw.obj
 0001:000b4710       ?PopTextureID@ImDrawList@@QAEXXZ 100b5710 f   imgui_draw.obj
 0001:000b4780       ?PrimReserve@ImDrawList@@QAEXHH@Z 100b5780 f   imgui_draw.obj
 0001:000b4860       ?PrimRect@ImDrawList@@QAEXABUImVec2@@0I@Z 100b5860 f   imgui_draw.obj
 0001:000b4ae0       ?PrimRectUV@ImDrawList@@QAEXABUImVec2@@000I@Z 100b5ae0 f   imgui_draw.obj
 0001:000b4db0       ?AddPolyline@ImDrawList@@QAEXPBUImVec2@@HI_NM@Z 100b5db0 f   imgui_draw.obj
 0001:000b6aa0       ?AddConvexPolyFilled@ImDrawList@@QAEXPBUImVec2@@HI@Z 100b7aa0 f   imgui_draw.obj
 0001:000b7110       ?PathArcToFast@ImDrawList@@QAEXABUImVec2@@MHH@Z 100b8110 f   imgui_draw.obj
 0001:000b7220       ?PathArcTo@ImDrawList@@QAEXABUImVec2@@MMMH@Z 100b8220 f   imgui_draw.obj
 0001:000b7350       ?PathRect@ImDrawList@@QAEXABUImVec2@@0MH@Z 100b8350 f   imgui_draw.obj
 0001:000b77a0       ?AddLine@ImDrawList@@QAEXABUImVec2@@0IM@Z 100b87a0 f   imgui_draw.obj
 0001:000b78d0       ?AddRect@ImDrawList@@QAEXABUImVec2@@0IMHM@Z 100b88d0 f   imgui_draw.obj
 0001:000b7ae0       ?AddRectFilled@ImDrawList@@QAEXABUImVec2@@0IMH@Z 100b8ae0 f   imgui_draw.obj
 0001:000b7b80       ?AddRectFilledMultiColor@ImDrawList@@QAEXABUImVec2@@0IIII@Z 100b8b80 f   imgui_draw.obj
 0001:000b7e60       ?AddTriangle@ImDrawList@@QAEXABUImVec2@@00IM@Z 100b8e60 f   imgui_draw.obj
 0001:000b7f00       ?AddTriangleFilled@ImDrawList@@QAEXABUImVec2@@00I@Z 100b8f00 f   imgui_draw.obj
 0001:000b7f90       ?AddCircle@ImDrawList@@QAEXABUImVec2@@MIHM@Z 100b8f90 f   imgui_draw.obj
 0001:000b8160       ?AddCircleFilled@ImDrawList@@QAEXABUImVec2@@MIH@Z 100b9160 f   imgui_draw.obj
 0001:000b8310       ?AddText@ImDrawList@@QAEXPBUImFont@@MABUImVec2@@IPBD2MPBUImVec4@@@Z 100b9310 f   imgui_draw.obj
 0001:000b8510       ?AddText@ImDrawList@@QAEXABUImVec2@@IPBD1@Z 100b9510 f   imgui_draw.obj
 0001:000b8560       ?AddImage@ImDrawList@@QAEXPAXABUImVec2@@111I@Z 100b9560 f   imgui_draw.obj
 0001:000b85f0       ?ClearFreeMemory@ImDrawListSplitter@@QAEXXZ 100b95f0 f   imgui_draw.obj
 0001:000b8750       ?Merge@ImDrawListSplitter@@QAEXPAUImDrawList@@@Z 100b9750 f   imgui_draw.obj
 0001:000b8b20       ?SetCurrentChannel@ImDrawListSplitter@@QAEXPAUImDrawList@@H@Z 100b9b20 f   imgui_draw.obj
 0001:000b8c60       ?ShadeVertsLinearColorGradientKeepAlpha@ImGui@@YAXPAUImDrawList@@HHUImVec2@@1II@Z 100b9c60 f   imgui_draw.obj
 0001:000b8e90       ??0ImFontConfig@@QAE@XZ    100b9e90 f   imgui_draw.obj
 0001:000b8ff0       ??0ImFontAtlas@@QAE@XZ     100b9ff0 f   imgui_draw.obj
 0001:000b9180       ?ClearTexData@ImFontAtlas@@QAEXXZ 100ba180 f   imgui_draw.obj
 0001:000b91e0       ?GetTexDataAsAlpha8@ImFontAtlas@@QAEXPAPAEPAH11@Z 100ba1e0 f   imgui_draw.obj
 0001:000b9280       ?GetTexDataAsRGBA32@ImFontAtlas@@QAEXPAPAEPAH11@Z 100ba280 f   imgui_draw.obj
 0001:000b9390       ?AddFont@ImFontAtlas@@QAEPAUImFont@@PBUImFontConfig@@@Z 100ba390 f   imgui_draw.obj
 0001:000b9680       ?AddFontDefault@ImFontAtlas@@QAEPAUImFont@@PBUImFontConfig@@@Z 100ba680 f   imgui_draw.obj
 0001:000b97b0       ?AddFontFromFileTTF@ImFontAtlas@@QAEPAUImFont@@PBDMPBUImFontConfig@@PBG@Z 100ba7b0 f   imgui_draw.obj
 0001:000b9920       ?AddFontFromMemoryTTF@ImFontAtlas@@QAEPAUImFont@@PAXHMPBUImFontConfig@@PBG@Z 100ba920 f   imgui_draw.obj
 0001:000b99c0       ?AddFontFromMemoryCompressedTTF@ImFontAtlas@@QAEPAUImFont@@PBXHMPBUImFontConfig@@PBG@Z 100ba9c0 f   imgui_draw.obj
 0001:000b9a90       ?AddFontFromMemoryCompressedBase85TTF@ImFontAtlas@@QAEPAUImFont@@PBDMPBUImFontConfig@@PBG@Z 100baa90 f   imgui_draw.obj
 0001:000b9b40       ?AddCustomRectRegular@ImFontAtlas@@QAEHHH@Z 100bab40 f   imgui_draw.obj
 0001:000b9b90       ?CalcCustomRectUV@ImFontAtlas@@QBEXPBUImFontAtlasCustomRect@@PAUImVec2@@1@Z 100bab90 f   imgui_draw.obj
 0001:000b9c60       ?GetMouseCursorTexData@ImFontAtlas@@QAE_NHPAUImVec2@@0QAU2@1@Z 100bac60 f   imgui_draw.obj
 0001:000b9fb0       ?Build@ImFontAtlas@@QAE_NXZ 100bafb0 f   imgui_draw.obj
 0001:000b9fe0       ?ImFontAtlasBuildMultiplyCalcLookupTable@@YAXQAEM@Z 100bafe0 f   imgui_draw.obj
 0001:000ba070       ?ImFontAtlasBuildMultiplyRectAlpha8@@YAXQBEPAEHHHHH@Z 100bb070 f   imgui_draw.obj
 0001:000ba1a0       ?ImFontAtlasBuildWithStbTruetype@@YA_NPAUImFontAtlas@@@Z 100bb1a0 f   imgui_draw.obj
 0001:000bb740       ??1ImFontBuildSrcData@@QAE@XZ 100bc740 f i imgui_draw.obj
 0001:000bb7e0       ?ImFontAtlasBuildInit@@YAXPAUImFontAtlas@@@Z 100bc7e0 f   imgui_draw.obj
 0001:000bb850       ?ImFontAtlasBuildSetupFont@@YAXPAUImFontAtlas@@PAUImFont@@PAUImFontConfig@@MM@Z 100bc850 f   imgui_draw.obj
 0001:000bb8c0       ?ImFontAtlasBuildPackCustomRects@@YAXPAUImFontAtlas@@PAX@Z 100bc8c0 f   imgui_draw.obj
 0001:000bbc90       ?ImFontAtlasBuildFinish@@YAXPAUImFontAtlas@@@Z 100bcc90 f   imgui_draw.obj
 0001:000bbed0       ?GetGlyphRangesDefault@ImFontAtlas@@QAEPBGXZ 100bced0 f   imgui_draw.obj
 0001:000bbf00       ?GetGlyphRangesCyrillic@ImFontAtlas@@QAEPBGXZ 100bcf00 f   imgui_draw.obj
 0001:000bbf30       ??0ImFont@@QAE@XZ          100bcf30 f   imgui_draw.obj
 0001:000bc090       ??1ImFont@@QAE@XZ          100bd090 f   imgui_draw.obj
 0001:000bc160       ?ClearOutputData@ImFont@@QAEXXZ 100bd160 f   imgui_draw.obj
 0001:000bc280       ?BuildLookupTable@ImFont@@QAEXXZ 100bd280 f   imgui_draw.obj
 0001:000bc640       ?SetGlyphVisible@ImFont@@QAEXG_N@Z 100bd640 f   imgui_draw.obj
 0001:000bc6b0       ?GrowIndex@ImFont@@QAEXH@Z 100bd6b0 f   imgui_draw.obj
 0001:000bc720       ?AddGlyph@ImFont@@QAEXGMMMMMMMMM@Z 100bd720 f   imgui_draw.obj
 0001:000bc8f0       ?FindGlyph@ImFont@@QBEPBUImFontGlyph@@G@Z 100bd8f0 f   imgui_draw.obj
 0001:000bc950       ?FindGlyphNoFallback@ImFont@@QBEPBUImFontGlyph@@G@Z 100bd950 f   imgui_draw.obj
 0001:000bc9b0       ?CalcWordWrapPositionA@ImFont@@QBEPBDMPBD0M@Z 100bd9b0 f   imgui_draw.obj
 0001:000bcc10       ?CalcTextSizeA@ImFont@@QBE?AUImVec2@@MMMPBD0PAPBD@Z 100bdc10 f   imgui_draw.obj
 0001:000bcf40       ?RenderText@ImFont@@QBEXPAUImDrawList@@MUImVec2@@IABUImVec4@@PBD3M_N@Z 100bdf40 f   imgui_draw.obj
 0001:000bd8a0       ?RenderArrow@ImGui@@YAXPAUImDrawList@@UImVec2@@IHM@Z 100be8a0 f   imgui_draw.obj
 0001:000bdd60       ?RenderMouseCursor@ImGui@@YAXPAUImDrawList@@UImVec2@@MHIII@Z 100bed60 f   imgui_draw.obj
 0001:000be440       ?RenderArrowPointingAt@ImGui@@YAXPAUImDrawList@@UImVec2@@1HI@Z 100bf440 f   imgui_draw.obj
 0001:000be6e0       ?RenderColorRectWithAlphaCheckerboard@ImGui@@YAXPAUImDrawList@@UImVec2@@1IM1MH@Z 100bf6e0 f   imgui_draw.obj
 0001:000bf390       ?resize@?$ImVector@Ustbtt_packedchar@@@@QAEXH@Z 100c0390 f i imgui_draw.obj
 0001:000bf410       ?resize@?$ImVector@UImVec4@@@@QAEXH@Z 100c0410 f i imgui_draw.obj
 0001:000bf410       ?resize@?$ImVector@Ustbrp_rect@@@@QAEXH@Z 100c0410 f i imgui_draw.obj
 0001:000bf490       ?resize@?$ImVector@UImFontBuildDstData@@@@QAEXH@Z 100c0490 f i imgui_draw.obj
 0001:000bf510       ?resize@?$ImVector@UImFontBuildSrcData@@@@QAEXH@Z 100c0510 f i imgui_draw.obj
 0001:000bf590       ?resize@?$ImVector@UImFontGlyph@@@@QAEXH@Z 100c0590 f i imgui_draw.obj
 0001:000bf590       ?resize@?$ImVector@UImDrawCmd@@@@QAEXH@Z 100c0590 f i imgui_draw.obj
 0001:000bf610       ?resize@?$ImVector@M@@QAEXHABM@Z 100c0610 f i imgui_draw.obj
 0001:000bf6d0       ?push_back@?$ImVector@UImFontConfig@@@@QAEXABUImFontConfig@@@Z 100c06d0 f i imgui_draw.obj
 0001:000bf780       ?push_back@?$ImVector@UImFontAtlasCustomRect@@@@QAEXABUImFontAtlasCustomRect@@@Z 100c0780 f i imgui_draw.obj
 0001:000bf830       ?resize@?$ImVector@UImVec2@@@@QAEXH@Z 100c0830 f i imgui_draw.obj
 0001:000bf8b0       ?push_back@?$ImVector@UImVec4@@@@QAEXABUImVec4@@@Z 100c08b0 f i imgui_draw.obj
 0001:000bf970       ?resize@?$ImVector@UImDrawVert@@@@QAEXH@Z 100c0970 f i imgui_draw.obj
 0001:000bf9f0       ?erase@?$ImVector@UImDrawCmd@@@@QAEPAUImDrawCmd@@PBU2@@Z 100c09f0 f i imgui_draw.obj
 0001:000bfa70       ?push_back@?$ImVector@UImDrawCmd@@@@QAEXABUImDrawCmd@@@Z 100c0a70 f i imgui_draw.obj
 0001:000bfb20       ?resize@?$ImVector@G@@QAEXHABG@Z 100c0b20 f i imgui_draw.obj
 0001:000bfbe0       ?reserve@?$ImVector@Ustbtt_packedchar@@@@QAEXH@Z 100c0be0 f i imgui_draw.obj
 0001:000bfbe0       ?reserve@?$ImVector@UImFontAtlasCustomRect@@@@QAEXH@Z 100c0be0 f i imgui_draw.obj
 0001:000bfc60       ?reserve@?$ImVector@Ustbrp_rect@@@@QAEXH@Z 100c0c60 f i imgui_draw.obj
 0001:000bfc60       ?reserve@?$ImVector@UImVec4@@@@QAEXH@Z 100c0c60 f i imgui_draw.obj
 0001:000bfce0       ?reserve@?$ImVector@UImFontBuildDstData@@@@QAEXH@Z 100c0ce0 f i imgui_draw.obj
 0001:000bfd60       ?reserve@?$ImVector@UImFontBuildSrcData@@@@QAEXH@Z 100c0d60 f i imgui_draw.obj
 0001:000bfde0       ?reserve@?$ImVector@UImFontGlyph@@@@QAEXH@Z 100c0de0 f i imgui_draw.obj
 0001:000bfde0       ?reserve@?$ImVector@UImDrawCmd@@@@QAEXH@Z 100c0de0 f i imgui_draw.obj
 0001:000bfe60       ?reserve@?$ImVector@UImFontConfig@@@@QAEXH@Z 100c0e60 f i imgui_draw.obj
 0001:000c0fa0       ?ImFontAtlasBuildWithFreeType@@YA_NPAUFT_LibraryRec_@@PAUImFontAtlas@@I@Z 100c1fa0 f   imgui_freetype.obj
 0001:000c24e0       ??1ImFontBuildSrcDataFT@@QAE@XZ 100c34e0 f i imgui_freetype.obj
 0001:000c26e0       ?BuildFontAtlas@ImGuiFreeType@@YA_NPAUImFontAtlas@@I@Z 100c36e0 f   imgui_freetype.obj
 0001:000c2770       ?resize@?$ImVector@Ustbrp_node@@@@QAEXH@Z 100c3770 f i imgui_freetype.obj
 0001:000c27f0       ??1?$ImVector@PAE@@QAE@XZ  100c37f0 f i imgui_freetype.obj
 0001:000c27f0       ??1?$ImVector@UImFontBuildDstDataFT@@@@QAE@XZ 100c37f0 f i imgui_freetype.obj
 0001:000c27f0       ??1?$ImVector@Ustbrp_node@@@@QAE@XZ 100c37f0 f i imgui_freetype.obj
 0001:000c27f0       ??1?$ImVector@UImFontBuildSrcDataFT@@@@QAE@XZ 100c37f0 f i imgui_freetype.obj
 0001:000c2850       ?push_back@?$ImVector@PAE@@QAEXABQAE@Z 100c3850 f i imgui_freetype.obj
 0001:000c28f0       ?resize@?$ImVector@UImFontBuildDstDataFT@@@@QAEXH@Z 100c38f0 f i imgui_freetype.obj
 0001:000c2970       ?resize@?$ImVector@UImFontBuildSrcDataFT@@@@QAEXH@Z 100c3970 f i imgui_freetype.obj
 0001:000c29f0       ?push_back@?$ImVector@UImFontBuildSrcGlyphFT@@@@QAEXABUImFontBuildSrcGlyphFT@@@Z 100c39f0 f i imgui_freetype.obj
 0001:000c2aa0       ?reserve@?$ImVector@UImFontBuildSrcGlyphFT@@@@QAEXH@Z 100c3aa0 f i imgui_freetype.obj
 0001:000c2b20       ?reserve@?$ImVector@Ustbrp_node@@@@QAEXH@Z 100c3b20 f i imgui_freetype.obj
 0001:000c2ba0       ?reserve@?$ImVector@PAE@@QAEXH@Z 100c3ba0 f i imgui_freetype.obj
 0001:000c2c20       ?reserve@?$ImVector@UImFontBuildDstDataFT@@@@QAEXH@Z 100c3c20 f i imgui_freetype.obj
 0001:000c2ca0       ?reserve@?$ImVector@UImFontBuildSrcDataFT@@@@QAEXH@Z 100c3ca0 f i imgui_freetype.obj
 0001:000c2d20       ?ImGui_ImplDX9_WndProcHandler@@YAJPAUHWND__@@IIJ@Z 100c3d20 f   imgui_impl_dx9.obj
 0001:000c35e0       ?ImGui_ImplDX9_RenderDrawData@@YAXPAUImDrawData@@@Z 100c45e0 f   imgui_impl_dx9.obj
 0001:000c3c70       ?ImGui_ImplDX9_Init@@YA_NPAUIDirect3DDevice9@@@Z 100c4c70 f   imgui_impl_dx9.obj
 0001:000c3e00       ?ImGui_ImplDX9_CreateDeviceObjects@@YA_NXZ 100c4e00 f   imgui_impl_dx9.obj
 0001:000c3e30       ?ImGui_ImplDX9_InvalidateDeviceObjects@@YAXXZ 100c4e30 f   imgui_impl_dx9.obj
 0001:000c3ee0       ?ImGui_ImplDX9_NewFrame@@YAXXZ 100c4ee0 f   imgui_impl_dx9.obj
 0001:000c3f00       ?ImGui_ImplWin32_Init@@YA_NPAX@Z 100c4f00 f   imgui_impl_win32.obj
 0001:000c48f0       ?ImGui_ImplWin32_NewFrame@@YAXXZ 100c58f0 f   imgui_impl_win32.obj
 0001:000c4a40       ?ImGui_ImplWin32_WndProcHandler@@YAJPAUHWND__@@IIJ@Z 100c5a40 f   imgui_impl_win32.obj
 0001:000c4e60       ?SetColor@Color@@QAEXPAM@Z 100c5e60 f i imgui_widgets.obj
 0001:000c4f30       ?PrimVtx@ImDrawList@@QAEXABUImVec2@@0I@Z 100c5f30 f i imgui_widgets.obj
 0001:000c4fd0       ?GetCenter@ImRect@@QBE?AUImVec2@@XZ 100c5fd0 f i imgui_widgets.obj
 0001:000c5040       ?ToVec4@ImRect@@QBE?AUImVec4@@XZ 100c6040 f i imgui_widgets.obj
 0001:000c50d0       ?CursorClamp@ImGuiInputTextState@@QAEXXZ 100c60d0 f i imgui_widgets.obj
 0001:000c5180       ?TextEx@ImGui@@YAXPBD0H@Z  100c6180 f   imgui_widgets.obj
 0001:000c5880       ?Text@ImGui@@YAXPBDZZ      100c6880 f   imgui_widgets.obj
 0001:000c58b0       ?TextV@ImGui@@YAXPBDPAD@Z  100c68b0 f   imgui_widgets.obj
 0001:000c5940       ?TextColored@ImGui@@YAXABUImVec4@@PBDZZ 100c6940 f   imgui_widgets.obj
 0001:000c5980       ?TextColoredV@ImGui@@YAXABUImVec4@@PBDPAD@Z 100c6980 f   imgui_widgets.obj
 0001:000c59c0       ?ButtonBehavior@ImGui@@YA_NABUImRect@@IPA_N1H@Z 100c69c0 f   imgui_widgets.obj
 0001:000c6250       ?KeybindButton@ImGui@@YA_NPBD0ABUImVec2@@_NH@Z 100c7250 f   imgui_widgets.obj
 0001:000c7bb0       ?ButtonEx@ImGui@@YA_NPBDABUImVec2@@H@Z 100c8bb0 f   imgui_widgets.obj
 0001:000c7f00       ?CustomButton@ImGui@@YA_NPBD0ABUImVec2@@_NPAUImFont@@0@Z 100c8f00 f   imgui_widgets.obj
 0001:000c93f0       ?Button@ImGui@@YA_NPBDABUImVec2@@@Z 100ca3f0 f   imgui_widgets.obj
 0001:000c9420       ?InvisibleButton@ImGui@@YA_NPBDABUImVec2@@@Z 100ca420 f   imgui_widgets.obj
 0001:000c9560       ?CloseButton@ImGui@@YA_NIABUImVec2@@@Z 100ca560 f   imgui_widgets.obj
 0001:000c9ac0       ?CollapseButton@ImGui@@YA_NIABUImVec2@@@Z 100caac0 f   imgui_widgets.obj
 0001:000c9e20       ?GetWindowScrollbarID@ImGui@@YAIPAUImGuiWindow@@W4ImGuiAxis@@@Z 100cae20 f   imgui_widgets.obj
 0001:000c9e60       ?GetWindowScrollbarRect@ImGui@@YA?AUImRect@@PAUImGuiWindow@@W4ImGuiAxis@@@Z 100cae60 f   imgui_widgets.obj
 0001:000c9ff0       ?Scrollbar@ImGui@@YAXW4ImGuiAxis@@@Z 100caff0 f   imgui_widgets.obj
 0001:000ca160       ?ScrollbarEx@ImGui@@YA_NABUImRect@@IW4ImGuiAxis@@PAMMMH@Z 100cb160 f   imgui_widgets.obj
 0001:000cbdb0       ?ImageButtonEx@ImGui@@YA_NIPAXABUImVec2@@111ABUImVec4@@2@Z 100ccdb0 f   imgui_widgets.obj
 0001:000cc270       ?ImageButton@ImGui@@YA_NPAXABUImVec2@@11HABUImVec4@@2@Z 100cd270 f   imgui_widgets.obj
 0001:000cc350       ?Checkbox@ImGui@@YA_NPBDPA_N@Z 100cd350 f   imgui_widgets.obj
 0001:000cf580       ?CheckboxFlags@ImGui@@YA_NPBDPAII@Z 100d0580 f   imgui_widgets.obj
 0001:000cf600       ?RadioButton@ImGui@@YA_NPBD_N@Z 100d0600 f   imgui_widgets.obj
 0001:000cfc20       ?Spacing@ImGui@@YAXXZ      100d0c20 f   imgui_widgets.obj
 0001:000cfc90       ?Dummy@ImGui@@YAXABUImVec2@@@Z 100d0c90 f   imgui_widgets.obj
 0001:000cfd70       ?SeparatorEx@ImGui@@YAXH@Z 100d0d70 f   imgui_widgets.obj
 0001:000d0230       ?Separator@ImGui@@YAXXZ    100d1230 f   imgui_widgets.obj
 0001:000d0320       ?BeginCombo@ImGui@@YA_NPBD0HPAH@Z 100d1320 f   imgui_widgets.obj
 0001:000d4870       ?EndCombo@ImGui@@YAXXZ     100d5870 f   imgui_widgets.obj
 0001:000d48c0       ?Combo@ImGui@@YA_NPBDPAHP6A_NPAXHPAPBD@Z2HH@Z 100d58c0 f   imgui_widgets.obj
 0001:000d4a80       ?Combo@ImGui@@YA_NPBDPAHQBQBDHH@Z 100d5a80 f   imgui_widgets.obj
 0001:000d4be0       ?DataTypeGetInfo@ImGui@@YAPBUImGuiDataTypeInfo@@H@Z 100d5be0 f   imgui_widgets.obj
 0001:000d4c00       ?DataTypeFormatString@ImGui@@YAHPADHHPBXPBD@Z 100d5c00 f   imgui_widgets.obj
 0001:000d4d60       ?DataTypeApplyOp@ImGui@@YAXHHPAX0PBX@Z 100d5d60 f   imgui_widgets.obj
 0001:000d5870       ?DataTypeApplyOpFromText@ImGui@@YA_NPBD0HPAX0@Z 100d6870 f   imgui_widgets.obj
 0001:000d5df0       ?DataTypeClamp@ImGui@@YA_NHPAXPBX1@Z 100d6df0 f   imgui_widgets.obj
 0001:000d6000       ?DragBehavior@ImGui@@YA_NIHPAXMPBX1PBDMH@Z 100d7000 f   imgui_widgets.obj
 0001:000d6690       ?DragScalar@ImGui@@YA_NPBDHPAXMPBX20M@Z 100d7690 f   imgui_widgets.obj
 0001:000d8320       ?DragFloat@ImGui@@YA_NPBDPAMMMM0M@Z 100d9320 f   imgui_widgets.obj
 0001:000d8370       ?DragInt@ImGui@@YA_NPBDPAHMHH0@Z 100d9370 f   imgui_widgets.obj
 0001:000d83c0       ?SliderBehavior@ImGui@@YA_NABUImRect@@IHPAXPBX2PBDMHPAU2@@Z 100d93c0 f   imgui_widgets.obj
 0001:000d8750       ?SliderScalar@ImGui@@YA_NPBDHPAXPBX20_NM@Z 100d9750 f   imgui_widgets.obj
 0001:000dbc90       ?SliderFloat@ImGui@@YA_NPBDPAMMM0M@Z 100dcc90 f   imgui_widgets.obj
 0001:000dbcd0       ?SliderInt@ImGui@@YA_NPBDPAHHH_N0@Z 100dccd0 f   imgui_widgets.obj
 0001:000dbd10       ?ImParseFormatFindStart@@YAPBDPBD@Z 100dcd10 f   imgui_widgets.obj
 0001:000dbd80       ?ImParseFormatFindEnd@@YAPBDPBD@Z 100dcd80 f   imgui_widgets.obj
 0001:000dbe40       ?ImParseFormatTrimDecorations@@YAPBDPBDPADI@Z 100dce40 f   imgui_widgets.obj
 0001:000dbee0       ?ImParseFormatPrecision@@YAHPBDH@Z 100dcee0 f   imgui_widgets.obj
 0001:000dbfe0       ?TempInputScalar@ImGui@@YA_NABUImRect@@IPBDHPAX1PBX3@Z 100dcfe0 f   imgui_widgets.obj
 0001:000dc150       ?InputScalar@ImGui@@YA_NPBDHPAXPBX20H@Z 100dd150 f   imgui_widgets.obj
 0001:000dc520       ?InputInt@ImGui@@YA_NPBDPAHHHH@Z 100dd520 f   imgui_widgets.obj
 0001:000dc5b0       ?InputText@ImGui@@YA_NPBDPADIHP6AHPAUImGuiInputTextCallbackData@@@ZPAX@Z 100dd5b0 f   imgui_widgets.obj
 0001:000ded90       ?OnKeyPressed@ImGuiInputTextState@@QAEXH@Z 100dfd90 f   imgui_widgets.obj
 0001:000dede0       ??0ImGuiInputTextCallbackData@@QAE@XZ 100dfde0 f   imgui_widgets.obj
 0001:000df060       ?InputTextEx@ImGui@@YA_NPBD0PADHABUImVec2@@HP6AHPAUImGuiInputTextCallbackData@@@ZPAX@Z 100e0060 f   imgui_widgets.obj
 0001:000e3930       ?ColorEdit@ImGui@@YA_NPBDPAVColor@@H_N@Z 100e4930 f   imgui_widgets.obj
 0001:000e6010       ?ColorEdit4@ImGui@@YA_NPBDQAMH@Z 100e7010 f   imgui_widgets.obj
 0001:000e7930       ?ColorPicker4@ImGui@@YA_NPBDQAMHPBM@Z 100e8930 f   imgui_widgets.obj
 0001:000eaaf0       ?ColorButton@ImGui@@YA_NPBDABUImVec4@@HUImVec2@@@Z 100ebaf0 f   imgui_widgets.obj
 0001:000eb3a0       ?ColorTooltip@ImGui@@YAXPBDPBMH@Z 100ec3a0 f   imgui_widgets.obj
 0001:000eb950       ?ColorEditOptionsPopup@ImGui@@YAXPBMH@Z 100ec950 f   imgui_widgets.obj
 0001:000ebfd0       ?ColorPickerOptionsPopup@ImGui@@YAXPBMH@Z 100ecfd0 f   imgui_widgets.obj
 0001:000ec280       ?CustomSelectable@ImGui@@YA_NPBD_NHABUImVec2@@@Z 100ed280 f   imgui_widgets.obj
 0001:000edaa0       ?Selectable@ImGui@@YA_NPBD_NHABUImVec2@@@Z 100eeaa0 f   imgui_widgets.obj
 0001:000ef2a0       ?Selectable@ImGui@@YA_NPBDPA_NHABUImVec2@@@Z 100f02a0 f   imgui_widgets.obj
 0001:000ef300       ?ListBoxHeader@ImGui@@YA_NPBDABUImVec2@@@Z 100f0300 f   imgui_widgets.obj
 0001:000ef6b0       ?ListBoxHeader@ImGui@@YA_NPBDHH@Z 100f06b0 f   imgui_widgets.obj
 0001:000ef790       ?ListBoxFooter@ImGui@@YAXXZ 100f0790 f   imgui_widgets.obj
 0001:000ef860       ?ListBox@ImGui@@YA_NPBDPAHP6A_NPAXHPAPBD@Z2HH_N@Z 100f0860 f   imgui_widgets.obj
 0001:000efa40       ??0ImGuiMenuColumns@@QAE@XZ 100f0a40 f   imgui_widgets.obj
 0001:000efaa0       ?Update@ImGuiMenuColumns@@QAEXHM_N@Z 100f0aa0 f   imgui_widgets.obj
 0001:000efb90       ?SetWindowClipRectBeforeSetChannel@ImGui@@YAXPAUImGuiWindow@@ABUImRect@@@Z 100f0b90 f   imgui_widgets.obj
 0001:000efc30       ?GetColumnOffsetFromNorm@ImGui@@YAMPBUImGuiColumns@@M@Z 100f0c30 f   imgui_widgets.obj
 0001:000efc60       ?GetColumnNormFromOffset@ImGui@@YAMPBUImGuiColumns@@M@Z 100f0c60 f   imgui_widgets.obj
 0001:000efdb0       ?GetColumnOffset@ImGui@@YAMH@Z 100f0db0 f   imgui_widgets.obj
 0001:000eff20       ?SetColumnOffset@ImGui@@YAXHM@Z 100f0f20 f   imgui_widgets.obj
 0001:000f00c0       ?PushColumnsBackground@ImGui@@YAXXZ 100f10c0 f   imgui_widgets.obj
 0001:000f0160       ?PopColumnsBackground@ImGui@@YAXXZ 100f1160 f   imgui_widgets.obj
 0001:000f01e0       ?EndColumns@ImGui@@YAXXZ   100f11e0 f   imgui_widgets.obj
 0001:000f0740       ?tab@ImGui@@YA_NPBD_NUImVec2@@@Z 100f1740 f   imgui_widgets.obj
 0001:000f0c40       ??8?$_Tree_const_iterator@V?$_Tree_val@U?$_Tree_simple_types@U?$pair@$$CBIUcolorpicket_state@@@std@@@std@@@std@@@std@@QBE_NABV01@@Z 100f1c40 f i imgui_widgets.obj
 0001:000f0d20       ??1?$_Tree@V?$_Tmap_traits@IUcolorpicket_state@@U?$less@I@std@@V?$allocator@U?$pair@$$CBIUcolorpicket_state@@@std@@@3@$0A@@std@@@std@@QAE@XZ 100f1d20 f i imgui_widgets.obj
 0001:000f0dd0       ??8?$_List_const_iterator@V?$_List_val@U?$_List_simple_types@U?$pair@$$CBV?$basic_string@DU?$char_traits@D@std@@V?$allocator@D@2@@std@@$$BY03M@std@@@std@@@std@@@std@@QBE_NABV01@@Z 100f1dd0 f i imgui_widgets.obj
 0001:000f0eb0       ??8?$_Tree_const_iterator@V?$_Tree_val@U?$_Tree_simple_types@U?$pair@$$CBI_N@std@@@std@@@std@@@std@@QBE_NABV01@@Z 100f1eb0 f i imgui_widgets.obj
 0001:000f0f90       ??1?$_Tree@V?$_Tmap_traits@I_NU?$less@I@std@@V?$allocator@U?$pair@$$CBI_N@std@@@2@$0A@@std@@@std@@QAE@XZ 100f1f90 f i imgui_widgets.obj
 0001:000f0f90       ??1?$_Tree@V?$_Tmap_traits@IMU?$less@I@std@@V?$allocator@U?$pair@$$CBIM@std@@@2@$0A@@std@@@std@@QAE@XZ 100f1f90 f i imgui_widgets.obj
 0001:000f1040       ??8?$_Tree_const_iterator@V?$_Tree_val@U?$_Tree_simple_types@U?$pair@$$CBIUarrow_anim@@@std@@@std@@@std@@@std@@QBE_NABV01@@Z 100f2040 f i imgui_widgets.obj
 0001:000f1120       ??1?$_Tree@V?$_Tmap_traits@IUarrow_anim@@U?$less@I@std@@V?$allocator@U?$pair@$$CBIUarrow_anim@@@std@@@3@$0A@@std@@@std@@QAE@XZ 100f2120 f i imgui_widgets.obj
 0001:000f11d0       ??8?$_Tree_const_iterator@V?$_Tree_val@U?$_Tree_simple_types@U?$pair@$$CBIUcircle_button@@@std@@@std@@@std@@@std@@QBE_NABV01@@Z 100f21d0 f i imgui_widgets.obj
 0001:000f12b0       ??1?$_Tree@V?$_Tmap_traits@IUcircle_button@@U?$less@I@std@@V?$allocator@U?$pair@$$CBIUcircle_button@@@std@@@3@$0A@@std@@@std@@QAE@XZ 100f22b0 f i imgui_widgets.obj
 0001:000f1360       ??8?$_Tree_const_iterator@V?$_Tree_val@U?$_Tree_simple_types@U?$pair@$$CBIM@std@@@std@@@std@@@std@@QBE_NABV01@@Z 100f2360 f i imgui_widgets.obj
 0001:000f1440       ?find@?$_Tree@V?$_Tmap_traits@IMU?$less@I@std@@V?$allocator@U?$pair@$$CBIM@std@@@2@$0A@@std@@@std@@QAE?AV?$_Tree_iterator@V?$_Tree_val@U?$_Tree_simple_types@U?$pair@$$CBIM@std@@@std@@@std@@@2@ABI@Z 100f2440 f i imgui_widgets.obj
 0001:000f14c0       ??8?$_Tree_const_iterator@V?$_Tree_val@U?$_Tree_simple_types@U?$pair@$$CBIUImVec4@@@std@@@std@@@std@@@std@@QBE_NABV01@@Z 100f24c0 f i imgui_widgets.obj
 0001:000f15a0       ??1?$_Tree@V?$_Tmap_traits@IUImVec4@@U?$less@I@std@@V?$allocator@U?$pair@$$CBIUImVec4@@@std@@@3@$0A@@std@@@std@@QAE@XZ 100f25a0 f i imgui_widgets.obj
 0001:000f1650       ??0?$_Tree@V?$_Tmap_traits@IUcolorpicket_state@@U?$less@I@std@@V?$allocator@U?$pair@$$CBIUcolorpicket_state@@@std@@@3@$0A@@std@@@std@@QAE@ABU?$less@I@1@@Z 100f2650 f i imgui_widgets.obj
 0001:000f16c0       ??0?$_Tree@V?$_Tmap_traits@IMU?$less@I@std@@V?$allocator@U?$pair@$$CBIM@std@@@2@$0A@@std@@@std@@QAE@ABU?$less@I@1@@Z 100f26c0 f i imgui_widgets.obj
 0001:000f16c0       ??0?$_Tree@V?$_Tmap_traits@I_NU?$less@I@std@@V?$allocator@U?$pair@$$CBI_N@std@@@2@$0A@@std@@@std@@QAE@ABU?$less@I@1@@Z 100f26c0 f i imgui_widgets.obj
 0001:000f1730       ??0?$_Tree@V?$_Tmap_traits@IUarrow_anim@@U?$less@I@std@@V?$allocator@U?$pair@$$CBIUarrow_anim@@@std@@@3@$0A@@std@@@std@@QAE@ABU?$less@I@1@@Z 100f2730 f i imgui_widgets.obj
 0001:000f17a0       ??0?$_Tree@V?$_Tmap_traits@IUcircle_button@@U?$less@I@std@@V?$allocator@U?$pair@$$CBIUcircle_button@@@std@@@3@$0A@@std@@@std@@QAE@ABU?$less@I@1@@Z 100f27a0 f i imgui_widgets.obj
 0001:000f1810       ??0?$_Tree_unchecked_const_iterator@V?$_Tree_val@U?$_Tree_simple_types@U?$pair@$$CBIM@std@@@std@@@std@@U_Iterator_base12@2@@std@@QAE@PAU?$_Tree_node@U?$pair@$$CBIM@std@@PAX@1@PBV?$_Tree_val@U?$_Tree_simple_types@U?$pair@$$CBIM@std@@@std@@@1@@Z 100f2810 f i imgui_widgets.obj
 0001:000f1880       ??0?$_Tree@V?$_Tmap_traits@IUImVec4@@U?$less@I@std@@V?$allocator@U?$pair@$$CBIUImVec4@@@std@@@3@$0A@@std@@@std@@QAE@ABU?$less@I@1@@Z 100f2880 f i imgui_widgets.obj
 0001:000f18f0       ??D?$_Tree_const_iterator@V?$_Tree_val@U?$_Tree_simple_types@U?$pair@$$CBIUcolorpicket_state@@@std@@@std@@@std@@@std@@QBEABU?$pair@$$CBIUcolorpicket_state@@@1@XZ 100f28f0 f i imgui_widgets.obj
 0001:000f19f0       ?_Alloc_sentinel_and_proxy@?$_Tree@V?$_Tmap_traits@IUcolorpicket_state@@U?$less@I@std@@V?$allocator@U?$pair@$$CBIUcolorpicket_state@@@std@@@3@$0A@@std@@@std@@IAEXXZ 100f29f0 f i imgui_widgets.obj
 0001:000f1aa0       ??D?$_Tree_const_iterator@V?$_Tree_val@U?$_Tree_simple_types@U?$pair@$$CBI_N@std@@@std@@@std@@@std@@QBEABU?$pair@$$CBI_N@1@XZ 100f2aa0 f i imgui_widgets.obj
 0001:000f1ba0       ?_Alloc_sentinel_and_proxy@?$_Tree@V?$_Tmap_traits@I_NU?$less@I@std@@V?$allocator@U?$pair@$$CBI_N@std@@@2@$0A@@std@@@std@@IAEXXZ 100f2ba0 f i imgui_widgets.obj
 0001:000f1ba0       ?_Alloc_sentinel_and_proxy@?$_Tree@V?$_Tmap_traits@IMU?$less@I@std@@V?$allocator@U?$pair@$$CBIM@std@@@2@$0A@@std@@@std@@IAEXXZ 100f2ba0 f i imgui_widgets.obj
 0001:000f1c50       ??D?$_Tree_const_iterator@V?$_Tree_val@U?$_Tree_simple_types@U?$pair@$$CBIUarrow_anim@@@std@@@std@@@std@@@std@@QBEABU?$pair@$$CBIUarrow_anim@@@1@XZ 100f2c50 f i imgui_widgets.obj
 0001:000f1d50       ?_Alloc_sentinel_and_proxy@?$_Tree@V?$_Tmap_traits@IUarrow_anim@@U?$less@I@std@@V?$allocator@U?$pair@$$CBIUarrow_anim@@@std@@@3@$0A@@std@@@std@@IAEXXZ 100f2d50 f i imgui_widgets.obj
 0001:000f1e00       ??D?$_Tree_const_iterator@V?$_Tree_val@U?$_Tree_simple_types@U?$pair@$$CBIUcircle_button@@@std@@@std@@@std@@@std@@QBEABU?$pair@$$CBIUcircle_button@@@1@XZ 100f2e00 f i imgui_widgets.obj
 0001:000f1f00       ?_Alloc_sentinel_and_proxy@?$_Tree@V?$_Tmap_traits@IUcircle_button@@U?$less@I@std@@V?$allocator@U?$pair@$$CBIUcircle_button@@@std@@@3@$0A@@std@@@std@@IAEXXZ 100f2f00 f i imgui_widgets.obj
 0001:000f1fd0       ??D?$_Tree_const_iterator@V?$_Tree_val@U?$_Tree_simple_types@U?$pair@$$CBIM@std@@@std@@@std@@@std@@QBEABU?$pair@$$CBIM@1@XZ 100f2fd0 f i imgui_widgets.obj
 0001:000f20d0       ??D?$_Tree_const_iterator@V?$_Tree_val@U?$_Tree_simple_types@U?$pair@$$CBIUImVec4@@@std@@@std@@@std@@@std@@QBEABU?$pair@$$CBIUImVec4@@@1@XZ 100f30d0 f i imgui_widgets.obj
 0001:000f21d0       ?_Alloc_sentinel_and_proxy@?$_Tree@V?$_Tmap_traits@IUImVec4@@U?$less@I@std@@V?$allocator@U?$pair@$$CBIUImVec4@@@std@@@3@$0A@@std@@@std@@IAEXXZ 100f31d0 f i imgui_widgets.obj
 0001:000f2280       ??$insert@$0A@$0A@@?$_Tree@V?$_Tmap_traits@IUImVec4@@U?$less@I@std@@V?$allocator@U?$pair@$$CBIUImVec4@@@std@@@3@$0A@@std@@@std@@QAE?AU?$pair@V?$_Tree_iterator@V?$_Tree_val@U?$_Tree_simple_types@U?$pair@$$CBIUImVec4@@@std@@@std@@@std@@@std@@_N@1@$$QAU?$pair@$$CBIUImVec4@@@1@@Z 100f3280 f i imgui_widgets.obj
 0001:000f2340       ??$insert@$0A@$0A@@?$_Tree@V?$_Tmap_traits@IMU?$less@I@std@@V?$allocator@U?$pair@$$CBIM@std@@@2@$0A@@std@@@std@@QAE?AU?$pair@V?$_Tree_iterator@V?$_Tree_val@U?$_Tree_simple_types@U?$pair@$$CBIM@std@@@std@@@std@@@std@@_N@1@$$QAU?$pair@$$CBIM@1@@Z 100f3340 f i imgui_widgets.obj
 0001:000f2340       ??$insert@$0A@$0A@@?$_Tree@V?$_Tmap_traits@I_NU?$less@I@std@@V?$allocator@U?$pair@$$CBI_N@std@@@2@$0A@@std@@@std@@QAE?AU?$pair@V?$_Tree_iterator@V?$_Tree_val@U?$_Tree_simple_types@U?$pair@$$CBI_N@std@@@std@@@std@@@std@@_N@1@$$QAU?$pair@$$CBI_N@1@@Z 100f3340 f i imgui_widgets.obj
 0001:000f2440       ??$insert@$0A@$0A@@?$_Tree@V?$_Tmap_traits@IUcircle_button@@U?$less@I@std@@V?$allocator@U?$pair@$$CBIUcircle_button@@@std@@@3@$0A@@std@@@std@@QAE?AU?$pair@V?$_Tree_iterator@V?$_Tree_val@U?$_Tree_simple_types@U?$pair@$$CBIUcircle_button@@@std@@@std@@@std@@@std@@_N@1@$$QAU?$pair@$$CBIUcircle_button@@@1@@Z 100f3440 f i imgui_widgets.obj
 0001:000f2500       ??$insert@$0A@$0A@@?$_Tree@V?$_Tmap_traits@IUarrow_anim@@U?$less@I@std@@V?$allocator@U?$pair@$$CBIUarrow_anim@@@std@@@3@$0A@@std@@@std@@QAE?AU?$pair@V?$_Tree_iterator@V?$_Tree_val@U?$_Tree_simple_types@U?$pair@$$CBIUarrow_anim@@@std@@@std@@@std@@@std@@_N@1@$$QAU?$pair@$$CBIUarrow_anim@@@1@@Z 100f3500 f i imgui_widgets.obj
 0001:000f2920       ??$DragBehaviorT@HHM@ImGui@@YA_NHPAHMHHPBDMH@Z 100f3920 f i imgui_widgets.obj
 0001:000f2f50       ??$DragBehaviorT@IHM@ImGui@@YA_NHPAIMIIPBDMH@Z 100f3f50 f i imgui_widgets.obj
 0001:000f36b0       ??$DragBehaviorT@_J_JN@ImGui@@YA_NHPA_JM_J1PBDMH@Z 100f46b0 f i imgui_widgets.obj
 0001:000f3e70       ??$DragBehaviorT@_K_JN@ImGui@@YA_NHPA_KM_K1PBDMH@Z 100f4e70 f i imgui_widgets.obj
 0001:000f4630       ??$DragBehaviorT@MMM@ImGui@@YA_NHPAMMMMPBDMH@Z 100f5630 f i imgui_widgets.obj
 0001:000f4cc0       ??$DragBehaviorT@NNN@ImGui@@YA_NHPANMNNPBDMH@Z 100f5cc0 f i imgui_widgets.obj
 0001:000f5390       ??$SliderBehaviorT@HHM@ImGui@@YA_NABUImRect@@IHPAHHHPBDMHPAU1@@Z 100f6390 f i imgui_widgets.obj
 0001:000f6000       ??$SliderBehaviorT@IHM@ImGui@@YA_NABUImRect@@IHPAIIIPBDMHPAU1@@Z 100f7000 f i imgui_widgets.obj
 0001:000f6ee0       ??$SliderBehaviorT@_J_JN@ImGui@@YA_NABUImRect@@IHPA_J_J2PBDMHPAU1@@Z 100f7ee0 f i imgui_widgets.obj
 0001:000f7d50       ??$SliderBehaviorT@_K_JN@ImGui@@YA_NABUImRect@@IHPA_K_K2PBDMHPAU1@@Z 100f8d50 f i imgui_widgets.obj
 0001:000f8bb0       ??$SliderBehaviorT@MMM@ImGui@@YA_NABUImRect@@IHPAMMMPBDMHPAU1@@Z 100f9bb0 f i imgui_widgets.obj
 0001:000f9890       ??$SliderBehaviorT@NNN@ImGui@@YA_NABUImRect@@IHPANNNPBDMHPAU1@@Z 100fa890 f i imgui_widgets.obj
 0001:000fa670       ??$find@X@?$_Hash@V?$_Umap_traits@V?$basic_string@DU?$char_traits@D@std@@V?$allocator@D@2@@std@@$$BY03MV?$_Uhash_compare@V?$basic_string@DU?$char_traits@D@std@@V?$allocator@D@2@@std@@U?$hash@V?$basic_string@DU?$char_traits@D@std@@V?$allocator@D@2@@std@@@2@U?$equal_to@V?$basic_string@DU?$char_traits@D@std@@V?$allocator@D@2@@std@@@2@@2@V?$allocator@U?$pair@$$CBV?$basic_string@DU?$char_traits@D@std@@V?$allocator@D@2@@std@@$$BY03M@std@@@2@$0A@@std@@@std@@QAE?AV?$_List_iterator@V?$_List_val@U?$_List_simple_types@U?$pair@$$CBV?$basic_string@DU?$char_traits@D@std@@V?$allocator@D@2@@std@@$$BY03M@std@@@std@@@std@@@1@ABV?$basic_string@DU?$char_traits@D@std@@V?$allocator@D@2@@1@@Z 100fb670 f i imgui_widgets.obj
 0001:000fa730       ??$insert@$0A@$0A@@?$_Tree@V?$_Tmap_traits@IUcolorpicket_state@@U?$less@I@std@@V?$allocator@U?$pair@$$CBIUcolorpicket_state@@@std@@@3@$0A@@std@@@std@@QAE?AU?$pair@V?$_Tree_iterator@V?$_Tree_val@U?$_Tree_simple_types@U?$pair@$$CBIUcolorpicket_state@@@std@@@std@@@std@@@std@@_N@1@$$QAU?$pair@$$CBIUcolorpicket_state@@@1@@Z 100fb730 f i imgui_widgets.obj
 0001:000fa7f0       ??$_Find@I@?$_Tree@V?$_Tmap_traits@IMU?$less@I@std@@V?$allocator@U?$pair@$$CBIM@std@@@2@$0A@@std@@@std@@ABEPAU?$_Tree_node@U?$pair@$$CBIM@std@@PAX@1@ABI@Z 100fb7f0 f i imgui_widgets.obj
 0001:000fa7f0       ??$_Find@I@?$_Tree@V?$_Tmap_traits@IUcircle_button@@U?$less@I@std@@V?$allocator@U?$pair@$$CBIUcircle_button@@@std@@@3@$0A@@std@@@std@@ABEPAU?$_Tree_node@U?$pair@$$CBIUcircle_button@@@std@@PAX@1@ABI@Z 100fb7f0 f i imgui_widgets.obj
 0001:000fa7f0       ??$_Find@I@?$_Tree@V?$_Tmap_traits@IUarrow_anim@@U?$less@I@std@@V?$allocator@U?$pair@$$CBIUarrow_anim@@@std@@@3@$0A@@std@@@std@@ABEPAU?$_Tree_node@U?$pair@$$CBIUarrow_anim@@@std@@PAX@1@ABI@Z 100fb7f0 f i imgui_widgets.obj
 0001:000fa7f0       ??$_Find@I@?$_Tree@V?$_Tmap_traits@I_NU?$less@I@std@@V?$allocator@U?$pair@$$CBI_N@std@@@2@$0A@@std@@@std@@ABEPAU?$_Tree_node@U?$pair@$$CBI_N@std@@PAX@1@ABI@Z 100fb7f0 f i imgui_widgets.obj
 0001:000fa7f0       ??$_Find@I@?$_Tree@V?$_Tmap_traits@IUImVec4@@U?$less@I@std@@V?$allocator@U?$pair@$$CBIUImVec4@@@std@@@3@$0A@@std@@@std@@ABEPAU?$_Tree_node@U?$pair@$$CBIUImVec4@@@std@@PAX@1@ABI@Z 100fb7f0 f i imgui_widgets.obj
 0001:000fa7f0       ??$_Find@I@?$_Tree@V?$_Tmap_traits@IUcolorpicket_state@@U?$less@I@std@@V?$allocator@U?$pair@$$CBIUcolorpicket_state@@@std@@@3@$0A@@std@@@std@@ABEPAU?$_Tree_node@U?$pair@$$CBIUcolorpicket_state@@@std@@PAX@1@ABI@Z 100fb7f0 f i imgui_widgets.obj
 0001:000fa850       ??$?0ABU?$less@I@std@@U_Zero_then_variadic_args_t@1@@?$_Compressed_pair@U?$less@I@std@@V?$_Compressed_pair@V?$allocator@U?$_Tree_node@U?$pair@$$CBIM@std@@PAX@std@@@std@@V?$_Tree_val@U?$_Tree_simple_types@U?$pair@$$CBIM@std@@@std@@@2@$00@2@$00@std@@QAE@U_One_then_variadic_args_t@1@ABU?$less@I@1@$$QAU_Zero_then_variadic_args_t@1@@Z 100fb850 f i imgui_widgets.obj
 0001:000fa850       ??$?0ABU?$less@I@std@@U_Zero_then_variadic_args_t@1@@?$_Compressed_pair@U?$less@I@std@@V?$_Compressed_pair@V?$allocator@U?$_Tree_node@U?$pair@$$CBIUImVec4@@@std@@PAX@std@@@std@@V?$_Tree_val@U?$_Tree_simple_types@U?$pair@$$CBIUImVec4@@@std@@@std@@@2@$00@2@$00@std@@QAE@U_One_then_variadic_args_t@1@ABU?$less@I@1@$$QAU_Zero_then_variadic_args_t@1@@Z 100fb850 f i imgui_widgets.obj
 0001:000fa8d0       ??$_Buyheadnode@V?$allocator@U?$_Tree_node@U?$pair@$$CBIUcolorpicket_state@@@std@@PAX@std@@@std@@@?$_Tree_node@U?$pair@$$CBIUcolorpicket_state@@@std@@PAX@std@@SAPAU01@AAV?$allocator@U?$_Tree_node@U?$pair@$$CBIUcolorpicket_state@@@std@@PAX@std@@@1@@Z 100fb8d0 f i imgui_widgets.obj
 0001:000fa970       ??$_Buyheadnode@V?$allocator@U?$_Tree_node@U?$pair@$$CBI_N@std@@PAX@std@@@std@@@?$_Tree_node@U?$pair@$$CBI_N@std@@PAX@std@@SAPAU01@AAV?$allocator@U?$_Tree_node@U?$pair@$$CBI_N@std@@PAX@std@@@1@@Z 100fb970 f i imgui_widgets.obj
 0001:000fa970       ??$_Buyheadnode@V?$allocator@U?$_Tree_node@U?$pair@$$CBIM@std@@PAX@std@@@std@@@?$_Tree_node@U?$pair@$$CBIM@std@@PAX@std@@SAPAU01@AAV?$allocator@U?$_Tree_node@U?$pair@$$CBIM@std@@PAX@std@@@1@@Z 100fb970 f i imgui_widgets.obj
 0001:000faa10       ??$_Buyheadnode@V?$allocator@U?$_Tree_node@U?$pair@$$CBIUarrow_anim@@@std@@PAX@std@@@std@@@?$_Tree_node@U?$pair@$$CBIUarrow_anim@@@std@@PAX@std@@SAPAU01@AAV?$allocator@U?$_Tree_node@U?$pair@$$CBIUarrow_anim@@@std@@PAX@std@@@1@@Z 100fba10 f i imgui_widgets.obj
 0001:000faab0       ??$_Buyheadnode@V?$allocator@U?$_Tree_node@U?$pair@$$CBIUcircle_button@@@std@@PAX@std@@@std@@@?$_Tree_node@U?$pair@$$CBIUcircle_button@@@std@@PAX@std@@SAPAU01@AAV?$allocator@U?$_Tree_node@U?$pair@$$CBIUcircle_button@@@std@@PAX@std@@@1@@Z 100fbab0 f i imgui_widgets.obj
 0001:000fab50       ??$_Buyheadnode@V?$allocator@U?$_Tree_node@U?$pair@$$CBIUImVec4@@@std@@PAX@std@@@std@@@?$_Tree_node@U?$pair@$$CBIUImVec4@@@std@@PAX@std@@SAPAU01@AAV?$allocator@U?$_Tree_node@U?$pair@$$CBIUImVec4@@@std@@PAX@std@@@1@@Z 100fbb50 f i imgui_widgets.obj
 0001:000fabf0       ??$_Emplace@U?$pair@$$CBIUImVec4@@@std@@@?$_Tree@V?$_Tmap_traits@IUImVec4@@U?$less@I@std@@V?$allocator@U?$pair@$$CBIUImVec4@@@std@@@3@$0A@@std@@@std@@IAE?AU?$pair@PAU?$_Tree_node@U?$pair@$$CBIUImVec4@@@std@@PAX@std@@_N@1@$$QAU?$pair@$$CBIUImVec4@@@1@@Z 100fbbf0 f i imgui_widgets.obj
 0001:000fad40       ??$_Emplace@U?$pair@$$CBIM@std@@@?$_Tree@V?$_Tmap_traits@IMU?$less@I@std@@V?$allocator@U?$pair@$$CBIM@std@@@2@$0A@@std@@@std@@IAE?AU?$pair@PAU?$_Tree_node@U?$pair@$$CBIM@std@@PAX@std@@_N@1@$$QAU?$pair@$$CBIM@1@@Z 100fbd40 f i imgui_widgets.obj
 0001:000fad40       ??$_Emplace@U?$pair@$$CBI_N@std@@@?$_Tree@V?$_Tmap_traits@I_NU?$less@I@std@@V?$allocator@U?$pair@$$CBI_N@std@@@2@$0A@@std@@@std@@IAE?AU?$pair@PAU?$_Tree_node@U?$pair@$$CBI_N@std@@PAX@std@@_N@1@$$QAU?$pair@$$CBI_N@1@@Z 100fbd40 f i imgui_widgets.obj
 0001:000fae90       ??$_Emplace@U?$pair@$$CBIUcircle_button@@@std@@@?$_Tree@V?$_Tmap_traits@IUcircle_button@@U?$less@I@std@@V?$allocator@U?$pair@$$CBIUcircle_button@@@std@@@3@$0A@@std@@@std@@IAE?AU?$pair@PAU?$_Tree_node@U?$pair@$$CBIUcircle_button@@@std@@PAX@std@@_N@1@$$QAU?$pair@$$CBIUcircle_button@@@1@@Z 100fbe90 f i imgui_widgets.obj
 0001:000fafe0       ??$_Emplace@U?$pair@$$CBIUarrow_anim@@@std@@@?$_Tree@V?$_Tmap_traits@IUarrow_anim@@U?$less@I@std@@V?$allocator@U?$pair@$$CBIUarrow_anim@@@std@@@3@$0A@@std@@@std@@IAE?AU?$pair@PAU?$_Tree_node@U?$pair@$$CBIUarrow_anim@@@std@@PAX@std@@_N@1@$$QAU?$pair@$$CBIUarrow_anim@@@1@@Z 100fbfe0 f i imgui_widgets.obj
 0001:000fb130       ??$RoundScalarWithFormatT@HH@ImGui@@YAHPBDHH@Z 100fc130 f i imgui_widgets.obj
 0001:000fb130       ??$RoundScalarWithFormatT@IH@ImGui@@YAIPBDHI@Z 100fc130 f i imgui_widgets.obj
 0001:000fb1f0       ??$RoundScalarWithFormatT@_J_J@ImGui@@YA_JPBDH_J@Z 100fc1f0 f i imgui_widgets.obj
 0001:000fb2c0       ??$RoundScalarWithFormatT@_K_J@ImGui@@YA_KPBDH_K@Z 100fc2c0 f i imgui_widgets.obj
 0001:000fb3e0       ??$RoundScalarWithFormatT@MM@ImGui@@YAMPBDHM@Z 100fc3e0 f i imgui_widgets.obj
 0001:000fb4a0       ??$RoundScalarWithFormatT@NN@ImGui@@YANPBDHN@Z 100fc4a0 f i imgui_widgets.obj
 0001:000fb560       ??$SliderCalcRatioFromValueT@HM@ImGui@@YAMHHHHMM@Z 100fc560 f i imgui_widgets.obj
 0001:000fb780       ??$SliderCalcRatioFromValueT@IM@ImGui@@YAMHIIIMM@Z 100fc780 f i imgui_widgets.obj
 0001:000fba40       ??$SliderCalcRatioFromValueT@_JN@ImGui@@YAMH_J00MM@Z 100fca40 f i imgui_widgets.obj
 0001:000fbd70       ??$SliderCalcRatioFromValueT@_KN@ImGui@@YAMH_K00MM@Z 100fcd70 f i imgui_widgets.obj
 0001:000fc090       ??$SliderCalcRatioFromValueT@MM@ImGui@@YAMHMMMMM@Z 100fd090 f i imgui_widgets.obj
 0001:000fc310       ??$SliderCalcRatioFromValueT@NN@ImGui@@YAMHNNNMM@Z 100fd310 f i imgui_widgets.obj
 0001:000fc5b0       ??$_Emplace@U?$pair@$$CBIUcolorpicket_state@@@std@@@?$_Tree@V?$_Tmap_traits@IUcolorpicket_state@@U?$less@I@std@@V?$allocator@U?$pair@$$CBIUcolorpicket_state@@@std@@@3@$0A@@std@@@std@@IAE?AU?$pair@PAU?$_Tree_node@U?$pair@$$CBIUcolorpicket_state@@@std@@PAX@std@@_N@1@$$QAU?$pair@$$CBIUcolorpicket_state@@@1@@Z 100fd5b0 f i imgui_widgets.obj
 0001:000fc700       ??$_Find_lower_bound@I@?$_Tree@V?$_Tmap_traits@I_NU?$less@I@std@@V?$allocator@U?$pair@$$CBI_N@std@@@2@$0A@@std@@@std@@IBE?AU?$_Tree_find_result@PAU?$_Tree_node@U?$pair@$$CBI_N@std@@PAX@std@@@1@ABI@Z 100fd700 f i imgui_widgets.obj
 0001:000fc700       ??$_Find_lower_bound@I@?$_Tree@V?$_Tmap_traits@IUarrow_anim@@U?$less@I@std@@V?$allocator@U?$pair@$$CBIUarrow_anim@@@std@@@3@$0A@@std@@@std@@IBE?AU?$_Tree_find_result@PAU?$_Tree_node@U?$pair@$$CBIUarrow_anim@@@std@@PAX@std@@@1@ABI@Z 100fd700 f i imgui_widgets.obj
 0001:000fc700       ??$_Find_lower_bound@I@?$_Tree@V?$_Tmap_traits@IUImVec4@@U?$less@I@std@@V?$allocator@U?$pair@$$CBIUImVec4@@@std@@@3@$0A@@std@@@std@@IBE?AU?$_Tree_find_result@PAU?$_Tree_node@U?$pair@$$CBIUImVec4@@@std@@PAX@std@@@1@ABI@Z 100fd700 f i imgui_widgets.obj
 0001:000fc700       ??$_Find_lower_bound@I@?$_Tree@V?$_Tmap_traits@IMU?$less@I@std@@V?$allocator@U?$pair@$$CBIM@std@@@2@$0A@@std@@@std@@IBE?AU?$_Tree_find_result@PAU?$_Tree_node@U?$pair@$$CBIM@std@@PAX@std@@@1@ABI@Z 100fd700 f i imgui_widgets.obj
 0001:000fc700       ??$_Find_lower_bound@I@?$_Tree@V?$_Tmap_traits@IUcircle_button@@U?$less@I@std@@V?$allocator@U?$pair@$$CBIUcircle_button@@@std@@@3@$0A@@std@@@std@@IBE?AU?$_Tree_find_result@PAU?$_Tree_node@U?$pair@$$CBIUcircle_button@@@std@@PAX@std@@@1@ABI@Z 100fd700 f i imgui_widgets.obj
 0001:000fc700       ??$_Find_lower_bound@I@?$_Tree@V?$_Tmap_traits@IUcolorpicket_state@@U?$less@I@std@@V?$allocator@U?$pair@$$CBIUcolorpicket_state@@@std@@@3@$0A@@std@@@std@@IBE?AU?$_Tree_find_result@PAU?$_Tree_node@U?$pair@$$CBIUcolorpicket_state@@@std@@PAX@std@@@1@ABI@Z 100fd700 f i imgui_widgets.obj
 0001:000fc7d0       ??$_Lower_bound_duplicate@I@?$_Tree@V?$_Tmap_traits@IUcircle_button@@U?$less@I@std@@V?$allocator@U?$pair@$$CBIUcircle_button@@@std@@@3@$0A@@std@@@std@@IBE_NQAU?$_Tree_node@U?$pair@$$CBIUcircle_button@@@std@@PAX@1@ABI@Z 100fd7d0 f i imgui_widgets.obj
 0001:000fc7d0       ??$_Lower_bound_duplicate@I@?$_Tree@V?$_Tmap_traits@IUImVec4@@U?$less@I@std@@V?$allocator@U?$pair@$$CBIUImVec4@@@std@@@3@$0A@@std@@@std@@IBE_NQAU?$_Tree_node@U?$pair@$$CBIUImVec4@@@std@@PAX@1@ABI@Z 100fd7d0 f i imgui_widgets.obj
 0001:000fc7d0       ??$_Lower_bound_duplicate@I@?$_Tree@V?$_Tmap_traits@IUcolorpicket_state@@U?$less@I@std@@V?$allocator@U?$pair@$$CBIUcolorpicket_state@@@std@@@3@$0A@@std@@@std@@IBE_NQAU?$_Tree_node@U?$pair@$$CBIUcolorpicket_state@@@std@@PAX@1@ABI@Z 100fd7d0 f i imgui_widgets.obj
 0001:000fc7d0       ??$_Lower_bound_duplicate@I@?$_Tree@V?$_Tmap_traits@I_NU?$less@I@std@@V?$allocator@U?$pair@$$CBI_N@std@@@2@$0A@@std@@@std@@IBE_NQAU?$_Tree_node@U?$pair@$$CBI_N@std@@PAX@1@ABI@Z 100fd7d0 f i imgui_widgets.obj
 0001:000fc7d0       ??$_Lower_bound_duplicate@I@?$_Tree@V?$_Tmap_traits@IMU?$less@I@std@@V?$allocator@U?$pair@$$CBIM@std@@@2@$0A@@std@@@std@@IBE_NQAU?$_Tree_node@U?$pair@$$CBIM@std@@PAX@1@ABI@Z 100fd7d0 f i imgui_widgets.obj
 0001:000fc7d0       ??$_Lower_bound_duplicate@I@?$_Tree@V?$_Tmap_traits@IUarrow_anim@@U?$less@I@std@@V?$allocator@U?$pair@$$CBIUarrow_anim@@@std@@@3@$0A@@std@@@std@@IBE_NQAU?$_Tree_node@U?$pair@$$CBIUarrow_anim@@@std@@PAX@1@ABI@Z 100fd7d0 f i imgui_widgets.obj
 0001:000fc840       ??$_Erase_tree@V?$allocator@U?$_Tree_node@U?$pair@$$CBIUcolorpicket_state@@@std@@PAX@std@@@std@@@?$_Tree_val@U?$_Tree_simple_types@U?$pair@$$CBIUcolorpicket_state@@@std@@@std@@@std@@QAEXAAV?$allocator@U?$_Tree_node@U?$pair@$$CBIUcolorpicket_state@@@std@@PAX@std@@@1@PAU?$_Tree_node@U?$pair@$$CBIUcolorpicket_state@@@std@@PAX@1@@Z 100fd840 f i imgui_widgets.obj
 0001:000fc8d0       ??$_Freenode0@V?$allocator@U?$_Tree_node@U?$pair@$$CBIUcolorpicket_state@@@std@@PAX@std@@@std@@@?$_Tree_node@U?$pair@$$CBIUcolorpicket_state@@@std@@PAX@std@@SAXAAV?$allocator@U?$_Tree_node@U?$pair@$$CBIUcolorpicket_state@@@std@@PAX@std@@@1@PAU01@@Z 100fd8d0 f i imgui_widgets.obj
 0001:000fc950       ??$_Erase_tree@V?$allocator@U?$_Tree_node@U?$pair@$$CBI_N@std@@PAX@std@@@std@@@?$_Tree_val@U?$_Tree_simple_types@U?$pair@$$CBI_N@std@@@std@@@std@@QAEXAAV?$allocator@U?$_Tree_node@U?$pair@$$CBI_N@std@@PAX@std@@@1@PAU?$_Tree_node@U?$pair@$$CBI_N@std@@PAX@1@@Z 100fd950 f i imgui_widgets.obj
 0001:000fc950       ??$_Erase_tree@V?$allocator@U?$_Tree_node@U?$pair@$$CBIM@std@@PAX@std@@@std@@@?$_Tree_val@U?$_Tree_simple_types@U?$pair@$$CBIM@std@@@std@@@std@@QAEXAAV?$allocator@U?$_Tree_node@U?$pair@$$CBIM@std@@PAX@std@@@1@PAU?$_Tree_node@U?$pair@$$CBIM@std@@PAX@1@@Z 100fd950 f i imgui_widgets.obj
 0001:000fc9e0       ??$_Freenode0@V?$allocator@U?$_Tree_node@U?$pair@$$CBI_N@std@@PAX@std@@@std@@@?$_Tree_node@U?$pair@$$CBI_N@std@@PAX@std@@SAXAAV?$allocator@U?$_Tree_node@U?$pair@$$CBI_N@std@@PAX@std@@@1@PAU01@@Z 100fd9e0 f i imgui_widgets.obj
 0001:000fc9e0       ??$_Freenode0@V?$allocator@U?$_Tree_node@U?$pair@$$CBIM@std@@PAX@std@@@std@@@?$_Tree_node@U?$pair@$$CBIM@std@@PAX@std@@SAXAAV?$allocator@U?$_Tree_node@U?$pair@$$CBIM@std@@PAX@std@@@1@PAU01@@Z 100fd9e0 f i imgui_widgets.obj
 0001:000fca60       ??$_Erase_tree@V?$allocator@U?$_Tree_node@U?$pair@$$CBIUarrow_anim@@@std@@PAX@std@@@std@@@?$_Tree_val@U?$_Tree_simple_types@U?$pair@$$CBIUarrow_anim@@@std@@@std@@@std@@QAEXAAV?$allocator@U?$_Tree_node@U?$pair@$$CBIUarrow_anim@@@std@@PAX@std@@@1@PAU?$_Tree_node@U?$pair@$$CBIUarrow_anim@@@std@@PAX@1@@Z 100fda60 f i imgui_widgets.obj
 0001:000fcaf0       ??$_Freenode0@V?$allocator@U?$_Tree_node@U?$pair@$$CBIUarrow_anim@@@std@@PAX@std@@@std@@@?$_Tree_node@U?$pair@$$CBIUarrow_anim@@@std@@PAX@std@@SAXAAV?$allocator@U?$_Tree_node@U?$pair@$$CBIUarrow_anim@@@std@@PAX@std@@@1@PAU01@@Z 100fdaf0 f i imgui_widgets.obj
 0001:000fcb70       ??$_Erase_tree@V?$allocator@U?$_Tree_node@U?$pair@$$CBIUcircle_button@@@std@@PAX@std@@@std@@@?$_Tree_val@U?$_Tree_simple_types@U?$pair@$$CBIUcircle_button@@@std@@@std@@@std@@QAEXAAV?$allocator@U?$_Tree_node@U?$pair@$$CBIUcircle_button@@@std@@PAX@std@@@1@PAU?$_Tree_node@U?$pair@$$CBIUcircle_button@@@std@@PAX@1@@Z 100fdb70 f i imgui_widgets.obj
 0001:000fcc00       ??$_Freenode0@V?$allocator@U?$_Tree_node@U?$pair@$$CBIUcircle_button@@@std@@PAX@std@@@std@@@?$_Tree_node@U?$pair@$$CBIUcircle_button@@@std@@PAX@std@@SAXAAV?$allocator@U?$_Tree_node@U?$pair@$$CBIUcircle_button@@@std@@PAX@std@@@1@PAU01@@Z 100fdc00 f i imgui_widgets.obj
 0001:000fcc80       ??$_Erase_tree@V?$allocator@U?$_Tree_node@U?$pair@$$CBIUImVec4@@@std@@PAX@std@@@std@@@?$_Tree_val@U?$_Tree_simple_types@U?$pair@$$CBIUImVec4@@@std@@@std@@@std@@QAEXAAV?$allocator@U?$_Tree_node@U?$pair@$$CBIUImVec4@@@std@@PAX@std@@@1@PAU?$_Tree_node@U?$pair@$$CBIUImVec4@@@std@@PAX@1@@Z 100fdc80 f i imgui_widgets.obj
 0001:000fcd10       ??$_Freenode0@V?$allocator@U?$_Tree_node@U?$pair@$$CBIUImVec4@@@std@@PAX@std@@@std@@@?$_Tree_node@U?$pair@$$CBIUImVec4@@@std@@PAX@std@@SAXAAV?$allocator@U?$_Tree_node@U?$pair@$$CBIUImVec4@@@std@@PAX@std@@@1@PAU01@@Z 100fdd10 f i imgui_widgets.obj
 0001:000fcd90       ??$_Construct_in_place@PAU?$_Tree_node@U?$pair@$$CBIM@std@@PAX@std@@AAPAU12@@std@@YAXAAPAU?$_Tree_node@U?$pair@$$CBIM@std@@PAX@0@0@Z 100fdd90 f i imgui_widgets.obj
 0001:000fcd90       ??$_Construct_in_place@PAU?$_Tree_node@U?$pair@$$CBIUcolorpicket_state@@@std@@PAX@std@@AAPAU12@@std@@YAXAAPAU?$_Tree_node@U?$pair@$$CBIUcolorpicket_state@@@std@@PAX@0@0@Z 100fdd90 f i imgui_widgets.obj
 0001:000fcd90       ??$_Construct_in_place@PAU?$_Tree_node@U?$pair@$$CBIUarrow_anim@@@std@@PAX@std@@AAPAU12@@std@@YAXAAPAU?$_Tree_node@U?$pair@$$CBIUarrow_anim@@@std@@PAX@0@0@Z 100fdd90 f i imgui_widgets.obj
 0001:000fcd90       ??$_Construct_in_place@PAU?$_Tree_node@U?$pair@$$CBI_N@std@@PAX@std@@AAPAU12@@std@@YAXAAPAU?$_Tree_node@U?$pair@$$CBI_N@std@@PAX@0@0@Z 100fdd90 f i imgui_widgets.obj
 0001:000fcd90       ??$_Construct_in_place@PAU?$_Tree_node@U?$pair@$$CBIUImVec4@@@std@@PAX@std@@ABQAU12@@std@@YAXAAPAU?$_Tree_node@U?$pair@$$CBIUImVec4@@@std@@PAX@0@ABQAU10@@Z 100fdd90 f i imgui_widgets.obj
 0001:000fcd90       ??$_Construct_in_place@PAU?$_Tree_node@U?$pair@$$CBIUImVec4@@@std@@PAX@std@@AAPAU12@@std@@YAXAAPAU?$_Tree_node@U?$pair@$$CBIUImVec4@@@std@@PAX@0@0@Z 100fdd90 f i imgui_widgets.obj
 0001:000fcd90       ??$_Construct_in_place@PAU?$_Tree_node@U?$pair@$$CBIUcircle_button@@@std@@PAX@std@@ABQAU12@@std@@YAXAAPAU?$_Tree_node@U?$pair@$$CBIUcircle_button@@@std@@PAX@0@ABQAU10@@Z 100fdd90 f i imgui_widgets.obj
 0001:000fcd90       ??$_Construct_in_place@PAU?$_Tree_node@U?$pair@$$CBIUcolorpicket_state@@@std@@PAX@std@@ABQAU12@@std@@YAXAAPAU?$_Tree_node@U?$pair@$$CBIUcolorpicket_state@@@std@@PAX@0@ABQAU10@@Z 100fdd90 f i imgui_widgets.obj
 0001:000fcd90       ??$_Construct_in_place@PAU?$_Tree_node@U?$pair@$$CBI_N@std@@PAX@std@@ABQAU12@@std@@YAXAAPAU?$_Tree_node@U?$pair@$$CBI_N@std@@PAX@0@ABQAU10@@Z 100fdd90 f i imgui_widgets.obj
 0001:000fcd90       ??$_Construct_in_place@PAU?$_Tree_node@U?$pair@$$CBIM@std@@PAX@std@@ABQAU12@@std@@YAXAAPAU?$_Tree_node@U?$pair@$$CBIM@std@@PAX@0@ABQAU10@@Z 100fdd90 f i imgui_widgets.obj
 0001:000fcd90       ??$_Construct_in_place@PAU?$_Tree_node@U?$pair@$$CBIUcircle_button@@@std@@PAX@std@@AAPAU12@@std@@YAXAAPAU?$_Tree_node@U?$pair@$$CBIUcircle_button@@@std@@PAX@0@0@Z 100fdd90 f i imgui_widgets.obj
 0001:000fcd90       ??$_Construct_in_place@PAU?$_Tree_node@U?$pair@$$CBIUarrow_anim@@@std@@PAX@std@@ABQAU12@@std@@YAXAAPAU?$_Tree_node@U?$pair@$$CBIUarrow_anim@@@std@@PAX@0@ABQAU10@@Z 100fdd90 f i imgui_widgets.obj
 0001:000fcdf0       ??1?$_Tree_temp_node@V?$allocator@U?$_Tree_node@U?$pair@$$CBIUcolorpicket_state@@@std@@PAX@std@@@std@@@std@@QAE@XZ 100fddf0 f i imgui_widgets.obj
 0001:000fcec0       ??1?$_Tree_temp_node@V?$allocator@U?$_Tree_node@U?$pair@$$CBIM@std@@PAX@std@@@std@@@std@@QAE@XZ 100fdec0 f i imgui_widgets.obj
 0001:000fcec0       ??1?$_Tree_temp_node@V?$allocator@U?$_Tree_node@U?$pair@$$CBI_N@std@@PAX@std@@@std@@@std@@QAE@XZ 100fdec0 f i imgui_widgets.obj
 0001:000fcf90       ??1?$_Tree_temp_node@V?$allocator@U?$_Tree_node@U?$pair@$$CBIUarrow_anim@@@std@@PAX@std@@@std@@@std@@QAE@XZ 100fdf90 f i imgui_widgets.obj
 0001:000fd060       ??1?$_Tree_temp_node@V?$allocator@U?$_Tree_node@U?$pair@$$CBIUcircle_button@@@std@@PAX@std@@@std@@@std@@QAE@XZ 100fe060 f i imgui_widgets.obj
 0001:000fd130       ??1?$_Tree_temp_node@V?$allocator@U?$_Tree_node@U?$pair@$$CBIUImVec4@@@std@@PAX@std@@@std@@@std@@QAE@XZ 100fe130 f i imgui_widgets.obj
 0001:000fd200       ?_Insert_node@?$_Tree_val@U?$_Tree_simple_types@U?$pair@$$CBI_N@std@@@std@@@std@@QAEPAU?$_Tree_node@U?$pair@$$CBI_N@std@@PAX@2@U?$_Tree_id@PAU?$_Tree_node@U?$pair@$$CBI_N@std@@PAX@std@@@2@QAU32@@Z 100fe200 f i imgui_widgets.obj
 0001:000fd200       ?_Insert_node@?$_Tree_val@U?$_Tree_simple_types@U?$pair@$$CBIUcolorpicket_state@@@std@@@std@@@std@@QAEPAU?$_Tree_node@U?$pair@$$CBIUcolorpicket_state@@@std@@PAX@2@U?$_Tree_id@PAU?$_Tree_node@U?$pair@$$CBIUcolorpicket_state@@@std@@PAX@std@@@2@QAU32@@Z 100fe200 f i imgui_widgets.obj
 0001:000fd200       ?_Insert_node@?$_Tree_val@U?$_Tree_simple_types@U?$pair@$$CBIUcircle_button@@@std@@@std@@@std@@QAEPAU?$_Tree_node@U?$pair@$$CBIUcircle_button@@@std@@PAX@2@U?$_Tree_id@PAU?$_Tree_node@U?$pair@$$CBIUcircle_button@@@std@@PAX@std@@@2@QAU32@@Z 100fe200 f i imgui_widgets.obj
 0001:000fd200       ?_Insert_node@?$_Tree_val@U?$_Tree_simple_types@U?$pair@$$CBIUImVec4@@@std@@@std@@@std@@QAEPAU?$_Tree_node@U?$pair@$$CBIUImVec4@@@std@@PAX@2@U?$_Tree_id@PAU?$_Tree_node@U?$pair@$$CBIUImVec4@@@std@@PAX@std@@@2@QAU32@@Z 100fe200 f i imgui_widgets.obj
 0001:000fd200       ?_Insert_node@?$_Tree_val@U?$_Tree_simple_types@U?$pair@$$CBIUarrow_anim@@@std@@@std@@@std@@QAEPAU?$_Tree_node@U?$pair@$$CBIUarrow_anim@@@std@@PAX@2@U?$_Tree_id@PAU?$_Tree_node@U?$pair@$$CBIUarrow_anim@@@std@@PAX@std@@@2@QAU32@@Z 100fe200 f i imgui_widgets.obj
 0001:000fd200       ?_Insert_node@?$_Tree_val@U?$_Tree_simple_types@U?$pair@$$CBIM@std@@@std@@@std@@QAEPAU?$_Tree_node@U?$pair@$$CBIM@std@@PAX@2@U?$_Tree_id@PAU?$_Tree_node@U?$pair@$$CBIM@std@@PAX@std@@@2@QAU32@@Z 100fe200 f i imgui_widgets.obj
 0001:000fd440       ?_Check_grow_by_1@?$_Tree@V?$_Tmap_traits@IUcolorpicket_state@@U?$less@I@std@@V?$allocator@U?$pair@$$CBIUcolorpicket_state@@@std@@@3@$0A@@std@@@std@@IAEXXZ 100fe440 f i imgui_widgets.obj
 0001:000fd4c0       ?_Check_grow_by_1@?$_Tree@V?$_Tmap_traits@IMU?$less@I@std@@V?$allocator@U?$pair@$$CBIM@std@@@2@$0A@@std@@@std@@IAEXXZ 100fe4c0 f i imgui_widgets.obj
 0001:000fd4c0       ?_Check_grow_by_1@?$_Tree@V?$_Tmap_traits@I_NU?$less@I@std@@V?$allocator@U?$pair@$$CBI_N@std@@@2@$0A@@std@@@std@@IAEXXZ 100fe4c0 f i imgui_widgets.obj
 0001:000fd540       ?_Check_grow_by_1@?$_Tree@V?$_Tmap_traits@IUarrow_anim@@U?$less@I@std@@V?$allocator@U?$pair@$$CBIUarrow_anim@@@std@@@3@$0A@@std@@@std@@IAEXXZ 100fe540 f i imgui_widgets.obj
 0001:000fd5c0       ?_Check_grow_by_1@?$_Tree@V?$_Tmap_traits@IUcircle_button@@U?$less@I@std@@V?$allocator@U?$pair@$$CBIUcircle_button@@@std@@@3@$0A@@std@@@std@@IAEXXZ 100fe5c0 f i imgui_widgets.obj
 0001:000fd640       ?_Check_grow_by_1@?$_Tree@V?$_Tmap_traits@IUImVec4@@U?$less@I@std@@V?$allocator@U?$pair@$$CBIUImVec4@@@std@@@3@$0A@@std@@@std@@IAEXXZ 100fe640 f i imgui_widgets.obj
 0001:000fd6c0       ??1?$_Alloc_construct_ptr@V?$allocator@U?$_Tree_node@U?$pair@$$CBIUcolorpicket_state@@@std@@PAX@std@@@std@@@std@@QAE@XZ 100fe6c0 f i imgui_widgets.obj
 0001:000fd730       ??1?$_Alloc_construct_ptr@V?$allocator@U?$_Tree_node@U?$pair@$$CBIM@std@@PAX@std@@@std@@@std@@QAE@XZ 100fe730 f i imgui_widgets.obj
 0001:000fd730       ??1?$_Alloc_construct_ptr@V?$allocator@U?$_Tree_node@U?$pair@$$CBI_N@std@@PAX@std@@@std@@@std@@QAE@XZ 100fe730 f i imgui_widgets.obj
 0001:000fd7a0       ??1?$_Alloc_construct_ptr@V?$allocator@U?$_Tree_node@U?$pair@$$CBIUarrow_anim@@@std@@PAX@std@@@std@@@std@@QAE@XZ 100fe7a0 f i imgui_widgets.obj
 0001:000fd810       ??1?$_Alloc_construct_ptr@V?$allocator@U?$_Tree_node@U?$pair@$$CBIUcircle_button@@@std@@PAX@std@@@std@@@std@@QAE@XZ 100fe810 f i imgui_widgets.obj
 0001:000fd880       ??1?$_Alloc_construct_ptr@V?$allocator@U?$_Tree_node@U?$pair@$$CBIUImVec4@@@std@@PAX@std@@@std@@@std@@QAE@XZ 100fe880 f i imgui_widgets.obj
 0001:000fd8f0       ?_Rrotate@?$_Tree_val@U?$_Tree_simple_types@U?$pair@$$CBIUarrow_anim@@@std@@@std@@@std@@QAEXPAU?$_Tree_node@U?$pair@$$CBIUarrow_anim@@@std@@PAX@2@@Z 100fe8f0 f i imgui_widgets.obj
 0001:000fd8f0       ?_Rrotate@?$_Tree_val@U?$_Tree_simple_types@U?$pair@$$CBIUImVec4@@@std@@@std@@@std@@QAEXPAU?$_Tree_node@U?$pair@$$CBIUImVec4@@@std@@PAX@2@@Z 100fe8f0 f i imgui_widgets.obj
 0001:000fd8f0       ?_Rrotate@?$_Tree_val@U?$_Tree_simple_types@U?$pair@$$CBIUcircle_button@@@std@@@std@@@std@@QAEXPAU?$_Tree_node@U?$pair@$$CBIUcircle_button@@@std@@PAX@2@@Z 100fe8f0 f i imgui_widgets.obj
 0001:000fd8f0       ?_Rrotate@?$_Tree_val@U?$_Tree_simple_types@U?$pair@$$CBI_N@std@@@std@@@std@@QAEXPAU?$_Tree_node@U?$pair@$$CBI_N@std@@PAX@2@@Z 100fe8f0 f i imgui_widgets.obj
 0001:000fd8f0       ?_Rrotate@?$_Tree_val@U?$_Tree_simple_types@U?$pair@$$CBIUcolorpicket_state@@@std@@@std@@@std@@QAEXPAU?$_Tree_node@U?$pair@$$CBIUcolorpicket_state@@@std@@PAX@2@@Z 100fe8f0 f i imgui_widgets.obj
 0001:000fd8f0       ?_Rrotate@?$_Tree_val@U?$_Tree_simple_types@U?$pair@$$CBIM@std@@@std@@@std@@QAEXPAU?$_Tree_node@U?$pair@$$CBIM@std@@PAX@2@@Z 100fe8f0 f i imgui_widgets.obj
 0001:000fd9c0       ?_Lrotate@?$_Tree_val@U?$_Tree_simple_types@U?$pair@$$CBIUImVec4@@@std@@@std@@@std@@QAEXPAU?$_Tree_node@U?$pair@$$CBIUImVec4@@@std@@PAX@2@@Z 100fe9c0 f i imgui_widgets.obj
 0001:000fd9c0       ?_Lrotate@?$_Tree_val@U?$_Tree_simple_types@U?$pair@$$CBIUcolorpicket_state@@@std@@@std@@@std@@QAEXPAU?$_Tree_node@U?$pair@$$CBIUcolorpicket_state@@@std@@PAX@2@@Z 100fe9c0 f i imgui_widgets.obj
 0001:000fd9c0       ?_Lrotate@?$_Tree_val@U?$_Tree_simple_types@U?$pair@$$CBI_N@std@@@std@@@std@@QAEXPAU?$_Tree_node@U?$pair@$$CBI_N@std@@PAX@2@@Z 100fe9c0 f i imgui_widgets.obj
 0001:000fd9c0       ?_Lrotate@?$_Tree_val@U?$_Tree_simple_types@U?$pair@$$CBIM@std@@@std@@@std@@QAEXPAU?$_Tree_node@U?$pair@$$CBIM@std@@PAX@2@@Z 100fe9c0 f i imgui_widgets.obj
 0001:000fd9c0       ?_Lrotate@?$_Tree_val@U?$_Tree_simple_types@U?$pair@$$CBIUarrow_anim@@@std@@@std@@@std@@QAEXPAU?$_Tree_node@U?$pair@$$CBIUarrow_anim@@@std@@PAX@2@@Z 100fe9c0 f i imgui_widgets.obj
 0001:000fd9c0       ?_Lrotate@?$_Tree_val@U?$_Tree_simple_types@U?$pair@$$CBIUcircle_button@@@std@@@std@@@std@@QAEXPAU?$_Tree_node@U?$pair@$$CBIUcircle_button@@@std@@PAX@2@@Z 100fe9c0 f i imgui_widgets.obj
 0001:000fda90       ??$?0U?$pair@$$CBIUImVec4@@@std@@@?$_Tree_temp_node@V?$allocator@U?$_Tree_node@U?$pair@$$CBIUImVec4@@@std@@PAX@std@@@std@@@std@@QAE@AAV?$allocator@U?$_Tree_node@U?$pair@$$CBIUImVec4@@@std@@PAX@std@@@1@PAU?$_Tree_node@U?$pair@$$CBIUImVec4@@@std@@PAX@1@$$QAU?$pair@$$CBIUImVec4@@@1@@Z 100fea90 f i imgui_widgets.obj
 0001:000fdba0       ??$?0U?$pair@$$CBI_N@std@@@?$_Tree_temp_node@V?$allocator@U?$_Tree_node@U?$pair@$$CBI_N@std@@PAX@std@@@std@@@std@@QAE@AAV?$allocator@U?$_Tree_node@U?$pair@$$CBI_N@std@@PAX@std@@@1@PAU?$_Tree_node@U?$pair@$$CBI_N@std@@PAX@1@$$QAU?$pair@$$CBI_N@1@@Z 100feba0 f i imgui_widgets.obj
 0001:000fdba0       ??$?0U?$pair@$$CBIM@std@@@?$_Tree_temp_node@V?$allocator@U?$_Tree_node@U?$pair@$$CBIM@std@@PAX@std@@@std@@@std@@QAE@AAV?$allocator@U?$_Tree_node@U?$pair@$$CBIM@std@@PAX@std@@@1@PAU?$_Tree_node@U?$pair@$$CBIM@std@@PAX@1@$$QAU?$pair@$$CBIM@1@@Z 100feba0 f i imgui_widgets.obj
 0001:000fdca0       ??$?0U?$pair@$$CBIUcircle_button@@@std@@@?$_Tree_temp_node@V?$allocator@U?$_Tree_node@U?$pair@$$CBIUcircle_button@@@std@@PAX@std@@@std@@@std@@QAE@AAV?$allocator@U?$_Tree_node@U?$pair@$$CBIUcircle_button@@@std@@PAX@std@@@1@PAU?$_Tree_node@U?$pair@$$CBIUcircle_button@@@std@@PAX@1@$$QAU?$pair@$$CBIUcircle_button@@@1@@Z 100feca0 f i imgui_widgets.obj
 0001:000fdda0       ??$?0U?$pair@$$CBIUarrow_anim@@@std@@@?$_Tree_temp_node@V?$allocator@U?$_Tree_node@U?$pair@$$CBIUarrow_anim@@@std@@PAX@std@@@std@@@std@@QAE@AAV?$allocator@U?$_Tree_node@U?$pair@$$CBIUarrow_anim@@@std@@PAX@std@@@1@PAU?$_Tree_node@U?$pair@$$CBIUarrow_anim@@@std@@PAX@1@$$QAU?$pair@$$CBIUarrow_anim@@@1@@Z 100feda0 f i imgui_widgets.obj
 0001:000fe160       ??$?0U?$pair@$$CBIUcolorpicket_state@@@std@@@?$_Tree_temp_node@V?$allocator@U?$_Tree_node@U?$pair@$$CBIUcolorpicket_state@@@std@@PAX@std@@@std@@@std@@QAE@AAV?$allocator@U?$_Tree_node@U?$pair@$$CBIUcolorpicket_state@@@std@@PAX@std@@@1@PAU?$_Tree_node@U?$pair@$$CBIUcolorpicket_state@@@std@@PAX@1@$$QAU?$pair@$$CBIUcolorpicket_state@@@1@@Z 100ff160 f i imgui_widgets.obj
 0001:000fe270       ??$_Debug_lt_pred@ABU?$less@I@std@@ABIABI$0A@@std@@YA_NABU?$less@I@0@ABI1@Z 100ff270 f i imgui_widgets.obj
 0001:000fe330       ??$_Destroy_in_place@PAU?$_Tree_node@U?$pair@$$CBIUcircle_button@@@std@@PAX@std@@@std@@YAXAAPAU?$_Tree_node@U?$pair@$$CBIUcircle_button@@@std@@PAX@0@@Z 100ff330 f i imgui_widgets.obj
 0001:000fe330       ??$_Destroy_in_place@PAU?$_Tree_node@U?$pair@$$CBIUarrow_anim@@@std@@PAX@std@@@std@@YAXAAPAU?$_Tree_node@U?$pair@$$CBIUarrow_anim@@@std@@PAX@0@@Z 100ff330 f i imgui_widgets.obj
 0001:000fe330       ??$_Destroy_in_place@PAU?$_Tree_node@U?$pair@$$CBIM@std@@PAX@std@@@std@@YAXAAPAU?$_Tree_node@U?$pair@$$CBIM@std@@PAX@0@@Z 100ff330 f i imgui_widgets.obj
 0001:000fe330       ??$_Destroy_in_place@PAU?$_Tree_node@U?$pair@$$CBIUImVec4@@@std@@PAX@std@@@std@@YAXAAPAU?$_Tree_node@U?$pair@$$CBIUImVec4@@@std@@PAX@0@@Z 100ff330 f i imgui_widgets.obj
 0001:000fe330       ??$_Destroy_in_place@PAU?$_Tree_node@U?$pair@$$CBIUcolorpicket_state@@@std@@PAX@std@@@std@@YAXAAPAU?$_Tree_node@U?$pair@$$CBIUcolorpicket_state@@@std@@PAX@0@@Z 100ff330 f i imgui_widgets.obj
 0001:000fe330       ??$_Destroy_in_place@PAU?$_Tree_node@U?$pair@$$CBI_N@std@@PAX@std@@@std@@YAXAAPAU?$_Tree_node@U?$pair@$$CBI_N@std@@PAX@0@@Z 100ff330 f i imgui_widgets.obj
 0001:000fe370       ?_Allocate@?$_Alloc_construct_ptr@V?$allocator@U?$_Tree_node@U?$pair@$$CBIUcolorpicket_state@@@std@@PAX@std@@@std@@@std@@QAEXXZ 100ff370 f i imgui_widgets.obj
 0001:000fe3e0       ?_Allocate@?$_Alloc_construct_ptr@V?$allocator@U?$_Tree_node@U?$pair@$$CBI_N@std@@PAX@std@@@std@@@std@@QAEXXZ 100ff3e0 f i imgui_widgets.obj
 0001:000fe3e0       ?_Allocate@?$_Alloc_construct_ptr@V?$allocator@U?$_Tree_node@U?$pair@$$CBIM@std@@PAX@std@@@std@@@std@@QAEXXZ 100ff3e0 f i imgui_widgets.obj
 0001:000fe450       ?_Allocate@?$_Alloc_construct_ptr@V?$allocator@U?$_Tree_node@U?$pair@$$CBIUarrow_anim@@@std@@PAX@std@@@std@@@std@@QAEXXZ 100ff450 f i imgui_widgets.obj
 0001:000fe4c0       ?_Allocate@?$_Alloc_construct_ptr@V?$allocator@U?$_Tree_node@U?$pair@$$CBIUcircle_button@@@std@@PAX@std@@@std@@@std@@QAEXXZ 100ff4c0 f i imgui_widgets.obj
 0001:000fe530       ?_Allocate@?$_Alloc_construct_ptr@V?$allocator@U?$_Tree_node@U?$pair@$$CBIUImVec4@@@std@@PAX@std@@@std@@@std@@QAEXXZ 100ff530 f i imgui_widgets.obj
 0001:000fe5a0       ?now@steady_clock@chrono@std@@SA?AV?$time_point@Usteady_clock@chrono@std@@V?$duration@_JU?$ratio@$00$0DLJKMKAA@@std@@@23@@23@XZ 100ff5a0 f i main.obj
 0001:000fe680       ??0PaintKit@SkinChanger@@QAE@H$$QAV?$basic_string@DU?$char_traits@D@std@@V?$allocator@D@2@@std@@0@Z 100ff680 f i main.obj
 0001:000fe700       ?hash@?$fnv1a@I@0IFH@@SAIQBDI@Z 100ff700 f i main.obj
 0001:000fe760       _main@4                    100ff760 f   main.obj
 0001:00100a90       _DllMain@12                10101a90 f   main.obj
 0001:00100ae0       ??R<lambda_1>@?1??setup_render@@YAXXZ@QBEKPBDHHK@Z 10101ae0 f i main.obj
 0001:00100bb0       ??$emplace_back@AAHV?$basic_string@DU?$char_traits@D@std@@V?$allocator@D@2@@std@@AAPAD@?$vector@UPaintKit@SkinChanger@@V?$allocator@UPaintKit@SkinChanger@@@std@@@std@@QAEAAUPaintKit@SkinChanger@@AAH$$QAV?$basic_string@DU?$char_traits@D@std@@V?$allocator@D@2@@1@AAPAD@Z 10101bb0 f i main.obj
 0001:00100c70       ??$_Emplace_back_with_unused_capacity@AAHV?$basic_string@DU?$char_traits@D@std@@V?$allocator@D@2@@std@@AAPAD@?$vector@UPaintKit@SkinChanger@@V?$allocator@UPaintKit@SkinChanger@@@std@@@std@@AAEAAUPaintKit@SkinChanger@@AAH$$QAV?$basic_string@DU?$char_traits@D@std@@V?$allocator@D@2@@1@AAPAD@Z 10101c70 f i main.obj
 0001:00100d30       ??0?$istreambuf_iterator@DU?$char_traits@D@std@@@std@@QAE@AAV?$basic_istream@DU?$char_traits@D@std@@@1@@Z 10101d30 f i main.obj
 0001:00100dc0       ??0?$basic_ifstream@DU?$char_traits@D@std@@@std@@QAE@PBDHH@Z 10101dc0 f i main.obj
 0001:00100ef0       ??1?$_Hash_vec@V?$allocator@V?$_List_unchecked_iterator@V?$_List_val@U?$_List_simple_types@U?$pair@$$CBIG@std@@@std@@@std@@@std@@@std@@@std@@QAE@XZ 10101ef0 f i main.obj
 0001:00100f80       ??1?$list@U?$pair@$$CBIG@std@@V?$allocator@U?$pair@$$CBIG@std@@@2@@std@@QAE@XZ 10101f80 f i main.obj
 0001:00100ff0       ??4?$vector@V?$basic_string@DU?$char_traits@D@std@@V?$allocator@D@2@@std@@V?$allocator@V?$basic_string@DU?$char_traits@D@std@@V?$allocator@D@2@@std@@@2@@std@@QAEAAV01@V?$initializer_list@V?$basic_string@DU?$char_traits@D@std@@V?$allocator@D@2@@std@@@1@@Z 10101ff0 f i main.obj
 0001:00101050       ??4?$vector@HV?$allocator@H@std@@@std@@QAEAAV01@V?$initializer_list@H@1@@Z 10102050 f i main.obj
 0001:001010b0       ?clear@?$_Hash@V?$_Umap_traits@V?$basic_string@DU?$char_traits@D@std@@V?$allocator@D@2@@std@@PAURecvTable@@V?$_Uhash_compare@V?$basic_string@DU?$char_traits@D@std@@V?$allocator@D@2@@std@@U?$hash@V?$basic_string@DU?$char_traits@D@std@@V?$allocator@D@2@@std@@@2@U?$equal_to@V?$basic_string@DU?$char_traits@D@std@@V?$allocator@D@2@@std@@@2@@2@V?$allocator@U?$pair@$$CBV?$basic_string@DU?$char_traits@D@std@@V?$allocator@D@2@@std@@PAURecvTable@@@std@@@2@$0A@@std@@@std@@QAEXXZ 101020b0 f i main.obj
 0001:001011c0       ?max_size@?$basic_string@_WU?$char_traits@_W@std@@V?$allocator@_W@2@@std@@QBEIXZ 101021c0 f i main.obj
 0001:00101280       ?end@?$basic_string@_WU?$char_traits@_W@std@@V?$allocator@_W@2@@std@@QAE?AV?$_String_iterator@V?$_String_val@U?$_Simple_types@_W@std@@@std@@@2@XZ 10102280 f i main.obj
 0001:00101360       ?begin@?$basic_string@_WU?$char_traits@_W@std@@V?$allocator@_W@2@@std@@QAE?AV?$_String_iterator@V?$_String_val@U?$_Simple_types@_W@std@@@std@@@2@XZ 10102360 f i main.obj
 0001:00101430       ??1?$basic_string@_WU?$char_traits@_W@std@@V?$allocator@_W@2@@std@@QAE@XZ 10102430 f i main.obj
 0001:001014b0       ?rfind@?$basic_string@DU?$char_traits@D@std@@V?$allocator@D@2@@std@@QBEIQBDI@Z 101024b0 f i main.obj
 0001:001015a0       ?find@?$basic_string@DU?$char_traits@D@std@@V?$allocator@D@2@@std@@QBEIABV12@I@Z 101025a0 f i main.obj
 0001:001016b0       ?back@?$basic_string@DU?$char_traits@D@std@@V?$allocator@D@2@@std@@QAEAADXZ 101026b0 f i main.obj
 0001:001017b0       ?substr@?$basic_string_view@DU?$char_traits@D@std@@@std@@QBE?AV12@II@Z 101027b0 f i main.obj
 0001:00101830       ??0?$basic_string_view@DU?$char_traits@D@std@@@std@@QAE@QBDI@Z 10102830 f i main.obj
 0001:001018e0       ??E?$istreambuf_iterator@DU?$char_traits@D@std@@@std@@QAEAAV01@XZ 101028e0 f i main.obj
 0001:00101960       ??D?$istreambuf_iterator@DU?$char_traits@D@std@@@std@@QBEDXZ 10102960 f i main.obj
 0001:001019f0       ?_Tidy@?$_Hash_vec@V?$allocator@V?$_List_unchecked_iterator@V?$_List_val@U?$_List_simple_types@U?$pair@$$CBIG@std@@@std@@@std@@@std@@@std@@@std@@QAEXXZ 101029f0 f i main.obj
 0001:00101aa0       ?_Tidy@?$list@U?$pair@$$CBIG@std@@V?$allocator@U?$pair@$$CBIG@std@@@2@@std@@AAEXXZ 10102aa0 f i main.obj
 0001:00101b50       ?_Unchecked_erase@?$_Hash@V?$_Umap_traits@V?$basic_string@DU?$char_traits@D@std@@V?$allocator@D@2@@std@@PAURecvTable@@V?$_Uhash_compare@V?$basic_string@DU?$char_traits@D@std@@V?$allocator@D@2@@std@@U?$hash@V?$basic_string@DU?$char_traits@D@std@@V?$allocator@D@2@@std@@@2@U?$equal_to@V?$basic_string@DU?$char_traits@D@std@@V?$allocator@D@2@@std@@@2@@2@V?$allocator@U?$pair@$$CBV?$basic_string@DU?$char_traits@D@std@@V?$allocator@D@2@@std@@PAURecvTable@@@std@@@2@$0A@@std@@@std@@AAEPAU?$_List_node@U?$pair@$$CBV?$basic_string@DU?$char_traits@D@std@@V?$allocator@D@2@@std@@PAURecvTable@@@std@@PAX@2@PAU32@QAU32@@Z 10102b50 f i main.obj
 0001:00101e00       ?clear@?$list@U?$pair@$$CBV?$basic_string@DU?$char_traits@D@std@@V?$allocator@D@2@@std@@PAURecvTable@@@std@@V?$allocator@U?$pair@$$CBV?$basic_string@DU?$char_traits@D@std@@V?$allocator@D@2@@std@@PAURecvTable@@@std@@@2@@std@@QAEXXZ 10102e00 f i main.obj
 0001:00101ed0       ?_Tidy_deallocate@?$basic_string@_WU?$char_traits@_W@std@@V?$allocator@_W@2@@std@@AAEXXZ 10102ed0 f i main.obj
 0001:00101fb0       ?assign@?$basic_string@_WU?$char_traits@_W@std@@V?$allocator@_W@2@@std@@QAEAAV12@QB_WI@Z 10102fb0 f i main.obj
 0001:00102030       ??0?$basic_string@_WU?$char_traits@_W@std@@V?$allocator@_W@2@@std@@QAE@QB_W@Z 10103030 f i main.obj
 0001:00102170       ?_Myptr@?$_String_val@U?$_Simple_types@_W@std@@@std@@QAEPA_WXZ 10103170 f i main.obj
 0001:001021f0       ??0?$basic_string@DU?$char_traits@D@std@@V?$allocator@D@2@@std@@QAE@ABV01@IIABV?$allocator@D@1@@Z 101031f0 f i main.obj
 0001:001022f0       ?_Peek@?$istreambuf_iterator@DU?$char_traits@D@std@@@std@@ABEDXZ 101032f0 f i main.obj
 0001:00102380       ?_Inc@?$istreambuf_iterator@DU?$char_traits@D@std@@@std@@AAEXXZ 10103380 f i main.obj
 0001:00102400       ?_Verify_offset@?$_String_const_iterator@V?$_String_val@U?$_Simple_types@_W@std@@@std@@@std@@QBEXH@Z 10103400 f i main.obj
 0001:00102640       ?_Orphan_non_end@?$_List_val@U?$_List_simple_types@U?$pair@$$CBV?$basic_string@DU?$char_traits@D@std@@V?$allocator@D@2@@std@@PAURecvTable@@@std@@@std@@@std@@QAEXXZ 10103640 f i main.obj
 0001:001026f0       ?_Xran@?$_String_val@U?$_Simple_types@_W@std@@@std@@SAXXZ 101036f0 f i main.obj
 0001:00102710       ?insert@?$basic_string@DU?$char_traits@D@std@@V?$allocator@D@2@@std@@QAEAAV12@IID@Z 10103710 f i main.obj
 0001:001027d0       ?assign@?$basic_string@DU?$char_traits@D@std@@V?$allocator@D@2@@std@@QAEAAV12@ABV12@II@Z 101037d0 f i main.obj
 0001:001028a0       ?_Xran@?$basic_string_view@DU?$char_traits@D@std@@@std@@CAXXZ 101038a0 f i main.obj
 0001:001028c0       ?_Unchecked_erase@?$list@U?$pair@$$CBV?$basic_string@DU?$char_traits@D@std@@V?$allocator@D@2@@std@@PAURecvTable@@@std@@V?$allocator@U?$pair@$$CBV?$basic_string@DU?$char_traits@D@std@@V?$allocator@D@2@@std@@PAURecvTable@@@std@@@2@@std@@AAEPAU?$_List_node@U?$pair@$$CBV?$basic_string@DU?$char_traits@D@std@@V?$allocator@D@2@@std@@PAURecvTable@@@std@@PAX@2@PAU32@QAU32@@Z 101038c0 f i main.obj
 0001:00102a30       ??$_Get_unwrapped_n@AAV?$_String_iterator@V?$_String_val@U?$_Simple_types@_W@std@@@std@@@std@@H@std@@YAPA_WAAV?$_String_iterator@V?$_String_val@U?$_Simple_types@_W@std@@@std@@@0@H@Z 10103a30 f i main.obj
 0001:00102ad0       ??$GetProcAddr@P6GPAUHINSTANCE__@@PBD@Z$0A@$0OEGDNKDM@$0BA@@IFH@@YAP6GPAUHINSTANCE__@@PBD@ZXZ 10103ad0 f i main.obj
 0001:00102d30       ??$sleep_for@_JU?$ratio@$00$0DOI@@std@@@this_thread@std@@YAXABV?$duration@_JU?$ratio@$00$0DOI@@std@@@chrono@1@@Z 10103d30 f i main.obj
 0001:00102d70       ??$GetProcAddr@P6GHPAUHINSTANCE__@@@Z$0A@$0BMFJMID@$0BJ@@IFH@@YAP6GHPAUHINSTANCE__@@@ZXZ 10103d70 f i main.obj
 0001:00102fd0       ??$emplace@V?$basic_string@DU?$char_traits@D@std@@V?$allocator@D@2@@std@@AAPAURecvTable@@@?$_Hash@V?$_Umap_traits@V?$basic_string@DU?$char_traits@D@std@@V?$allocator@D@2@@std@@PAURecvTable@@V?$_Uhash_compare@V?$basic_string@DU?$char_traits@D@std@@V?$allocator@D@2@@std@@U?$hash@V?$basic_string@DU?$char_traits@D@std@@V?$allocator@D@2@@std@@@2@U?$equal_to@V?$basic_string@DU?$char_traits@D@std@@V?$allocator@D@2@@std@@@2@@2@V?$allocator@U?$pair@$$CBV?$basic_string@DU?$char_traits@D@std@@V?$allocator@D@2@@std@@PAURecvTable@@@std@@@2@$0A@@std@@@std@@QAE?AU?$pair@V?$_List_iterator@V?$_List_val@U?$_List_simple_types@U?$pair@$$CBV?$basic_string@DU?$char_traits@D@std@@V?$allocator@D@2@@std@@PAURecvTable@@@std@@@std@@@std@@@std@@_N@1@$$QAV?$basic_string@DU?$char_traits@D@std@@V?$allocator@D@2@@1@AAPAURecvTable@@@Z 10103fd0 f i main.obj
 0001:001032d0       ??$?0V?$istreambuf_iterator@DU?$char_traits@D@std@@@std@@$0A@@?$basic_string@DU?$char_traits@D@std@@V?$allocator@D@2@@std@@QAE@V?$istreambuf_iterator@DU?$char_traits@D@std@@@1@0ABV?$allocator@D@1@@Z 101042d0 f i main.obj
 0001:00103430       ??$?HDU?$char_traits@D@std@@V?$allocator@D@1@@std@@YA?AV?$basic_string@DU?$char_traits@D@std@@V?$allocator@D@2@@0@D$$QAV10@@Z 10104430 f i main.obj
 0001:00103480       ??$?HDU?$char_traits@D@std@@V?$allocator@D@1@@std@@YA?AV?$basic_string@DU?$char_traits@D@std@@V?$allocator@D@2@@0@$$QAV10@D@Z 10104480 f i main.obj
 0001:001034d0       ??$construct@UPaintKit@SkinChanger@@AAHV?$basic_string@DU?$char_traits@D@std@@V?$allocator@D@2@@std@@AAPAD@?$_Default_allocator_traits@V?$allocator@UPaintKit@SkinChanger@@@std@@@std@@SAXAAV?$allocator@UPaintKit@SkinChanger@@@1@QAUPaintKit@SkinChanger@@AAH$$QAV?$basic_string@DU?$char_traits@D@std@@V?$allocator@D@2@@1@AAPAD@Z 101044d0 f i main.obj
 0001:00103590       ??$_Emplace_reallocate@AAHV?$basic_string@DU?$char_traits@D@std@@V?$allocator@D@2@@std@@AAPAD@?$vector@UPaintKit@SkinChanger@@V?$allocator@UPaintKit@SkinChanger@@@std@@@std@@QAEPAUPaintKit@SkinChanger@@QAU23@AAH$$QAV?$basic_string@DU?$char_traits@D@std@@V?$allocator@D@2@@1@AAPAD@Z 10104590 f i main.obj
 0001:00103900       ??$?0V?$basic_string_view@DU?$char_traits@D@std@@@std@@$0A@@?$basic_string@DU?$char_traits@D@std@@V?$allocator@D@2@@std@@QAE@ABV?$basic_string_view@DU?$char_traits@D@std@@@1@ABV?$allocator@D@1@@Z 10104900 f i main.obj
 0001:00103a20       ??$sort@V?$_Vector_iterator@V?$_Vector_val@U?$_Simple_types@UPaintKit@SkinChanger@@@std@@@std@@@std@@@std@@YAXV?$_Vector_iterator@V?$_Vector_val@U?$_Simple_types@UPaintKit@SkinChanger@@@std@@@std@@@0@0@Z 10104a20 f i main.obj
 0001:00103b20       ??$GetProcAddr@P6GPAUHWND__@@PBD0@Z$0A@$0PGFCLMJF@$0L@@IFH@@YAP6GPAUHWND__@@PBD0@ZXZ 10104b20 f i main.obj
 0001:00103d80       ??$GetProcAddr@P6GJPAUHWND__@@HJ@Z$0A@$0HGJJBLMM@$0O@@IFH@@YAP6GJPAUHWND__@@HJ@ZXZ 10104d80 f i main.obj
 0001:00103fe0       ??$?8DU?$char_traits@D@std@@@std@@YA_NABV?$istreambuf_iterator@DU?$char_traits@D@std@@@0@0@Z 10104fe0 f i main.obj
 0001:00104000       ??$?9DU?$char_traits@D@std@@@std@@YA_NABV?$istreambuf_iterator@DU?$char_traits@D@std@@@0@0@Z 10105000 f i main.obj
 0001:00104040       ??$_Assign_range@PBV?$basic_string@DU?$char_traits@D@std@@V?$allocator@D@2@@std@@@?$vector@V?$basic_string@DU?$char_traits@D@std@@V?$allocator@D@2@@std@@V?$allocator@V?$basic_string@DU?$char_traits@D@std@@V?$allocator@D@2@@std@@@2@@std@@AAEXPBV?$basic_string@DU?$char_traits@D@std@@V?$allocator@D@2@@1@0Uforward_iterator_tag@1@@Z 10105040 f i main.obj
 0001:00104210       ??$_Assign_range@PBH@?$vector@HV?$allocator@H@std@@@std@@AAEXPBH0Uforward_iterator_tag@1@@Z 10105210 f i main.obj
 0001:001042c0       ??$_Refancy@PAH$0A@@std@@YAPAHPAH@Z 101052c0 f i main.obj
 0001:001042c0       ??$_Refancy@PB_W$0A@@std@@YAPB_WPB_W@Z 101052c0 f i main.obj
 0001:001042c0       ??$_Refancy@PA_W$0A@@std@@YAPA_WPA_W@Z 101052c0 f i main.obj
 0001:00104300       ??$_Traits_rfind@U?$char_traits@D@std@@@std@@YAIQBDII0I@Z 10105300 f i main.obj
 0001:00104420       ??$_Traits_find_ch@U?$char_traits@D@std@@@std@@YAIQBDIID@Z 10105420 f i main.obj
 0001:001044a0       ??$_Destroy_in_place@PAU?$_List_node@U?$pair@$$CBIG@std@@PAX@std@@@std@@YAXAAPAU?$_List_node@U?$pair@$$CBIG@std@@PAX@0@@Z 101054a0 f i main.obj
 0001:001044a0       ??$_Destroy_range@PAV?$_List_unchecked_iterator@V?$_List_val@U?$_List_simple_types@U?$pair@$$CBIG@std@@@std@@@std@@@std@@@std@@YAXPAV?$_List_unchecked_iterator@V?$_List_val@U?$_List_simple_types@U?$pair@$$CBIG@std@@@std@@@std@@@0@QAV10@@Z 101054a0 f i main.obj
 0001:001044a0       ??$_Destroy_in_place@PA_W@std@@YAXAAPA_W@Z 101054a0 f i main.obj
 0001:001044e0       ??$_Free_non_head@V?$allocator@U?$_List_node@U?$pair@$$CBIG@std@@PAX@std@@@std@@@?$_List_node@U?$pair@$$CBIG@std@@PAX@std@@SAXAAV?$allocator@U?$_List_node@U?$pair@$$CBIG@std@@PAX@std@@@1@PAU01@@Z 101054e0 f i main.obj
 0001:00104580       ??$_Reallocate_for@V<lambda_1>@?1??assign@?$basic_string@_WU?$char_traits@_W@std@@V?$allocator@_W@2@@std@@QAEAAV34@QB_WI@Z@PB_W@?$basic_string@_WU?$char_traits@_W@std@@V?$allocator@_W@2@@std@@AAEAAV01@IV<lambda_1>@?1??assign@01@QAEAAV01@QB_WI@Z@PB_W@Z 10105580 f i main.obj
 0001:001046b0       ??$_Construct_in_place@PA_WABQA_W@std@@YAXAAPA_WABQA_W@Z 101056b0 f i main.obj
 0001:001046b0       ??$_Construct_in_place@PAU?$_List_node@U?$pair@$$CBV?$basic_string@DU?$char_traits@D@std@@V?$allocator@D@2@@std@@PAURecvTable@@@std@@PAX@std@@ABQAU12@@std@@YAXAAPAU?$_List_node@U?$pair@$$CBV?$basic_string@DU?$char_traits@D@std@@V?$allocator@D@2@@std@@PAURecvTable@@@std@@PAX@0@ABQAU10@@Z 101056b0 f i main.obj
 0001:00104710       ??$_Reallocate_grow_by@V<lambda_1>@?1??insert@?$basic_string@DU?$char_traits@D@std@@V?$allocator@D@2@@std@@QAEAAV34@IID@Z@IID@?$basic_string@DU?$char_traits@D@std@@V?$allocator@D@2@@std@@AAEAAV01@IV<lambda_1>@?1??insert@01@QAEAAV01@IID@Z@IID@Z 10105710 f i main.obj
 0001:001048d0       ??1?$_List_node_emplace_op2@V?$allocator@U?$_List_node@U?$pair@$$CBV?$basic_string@DU?$char_traits@D@std@@V?$allocator@D@2@@std@@PAURecvTable@@@std@@PAX@std@@@std@@@std@@QAE@XZ 101058d0 f i main.obj
 0001:00104980       ?equal@?$istreambuf_iterator@DU?$char_traits@D@std@@@std@@QBE_NABV12@@Z 10105980 f i main.obj
 0001:00104a00       ?_Change_array@?$vector@UPaintKit@SkinChanger@@V?$allocator@UPaintKit@SkinChanger@@@std@@@std@@AAEXQAUPaintKit@SkinChanger@@II@Z 10105a00 f i main.obj
 0001:00104ae0       ?_Verify_range@std@@YAXABV?$_String_const_iterator@V?$_String_val@U?$_Simple_types@_W@std@@@std@@@1@0@Z 10105ae0 f i main.obj
 0001:00104bf0       ?_Clear_and_reserve_geometric@?$vector@HV?$allocator@H@std@@@std@@AAEXI@Z 10105bf0 f i main.obj
 0001:00104d30       ?_Rehash_for_1@?$_Hash@V?$_Umap_traits@V?$basic_string@DU?$char_traits@D@std@@V?$allocator@D@2@@std@@PAURecvTable@@V?$_Uhash_compare@V?$basic_string@DU?$char_traits@D@std@@V?$allocator@D@2@@std@@U?$hash@V?$basic_string@DU?$char_traits@D@std@@V?$allocator@D@2@@std@@@2@U?$equal_to@V?$basic_string@DU?$char_traits@D@std@@V?$allocator@D@2@@std@@@2@@2@V?$allocator@U?$pair@$$CBV?$basic_string@DU?$char_traits@D@std@@V?$allocator@D@2@@std@@PAURecvTable@@@std@@@2@$0A@@std@@@std@@IAEXXZ 10105d30 f i main.obj
 0001:00104d70       ?_Check_rehash_required_1@?$_Hash@V?$_Umap_traits@V?$basic_string@DU?$char_traits@D@std@@V?$allocator@D@2@@std@@PAURecvTable@@V?$_Uhash_compare@V?$basic_string@DU?$char_traits@D@std@@V?$allocator@D@2@@std@@U?$hash@V?$basic_string@DU?$char_traits@D@std@@V?$allocator@D@2@@std@@@2@U?$equal_to@V?$basic_string@DU?$char_traits@D@std@@V?$allocator@D@2@@std@@@2@@2@V?$allocator@U?$pair@$$CBV?$basic_string@DU?$char_traits@D@std@@V?$allocator@D@2@@std@@PAURecvTable@@@std@@@2@$0A@@std@@@std@@IBE_NXZ 10105d70 f i main.obj
 0001:00104e50       ?_Check_max_size@?$_Hash@V?$_Umap_traits@V?$basic_string@DU?$char_traits@D@std@@V?$allocator@D@2@@std@@PAURecvTable@@V?$_Uhash_compare@V?$basic_string@DU?$char_traits@D@std@@V?$allocator@D@2@@std@@U?$hash@V?$basic_string@DU?$char_traits@D@std@@V?$allocator@D@2@@std@@@2@U?$equal_to@V?$basic_string@DU?$char_traits@D@std@@V?$allocator@D@2@@std@@@2@@2@V?$allocator@U?$pair@$$CBV?$basic_string@DU?$char_traits@D@std@@V?$allocator@D@2@@std@@PAURecvTable@@@std@@@2@$0A@@std@@@std@@IBEXXZ 10105e50 f i main.obj
 0001:00104ed0       ?_Insert_new_node_before@?$_Hash@V?$_Umap_traits@V?$basic_string@DU?$char_traits@D@std@@V?$allocator@D@2@@std@@PAURecvTable@@V?$_Uhash_compare@V?$basic_string@DU?$char_traits@D@std@@V?$allocator@D@2@@std@@U?$hash@V?$basic_string@DU?$char_traits@D@std@@V?$allocator@D@2@@std@@@2@U?$equal_to@V?$basic_string@DU?$char_traits@D@std@@V?$allocator@D@2@@std@@@2@@2@V?$allocator@U?$pair@$$CBV?$basic_string@DU?$char_traits@D@std@@V?$allocator@D@2@@std@@PAURecvTable@@@std@@@2@$0A@@std@@@std@@IAEPAU?$_List_node@U?$pair@$$CBV?$basic_string@DU?$char_traits@D@std@@V?$allocator@D@2@@std@@PAURecvTable@@@std@@PAX@2@IQAU32@0@Z 10105ed0 f i main.obj
 0001:00104ff0       ?_Calculate_growth@?$basic_string@_WU?$char_traits@_W@std@@V?$allocator@_W@2@@std@@ABEII@Z 10105ff0 f i main.obj
 0001:001050b0       ??1?$_Alloc_construct_ptr@V?$allocator@U?$_List_node@U?$pair@$$CBV?$basic_string@DU?$char_traits@D@std@@V?$allocator@D@2@@std@@PAURecvTable@@@std@@PAX@std@@@std@@@std@@QAE@XZ 101060b0 f i main.obj
 0001:00105120       ?_Forced_rehash@?$_Hash@V?$_Umap_traits@V?$basic_string@DU?$char_traits@D@std@@V?$allocator@D@2@@std@@PAURecvTable@@V?$_Uhash_compare@V?$basic_string@DU?$char_traits@D@std@@V?$allocator@D@2@@std@@U?$hash@V?$basic_string@DU?$char_traits@D@std@@V?$allocator@D@2@@std@@@2@U?$equal_to@V?$basic_string@DU?$char_traits@D@std@@V?$allocator@D@2@@std@@@2@@2@V?$allocator@U?$pair@$$CBV?$basic_string@DU?$char_traits@D@std@@V?$allocator@D@2@@std@@PAURecvTable@@@std@@@2@$0A@@std@@@std@@IAEXI@Z 10106120 f i main.obj
 0001:001056e0       ?_Desired_grow_bucket_count@?$_Hash@V?$_Umap_traits@V?$basic_string@DU?$char_traits@D@std@@V?$allocator@D@2@@std@@PAURecvTable@@V?$_Uhash_compare@V?$basic_string@DU?$char_traits@D@std@@V?$allocator@D@2@@std@@U?$hash@V?$basic_string@DU?$char_traits@D@std@@V?$allocator@D@2@@std@@@2@U?$equal_to@V?$basic_string@DU?$char_traits@D@std@@V?$allocator@D@2@@std@@@2@@2@V?$allocator@U?$pair@$$CBV?$basic_string@DU?$char_traits@D@std@@V?$allocator@D@2@@std@@PAURecvTable@@@std@@@2@$0A@@std@@@std@@IBEII@Z 101066e0 f i main.obj
 0001:00105800       ??0?$basic_string@_WU?$char_traits@_W@std@@V?$allocator@_W@2@@std@@QAE@ABV01@IIABV?$allocator@_W@1@@Z 10106800 f i main.obj
 0001:00105900       ?assign@?$basic_string@_WU?$char_traits@_W@std@@V?$allocator@_W@2@@std@@QAEAAV12@ABV12@II@Z 10106900 f i main.obj
 0001:001059e0       ??$transform@V?$_String_iterator@V?$_String_val@U?$_Simple_types@_W@std@@@std@@@std@@V12@P6AHH@Z@std@@YA?AV?$_String_iterator@V?$_String_val@U?$_Simple_types@_W@std@@@std@@@0@V10@0V10@P6AHH@Z@Z 101069e0 f i main.obj
 0001:00105b60       ??$?9_WU?$char_traits@_W@std@@V?$allocator@_W@1@@std@@YA_NABV?$basic_string@_WU?$char_traits@_W@std@@V?$allocator@_W@2@@0@QB_W@Z 10106b60 f i main.obj
 0001:00105ba0       ??$GetFn@$0OEGDNKDM@@IFH@@YAPAX_K@Z 10106ba0 f i main.obj
 0001:00105c90       ??$?HUsteady_clock@chrono@std@@V?$duration@_JU?$ratio@$00$0DLJKMKAA@@std@@@12@_JU?$ratio@$00$0DOI@@2@@chrono@std@@YA?AV?$time_point@Usteady_clock@chrono@std@@V?$duration@_JU?$ratio@$00$0DLJKMKAA@@std@@@23@@01@ABV201@ABV?$duration@_JU?$ratio@$00$0DOI@@std@@@01@@Z 10106c90 f i main.obj
 0001:00105d70       ??$sleep_until@Usteady_clock@chrono@std@@V?$duration@_JU?$ratio@$00$0DLJKMKAA@@std@@@23@@this_thread@std@@YAXABV?$time_point@Usteady_clock@chrono@std@@V?$duration@_JU?$ratio@$00$0DLJKMKAA@@std@@@23@@chrono@1@@Z 10106d70 f i main.obj
 0001:00105e60       ??$GetFn@$0BMFJMID@@IFH@@YAPAX_K@Z 10106e60 f i main.obj
 0001:00105f50       ??$_Find_last@V?$basic_string@DU?$char_traits@D@std@@V?$allocator@D@2@@std@@@?$_Hash@V?$_Umap_traits@V?$basic_string@DU?$char_traits@D@std@@V?$allocator@D@2@@std@@PAURecvTable@@V?$_Uhash_compare@V?$basic_string@DU?$char_traits@D@std@@V?$allocator@D@2@@std@@U?$hash@V?$basic_string@DU?$char_traits@D@std@@V?$allocator@D@2@@std@@@2@U?$equal_to@V?$basic_string@DU?$char_traits@D@std@@V?$allocator@D@2@@std@@@2@@2@V?$allocator@U?$pair@$$CBV?$basic_string@DU?$char_traits@D@std@@V?$allocator@D@2@@std@@PAURecvTable@@@std@@@2@$0A@@std@@@std@@IBE?AU?$_Hash_find_last_result@PAU?$_List_node@U?$pair@$$CBV?$basic_string@DU?$char_traits@D@std@@V?$allocator@D@2@@std@@PAURecvTable@@@std@@PAX@std@@@1@ABV?$basic_string@DU?$char_traits@D@std@@V?$allocator@D@2@@1@I@Z 10106f50 f i main.obj
 0001:00106060       ??$?0V?$basic_string@DU?$char_traits@D@std@@V?$allocator@D@2@@std@@AAPAURecvTable@@@?$_List_node_emplace_op2@V?$allocator@U?$_List_node@U?$pair@$$CBV?$basic_string@DU?$char_traits@D@std@@V?$allocator@D@2@@std@@PAURecvTable@@@std@@PAX@std@@@std@@@std@@QAE@AAV?$allocator@U?$_List_node@U?$pair@$$CBV?$basic_string@DU?$char_traits@D@std@@V?$allocator@D@2@@std@@PAURecvTable@@@std@@PAX@std@@@1@$$QAV?$basic_string@DU?$char_traits@D@std@@V?$allocator@D@2@@1@AAPAURecvTable@@@Z 10107060 f i main.obj
 0001:00106150       ??$_Construct@V?$istreambuf_iterator@DU?$char_traits@D@std@@@std@@@?$basic_string@DU?$char_traits@D@std@@V?$allocator@D@2@@std@@QAEXV?$istreambuf_iterator@DU?$char_traits@D@std@@@1@V21@Uinput_iterator_tag@1@@Z 10107150 f i main.obj
 0001:001061f0       ??$sort@V?$_Vector_iterator@V?$_Vector_val@U?$_Simple_types@UPaintKit@SkinChanger@@@std@@@std@@@std@@U?$less@X@2@@std@@YAXV?$_Vector_iterator@V?$_Vector_val@U?$_Simple_types@UPaintKit@SkinChanger@@@std@@@std@@@0@0U?$less@X@0@@Z 101071f0 f i main.obj
 0001:001062d0       ??$GetFn@$0PGFCLMJF@@IFH@@YAPAX_K@Z 101072d0 f i main.obj
 0001:001063c0       ??$GetFn@$0HGJJBLMM@@IFH@@YAPAX_K@Z 101073c0 f i main.obj
 0001:001064b0       ??$_Uninitialized_move@PAUPaintKit@SkinChanger@@V?$allocator@UPaintKit@SkinChanger@@@std@@@std@@YAPAUPaintKit@SkinChanger@@QAU12@0PAU12@AAV?$allocator@UPaintKit@SkinChanger@@@0@@Z 101074b0 f i main.obj
 0001:00106560       ??1?$_Tidy_deallocate_guard@V?$basic_string@DU?$char_traits@D@std@@V?$allocator@D@2@@std@@@std@@QAE@XZ 10107560 f i main.obj
 0001:001065b0       ?_Allocate@?$_Alloc_construct_ptr@V?$allocator@U?$_List_node@U?$pair@$$CBV?$basic_string@DU?$char_traits@D@std@@V?$allocator@D@2@@std@@PAURecvTable@@@std@@PAX@std@@@std@@@std@@QAEXXZ 101075b0 f i main.obj
 0001:00106620       ??$?8_WU?$char_traits@_W@std@@V?$allocator@_W@1@@std@@YA_NABV?$basic_string@_WU?$char_traits@_W@std@@V?$allocator@_W@2@@0@QB_W@Z 10107620 f i main.obj
 0001:00106640       ??$?NUsteady_clock@chrono@std@@V?$duration@_JU?$ratio@$00$0DLJKMKAA@@std@@@12@V312@@chrono@std@@YA_NABV?$time_point@Usteady_clock@chrono@std@@V?$duration@_JU?$ratio@$00$0DLJKMKAA@@std@@@23@@01@0@Z 10107640 f i main.obj
 0001:00106730       ??$_To_xtime_10_day_clamped@_JU?$ratio@$00$0DLJKMKAA@@std@@@std@@YA_NAAUxtime@@ABV?$duration@_JU?$ratio@$00$0DLJKMKAA@@std@@@chrono@0@@Z 10107730 f i main.obj
 0001:001068f0       ??$_Sort_unchecked@PAUPaintKit@SkinChanger@@U?$less@X@std@@@std@@YAXPAUPaintKit@SkinChanger@@0HU?$less@X@0@@Z 101078f0 f i main.obj
 0001:00106a20       ??$_Uninitialized_copy@PBV?$basic_string@DU?$char_traits@D@std@@V?$allocator@D@2@@std@@V?$allocator@V?$basic_string@DU?$char_traits@D@std@@V?$allocator@D@2@@std@@@2@@std@@YAPAV?$basic_string@DU?$char_traits@D@std@@V?$allocator@D@2@@0@QBV10@0PAV10@AAV?$allocator@V?$basic_string@DU?$char_traits@D@std@@V?$allocator@D@2@@std@@@0@@Z 10107a20 f i main.obj
 0001:00106ad0       ??$_Emplace_back@UPaintKit@SkinChanger@@@?$_Uninitialized_backout_al@V?$allocator@UPaintKit@SkinChanger@@@std@@@std@@QAEX$$QAUPaintKit@SkinChanger@@@Z 10107ad0 f i main.obj
 0001:00106b40       ?_Verify_range@std@@YAXABV?$_Vector_const_iterator@V?$_Vector_val@U?$_Simple_types@UPaintKit@SkinChanger@@@std@@@std@@@1@0@Z 10107b40 f i main.obj
 0001:00106c50       ?_Equal@?$basic_string@_WU?$char_traits@_W@std@@V?$allocator@_W@2@@std@@QBE_NQB_W@Z 10107c50 f i main.obj
 0001:00106dc0       ??$?MNU?$ratio@$00$00@std@@_JU?$ratio@$00$0DLJKMKAA@@1@@chrono@std@@YA_NABV?$duration@NU?$ratio@$00$00@std@@@01@ABV?$duration@_JU?$ratio@$00$0DLJKMKAA@@std@@@01@@Z 10107dc0 f i main.obj
 0001:00106e80       ??$duration_cast@V?$duration@_JU?$ratio@$00$0DLJKMKAA@@std@@@chrono@std@@_JU?$ratio@$00$0DLJKMKAA@@3@$0A@@chrono@std@@YA?AV?$duration@_JU?$ratio@$00$0DLJKMKAA@@std@@@01@ABV201@@Z 10107e80 f i main.obj
 0001:00106fa0       ??$duration_cast@V?$duration@_JU?$ratio@$00$00@std@@@chrono@std@@_JU?$ratio@$00$0DLJKMKAA@@3@$0A@@chrono@std@@YA?AV?$duration@_JU?$ratio@$00$00@std@@@01@ABV?$duration@_JU?$ratio@$00$0DLJKMKAA@@std@@@01@@Z 10107fa0 f i main.obj
 0001:001070d0       ??$_Insertion_sort_unchecked@PAUPaintKit@SkinChanger@@U?$less@X@std@@@std@@YAPAUPaintKit@SkinChanger@@PAU12@QAU12@U?$less@X@0@@Z 101080d0 f i main.obj
 0001:00107210       ??$_Make_heap_unchecked@PAUPaintKit@SkinChanger@@U?$less@X@std@@@std@@YAXPAUPaintKit@SkinChanger@@0U?$less@X@0@@Z 10108210 f i main.obj
 0001:001072d0       ??$_Partition_by_median_guess_unchecked@PAUPaintKit@SkinChanger@@U?$less@X@std@@@std@@YA?AU?$pair@PAUPaintKit@SkinChanger@@PAU12@@0@PAUPaintKit@SkinChanger@@0U?$less@X@0@@Z 101082d0 f i main.obj
 0001:00107720       ??$_Emplace_back@ABV?$basic_string@DU?$char_traits@D@std@@V?$allocator@D@2@@std@@@?$_Uninitialized_backout_al@V?$allocator@V?$basic_string@DU?$char_traits@D@std@@V?$allocator@D@2@@std@@@std@@@std@@QAEXABV?$basic_string@DU?$char_traits@D@std@@V?$allocator@D@2@@1@@Z 10108720 f i main.obj
 0001:00107790       ??0PaintKit@SkinChanger@@QAE@$$QAU01@@Z 10108790 f i main.obj
 0001:001077e0       ??$duration_cast@V?$duration@_JU?$ratio@$00$0DLJKMKAA@@std@@@chrono@std@@_JU?$ratio@$00$0DOI@@3@$0A@@chrono@std@@YA?AV?$duration@_JU?$ratio@$00$0DLJKMKAA@@std@@@01@ABV?$duration@_JU?$ratio@$00$0DOI@@std@@@01@@Z 101087e0 f i main.obj
 0001:00107910       ??$duration_cast@V?$duration@_JU?$ratio@$00$0DLJKMKAA@@std@@@chrono@std@@_JU?$ratio@$00$0JIJGIA@@3@$0A@@chrono@std@@YA?AV?$duration@_JU?$ratio@$00$0DLJKMKAA@@std@@@01@ABV?$duration@_JU?$ratio@$00$0JIJGIA@@std@@@01@@Z 10108910 f i main.obj
 0001:00107a40       ??$duration_cast@V?$duration@_JU?$ratio@$00$0DLJKMKAA@@std@@@chrono@std@@_JU?$ratio@$00$00@3@$0A@@chrono@std@@YA?AV?$duration@_JU?$ratio@$00$0DLJKMKAA@@std@@@01@ABV?$duration@_JU?$ratio@$00$00@std@@@01@@Z 10108a40 f i main.obj
 0001:00107b70       ??$_Debug_lt_pred@AAU?$less@X@std@@AAUPaintKit@SkinChanger@@AAU34@$0A@@std@@YA_NAAU?$less@X@0@AAUPaintKit@SkinChanger@@1@Z 10108b70 f i main.obj
 0001:00107c50       ??$_Pop_heap_hole_by_index@PAUPaintKit@SkinChanger@@U12@U?$less@X@std@@@std@@YAXPAUPaintKit@SkinChanger@@HH$$QAU12@U?$less@X@0@@Z 10108c50 f i main.obj
 0001:00107d60       ??$_Pop_heap_unchecked@PAUPaintKit@SkinChanger@@U?$less@X@std@@@std@@YAXPAUPaintKit@SkinChanger@@0U?$less@X@0@@Z 10108d60 f i main.obj
 0001:00107e30       ??$_Guess_median_unchecked@PAUPaintKit@SkinChanger@@U?$less@X@std@@@std@@YAXPAUPaintKit@SkinChanger@@00U?$less@X@0@@Z 10108e30 f i main.obj
 0001:00107f20       ??$duration_cast@V?$duration@NU?$ratio@$00$0DLJKMKAA@@std@@@chrono@std@@NU?$ratio@$00$00@3@$0A@@chrono@std@@YA?AV?$duration@NU?$ratio@$00$0DLJKMKAA@@std@@@01@ABV?$duration@NU?$ratio@$00$00@std@@@01@@Z 10108f20 f i main.obj
 0001:00108040       ??$duration_cast@V?$duration@NU?$ratio@$00$0DLJKMKAA@@std@@@chrono@std@@_JU?$ratio@$00$0DLJKMKAA@@3@$0A@@chrono@std@@YA?AV?$duration@NU?$ratio@$00$0DLJKMKAA@@std@@@01@ABV?$duration@_JU?$ratio@$00$0DLJKMKAA@@std@@@01@@Z 10109040 f i main.obj
 0001:00108190       ??$_Push_heap_by_index@PAUPaintKit@SkinChanger@@U12@U?$less@X@std@@@std@@YAXPAUPaintKit@SkinChanger@@HH$$QAU12@U?$less@X@0@@Z 10109190 f i main.obj
 0001:00108220       ??$_Med3_unchecked@PAUPaintKit@SkinChanger@@U?$less@X@std@@@std@@YAXPAUPaintKit@SkinChanger@@00U?$less@X@0@@Z 10109220 f i main.obj
 0001:001082b0       ??$swap@UPaintKit@SkinChanger@@$0A@@std@@YAXAAUPaintKit@SkinChanger@@0@Z 101092b0 f i main.obj
 0001:00108330       ?get_weapon_info@game_data@@YAPBUweapon_info@1@H@Z 10109330 f   item_definitions.obj
 0001:00108c90       ??8?$_Tree_const_iterator@V?$_Tree_val@U?$_Tree_simple_types@U?$pair@$$CBHUweapon_info@game_data@@@std@@@std@@@std@@@std@@QBE_NABV01@@Z 10109c90 f i item_definitions.obj
 0001:00108d70       ?find@?$_Tree@V?$_Tmap_traits@HUweapon_info@game_data@@U?$less@H@std@@V?$allocator@U?$pair@$$CBHUweapon_info@game_data@@@std@@@4@$0A@@std@@@std@@QBE?AV?$_Tree_const_iterator@V?$_Tree_val@U?$_Tree_simple_types@U?$pair@$$CBHUweapon_info@game_data@@@std@@@std@@@std@@@2@ABH@Z 10109d70 f i item_definitions.obj
 0001:00108df0       ??1?$_Tree@V?$_Tmap_traits@HUweapon_info@game_data@@U?$less@H@std@@V?$allocator@U?$pair@$$CBHUweapon_info@game_data@@@std@@@4@$0A@@std@@@std@@QAE@XZ 10109df0 f i item_definitions.obj
 0001:00108ea0       ??D?$_Tree_const_iterator@V?$_Tree_val@U?$_Tree_simple_types@U?$pair@$$CBHUweapon_info@game_data@@@std@@@std@@@std@@@std@@QBEABU?$pair@$$CBHUweapon_info@game_data@@@1@XZ 10109ea0 f i item_definitions.obj
 0001:00108fa0       ??0?$_Tree@V?$_Tmap_traits@HUweapon_info@game_data@@U?$less@H@std@@V?$allocator@U?$pair@$$CBHUweapon_info@game_data@@@std@@@4@$0A@@std@@@std@@QAE@ABU?$less@H@1@@Z 10109fa0 f i item_definitions.obj
 0001:00109010       ?_Alloc_sentinel_and_proxy@?$_Tree@V?$_Tmap_traits@HUweapon_info@game_data@@U?$less@H@std@@V?$allocator@U?$pair@$$CBHUweapon_info@game_data@@@std@@@4@$0A@@std@@@std@@IAEXXZ 1010a010 f i item_definitions.obj
 0001:001090c0       ??$_Find@H@?$_Tree@V?$_Tmap_traits@HUweapon_info@game_data@@U?$less@H@std@@V?$allocator@U?$pair@$$CBHUweapon_info@game_data@@@std@@@4@$0A@@std@@@std@@ABEPAU?$_Tree_node@U?$pair@$$CBHUweapon_info@game_data@@@std@@PAX@1@ABH@Z 1010a0c0 f i item_definitions.obj
 0001:00109120       ??$insert@PBU?$pair@$$CBHUweapon_info@game_data@@@std@@@?$_Tree@V?$_Tmap_traits@HUweapon_info@game_data@@U?$less@H@std@@V?$allocator@U?$pair@$$CBHUweapon_info@game_data@@@std@@@4@$0A@@std@@@std@@QAEXPBU?$pair@$$CBHUweapon_info@game_data@@@1@0@Z 1010a120 f i item_definitions.obj
 0001:00109190       ??$_Buyheadnode@V?$allocator@U?$_Tree_node@U?$pair@$$CBHUweapon_info@game_data@@@std@@PAX@std@@@std@@@?$_Tree_node@U?$pair@$$CBHUweapon_info@game_data@@@std@@PAX@std@@SAPAU01@AAV?$allocator@U?$_Tree_node@U?$pair@$$CBHUweapon_info@game_data@@@std@@PAX@std@@@1@@Z 1010a190 f i item_definitions.obj
 0001:00109230       ?end@?$_Tree@V?$_Tmap_traits@HUweapon_info@game_data@@U?$less@H@std@@V?$allocator@U?$pair@$$CBHUweapon_info@game_data@@@std@@@4@$0A@@std@@@std@@QBE?AV?$_Tree_const_iterator@V?$_Tree_val@U?$_Tree_simple_types@U?$pair@$$CBHUweapon_info@game_data@@@std@@@std@@@std@@@2@XZ 1010a230 f i item_definitions.obj
 0001:001092b0       ??$_Find_lower_bound@H@?$_Tree@V?$_Tmap_traits@HUweapon_info@game_data@@U?$less@H@std@@V?$allocator@U?$pair@$$CBHUweapon_info@game_data@@@std@@@4@$0A@@std@@@std@@IBE?AU?$_Tree_find_result@PAU?$_Tree_node@U?$pair@$$CBHUweapon_info@game_data@@@std@@PAX@std@@@1@ABH@Z 1010a2b0 f i item_definitions.obj
 0001:00109380       ??$_Lower_bound_duplicate@H@?$_Tree@V?$_Tmap_traits@HUweapon_info@game_data@@U?$less@H@std@@V?$allocator@U?$pair@$$CBHUweapon_info@game_data@@@std@@@4@$0A@@std@@@std@@IBE_NQAU?$_Tree_node@U?$pair@$$CBHUweapon_info@game_data@@@std@@PAX@1@ABH@Z 1010a380 f i item_definitions.obj
 0001:001093f0       ??$_Erase_tree@V?$allocator@U?$_Tree_node@U?$pair@$$CBHUweapon_info@game_data@@@std@@PAX@std@@@std@@@?$_Tree_val@U?$_Tree_simple_types@U?$pair@$$CBHUweapon_info@game_data@@@std@@@std@@@std@@QAEXAAV?$allocator@U?$_Tree_node@U?$pair@$$CBHUweapon_info@game_data@@@std@@PAX@std@@@1@PAU?$_Tree_node@U?$pair@$$CBHUweapon_info@game_data@@@std@@PAX@1@@Z 1010a3f0 f i item_definitions.obj
 0001:00109480       ??$_Freenode0@V?$allocator@U?$_Tree_node@U?$pair@$$CBHUweapon_info@game_data@@@std@@PAX@std@@@std@@@?$_Tree_node@U?$pair@$$CBHUweapon_info@game_data@@@std@@PAX@std@@SAXAAV?$allocator@U?$_Tree_node@U?$pair@$$CBHUweapon_info@game_data@@@std@@PAX@std@@@1@PAU01@@Z 1010a480 f i item_definitions.obj
 0001:00109500       ??$_Emplace_hint@ABU?$pair@$$CBHUweapon_info@game_data@@@std@@@?$_Tree@V?$_Tmap_traits@HUweapon_info@game_data@@U?$less@H@std@@V?$allocator@U?$pair@$$CBHUweapon_info@game_data@@@std@@@4@$0A@@std@@@std@@IAEPAU?$_Tree_node@U?$pair@$$CBHUweapon_info@game_data@@@std@@PAX@1@QAU21@ABU?$pair@$$CBHUweapon_info@game_data@@@1@@Z 1010a500 f i item_definitions.obj
 0001:001095f0       ??$_Construct_in_place@PAU?$_Tree_node@U?$pair@$$CBHUweapon_info@game_data@@@std@@PAX@std@@AAPAU12@@std@@YAXAAPAU?$_Tree_node@U?$pair@$$CBHUweapon_info@game_data@@@std@@PAX@0@0@Z 1010a5f0 f i item_definitions.obj
 0001:001095f0       ??$_Construct_in_place@PAU?$_Tree_node@U?$pair@$$CBHUweapon_info@game_data@@@std@@PAX@std@@ABQAU12@@std@@YAXAAPAU?$_Tree_node@U?$pair@$$CBHUweapon_info@game_data@@@std@@PAX@0@ABQAU10@@Z 1010a5f0 f i item_definitions.obj
 0001:00109650       ??1?$_Tree_temp_node@V?$allocator@U?$_Tree_node@U?$pair@$$CBHUweapon_info@game_data@@@std@@PAX@std@@@std@@@std@@QAE@XZ 1010a650 f i item_definitions.obj
 0001:00109720       ?_Insert_node@?$_Tree_val@U?$_Tree_simple_types@U?$pair@$$CBHUweapon_info@game_data@@@std@@@std@@@std@@QAEPAU?$_Tree_node@U?$pair@$$CBHUweapon_info@game_data@@@std@@PAX@2@U?$_Tree_id@PAU?$_Tree_node@U?$pair@$$CBHUweapon_info@game_data@@@std@@PAX@std@@@2@QAU32@@Z 1010a720 f i item_definitions.obj
 0001:00109960       ?_Check_grow_by_1@?$_Tree@V?$_Tmap_traits@HUweapon_info@game_data@@U?$less@H@std@@V?$allocator@U?$pair@$$CBHUweapon_info@game_data@@@std@@@4@$0A@@std@@@std@@IAEXXZ 1010a960 f i item_definitions.obj
 0001:001099e0       ??1?$_Alloc_construct_ptr@V?$allocator@U?$_Tree_node@U?$pair@$$CBHUweapon_info@game_data@@@std@@PAX@std@@@std@@@std@@QAE@XZ 1010a9e0 f i item_definitions.obj
 0001:00109a50       ?_Rrotate@?$_Tree_val@U?$_Tree_simple_types@U?$pair@$$CBHUweapon_info@game_data@@@std@@@std@@@std@@QAEXPAU?$_Tree_node@U?$pair@$$CBHUweapon_info@game_data@@@std@@PAX@2@@Z 1010aa50 f i item_definitions.obj
 0001:00109b20       ?_Lrotate@?$_Tree_val@U?$_Tree_simple_types@U?$pair@$$CBHUweapon_info@game_data@@@std@@@std@@@std@@QAEXPAU?$_Tree_node@U?$pair@$$CBHUweapon_info@game_data@@@std@@PAX@2@@Z 1010ab20 f i item_definitions.obj
 0001:00109bf0       ??$_Debug_lt_pred@ABU?$less@H@std@@ABHABH$0A@@std@@YA_NABU?$less@H@0@ABH1@Z 1010abf0 f i item_definitions.obj
 0001:00109cb0       ??$_Destroy_in_place@PAU?$_Tree_node@U?$pair@$$CBHUweapon_info@game_data@@@std@@PAX@std@@@std@@YAXAAPAU?$_Tree_node@U?$pair@$$CBHUweapon_info@game_data@@@std@@PAX@0@@Z 1010acb0 f i item_definitions.obj
 0001:00109cf0       ??$_Verify_range@U?$pair@$$CBHUweapon_info@game_data@@@std@@@std@@YAXQBU?$pair@$$CBHUweapon_info@game_data@@@0@0@Z 1010acf0 f i item_definitions.obj
 0001:00109d80       ??$_Find_hint@H@?$_Tree@V?$_Tmap_traits@HUweapon_info@game_data@@U?$less@H@std@@V?$allocator@U?$pair@$$CBHUweapon_info@game_data@@@std@@@4@$0A@@std@@@std@@IBE?AU?$_Tree_find_hint_result@PAU?$_Tree_node@U?$pair@$$CBHUweapon_info@game_data@@@std@@PAX@std@@@1@QAU?$_Tree_node@U?$pair@$$CBHUweapon_info@game_data@@@std@@PAX@1@ABH@Z 1010ad80 f i item_definitions.obj
 0001:0010a050       ??$?0ABU?$pair@$$CBHUweapon_info@game_data@@@std@@@?$_Tree_temp_node@V?$allocator@U?$_Tree_node@U?$pair@$$CBHUweapon_info@game_data@@@std@@PAX@std@@@std@@@std@@QAE@AAV?$allocator@U?$_Tree_node@U?$pair@$$CBHUweapon_info@game_data@@@std@@PAX@std@@@1@PAU?$_Tree_node@U?$pair@$$CBHUweapon_info@game_data@@@std@@PAX@1@ABU?$pair@$$CBHUweapon_info@game_data@@@1@@Z 1010b050 f i item_definitions.obj
 0001:0010a160       ??F?$_Tree_unchecked_const_iterator@V?$_Tree_val@U?$_Tree_simple_types@U?$pair@$$CBHUweapon_info@game_data@@@std@@@std@@@std@@U_Iterator_base0@2@@std@@QAEAAV01@XZ 1010b160 f i item_definitions.obj
 0001:0010a220       ??E?$_Tree_unchecked_const_iterator@V?$_Tree_val@U?$_Tree_simple_types@U?$pair@$$CBHUweapon_info@game_data@@@std@@@std@@@std@@U_Iterator_base0@2@@std@@QAEAAV01@XZ 1010b220 f i item_definitions.obj
 0001:0010a2c0       ?_Allocate@?$_Alloc_construct_ptr@V?$allocator@U?$_Tree_node@U?$pair@$$CBHUweapon_info@game_data@@@std@@PAX@std@@@std@@@std@@QAEXXZ 1010b2c0 f i item_definitions.obj
 0001:0010a330       ?m_nModelIndex@entity_t@@QBEAAHXZ 1010b330 f i SkinChanger.obj
 0001:0010a3e0       ?m_iItemDefinitionIndex@attributableitem_t@@QBEAAHXZ 1010b3e0 f i SkinChanger.obj
 0001:0010a490       ?m_nFallbackStatTrak@attributableitem_t@@QBEAAHXZ 1010b490 f i SkinChanger.obj
 0001:0010a540       ?m_nFallbackPaintKit@attributableitem_t@@QBEAAHXZ 1010b540 f i SkinChanger.obj
 0001:0010a5f0       ?m_nFallbackSeed@attributableitem_t@@QBEAAHXZ 1010b5f0 f i SkinChanger.obj
 0001:0010a6a0       ?m_flFallbackWear@attributableitem_t@@QBEAAMXZ 1010b6a0 f i SkinChanger.obj
 0001:0010a750       ?m_iAccountID@attributableitem_t@@QBEAAHXZ 1010b750 f i SkinChanger.obj
 0001:0010a800       ?m_iItemIDHigh@attributableitem_t@@QBEAAHXZ 1010b800 f i SkinChanger.obj
 0001:0010a8b0       ?m_szCustomName@attributableitem_t@@QBEPADXZ 1010b8b0 f i SkinChanger.obj
 0001:0010a960       ?m_iEntityQuality@attributableitem_t@@QBEAAHXZ 1010b960 f i SkinChanger.obj
 0001:0010aa10       ?weapon@weapon_t@@QBEAAHXZ 1010ba10 f i SkinChanger.obj
 0001:0010aac0       ?m_hMyWearables@player_t@@QBEPAVCBaseHandle@@XZ 1010bac0 f i SkinChanger.obj
 0001:0010bae0       ?run@SkinChanger@@YAXW4ClientFrameStage_t@@@Z 1010cae0 f   SkinChanger.obj
 0001:0010bfa0       ?scheduleHudUpdate@SkinChanger@@YAXXZ 1010cfa0 f   SkinChanger.obj
 0001:0010c040       ?overrideHudIcon@SkinChanger@@YAXPAVIGameEvent@@@Z 1010d040 f   SkinChanger.obj
 0001:0010c120       ??8?$_List_const_iterator@V?$_List_val@U?$_List_simple_types@U?$pair@$$CBV?$basic_string@DU?$char_traits@D@std@@V?$allocator@D@2@@std@@H@std@@@std@@@std@@@std@@QBE_NABV01@@Z 1010d120 f i SkinChanger.obj
 0001:0010c200       ??0?$unordered_map@V?$basic_string_view@DU?$char_traits@D@std@@@std@@PBDU?$hash@V?$basic_string_view@DU?$char_traits@D@std@@@std@@@2@U?$equal_to@V?$basic_string_view@DU?$char_traits@D@std@@@std@@@2@V?$allocator@U?$pair@$$CBV?$basic_string_view@DU?$char_traits@D@std@@@std@@PBD@std@@@2@@std@@QAE@XZ 1010d200 f i SkinChanger.obj
 0001:0010c280       ??1?$_Hash_vec@V?$allocator@V?$_List_unchecked_iterator@V?$_List_val@U?$_List_simple_types@U?$pair@$$CBV?$basic_string_view@DU?$char_traits@D@std@@@std@@PBD@std@@@std@@@std@@@std@@@std@@@std@@QAE@XZ 1010d280 f i SkinChanger.obj
 0001:0010c280       ??1?$_Hash_vec@V?$allocator@V?$_List_unchecked_iterator@V?$_List_val@U?$_List_simple_types@U?$pair@$$CBV?$basic_string@DU?$char_traits@D@std@@V?$allocator@D@2@@std@@H@std@@@std@@@std@@@std@@@std@@@std@@QAE@XZ 1010d280 f i SkinChanger.obj
 0001:0010c310       ??1?$list@U?$pair@$$CBV?$basic_string_view@DU?$char_traits@D@std@@@std@@PBD@std@@V?$allocator@U?$pair@$$CBV?$basic_string_view@DU?$char_traits@D@std@@@std@@PBD@std@@@2@@std@@QAE@XZ 1010d310 f i SkinChanger.obj
 0001:0010c380       ?at@?$unordered_map@V?$basic_string@DU?$char_traits@D@std@@V?$allocator@D@2@@std@@HU?$hash@V?$basic_string@DU?$char_traits@D@std@@V?$allocator@D@2@@std@@@2@U?$equal_to@V?$basic_string@DU?$char_traits@D@std@@V?$allocator@D@2@@std@@@2@V?$allocator@U?$pair@$$CBV?$basic_string@DU?$char_traits@D@std@@V?$allocator@D@2@@std@@H@std@@@2@@std@@QAEAAHABV?$basic_string@DU?$char_traits@D@std@@V?$allocator@D@2@@2@@Z 1010d380 f i SkinChanger.obj
 0001:0010c3f0       ??0?$unordered_map@V?$basic_string@DU?$char_traits@D@std@@V?$allocator@D@2@@std@@HU?$hash@V?$basic_string@DU?$char_traits@D@std@@V?$allocator@D@2@@std@@@2@U?$equal_to@V?$basic_string@DU?$char_traits@D@std@@V?$allocator@D@2@@std@@@2@V?$allocator@U?$pair@$$CBV?$basic_string@DU?$char_traits@D@std@@V?$allocator@D@2@@std@@H@std@@@2@@std@@QAE@XZ 1010d3f0 f i SkinChanger.obj
 0001:0010c470       ??1?$list@U?$pair@$$CBV?$basic_string@DU?$char_traits@D@std@@V?$allocator@D@2@@std@@H@std@@V?$allocator@U?$pair@$$CBV?$basic_string@DU?$char_traits@D@std@@V?$allocator@D@2@@std@@H@std@@@2@@std@@QAE@XZ 1010d470 f i SkinChanger.obj
 0001:0010c4e0       ??0?$vector@UPaintKit@SkinChanger@@V?$allocator@UPaintKit@SkinChanger@@@std@@@std@@QAE@XZ 1010d4e0 f i SkinChanger.obj
 0001:0010c570       ??B?$basic_string@DU?$char_traits@D@std@@V?$allocator@D@2@@std@@QBE?AV?$basic_string_view@DU?$char_traits@D@std@@@1@XZ 1010d570 f i SkinChanger.obj
 0001:0010c620       ??8?$_List_const_iterator@V?$_List_val@U?$_List_simple_types@U?$pair@$$CBV?$basic_string_view@DU?$char_traits@D@std@@@std@@PBD@std@@@std@@@std@@@std@@QBE_NABV01@@Z 1010d620 f i SkinChanger.obj
 0001:0010c700       ?_Tidy@?$_Hash_vec@V?$allocator@V?$_List_unchecked_iterator@V?$_List_val@U?$_List_simple_types@U?$pair@$$CBV?$basic_string@DU?$char_traits@D@std@@V?$allocator@D@2@@std@@H@std@@@std@@@std@@@std@@@std@@@std@@QAEXXZ 1010d700 f i SkinChanger.obj
 0001:0010c700       ?_Tidy@?$_Hash_vec@V?$allocator@V?$_List_unchecked_iterator@V?$_List_val@U?$_List_simple_types@U?$pair@$$CBV?$basic_string_view@DU?$char_traits@D@std@@@std@@PBD@std@@@std@@@std@@@std@@@std@@@std@@QAEXXZ 1010d700 f i SkinChanger.obj
 0001:0010c7b0       ??0?$_Hash@V?$_Umap_traits@V?$basic_string_view@DU?$char_traits@D@std@@@std@@PBDV?$_Uhash_compare@V?$basic_string_view@DU?$char_traits@D@std@@@std@@U?$hash@V?$basic_string_view@DU?$char_traits@D@std@@@std@@@2@U?$equal_to@V?$basic_string_view@DU?$char_traits@D@std@@@std@@@2@@2@V?$allocator@U?$pair@$$CBV?$basic_string_view@DU?$char_traits@D@std@@@std@@PBD@std@@@2@$0A@@std@@@std@@IAE@ABV?$_Uhash_compare@V?$basic_string_view@DU?$char_traits@D@std@@@std@@U?$hash@V?$basic_string_view@DU?$char_traits@D@std@@@std@@@2@U?$equal_to@V?$basic_string_view@DU?$char_traits@D@std@@@std@@@2@@1@ABV?$allocator@U?$pair@$$CBV?$basic_string_view@DU?$char_traits@D@std@@@std@@PBD@std@@@1@@Z 1010d7b0 f i SkinChanger.obj
 0001:0010c8d0       ?_Tidy@?$list@U?$pair@$$CBV?$basic_string_view@DU?$char_traits@D@std@@@std@@PBD@std@@V?$allocator@U?$pair@$$CBV?$basic_string_view@DU?$char_traits@D@std@@@std@@PBD@std@@@2@@std@@AAEXXZ 1010d8d0 f i SkinChanger.obj
 0001:0010c980       ??0?$_Hash@V?$_Umap_traits@V?$basic_string@DU?$char_traits@D@std@@V?$allocator@D@2@@std@@HV?$_Uhash_compare@V?$basic_string@DU?$char_traits@D@std@@V?$allocator@D@2@@std@@U?$hash@V?$basic_string@DU?$char_traits@D@std@@V?$allocator@D@2@@std@@@2@U?$equal_to@V?$basic_string@DU?$char_traits@D@std@@V?$allocator@D@2@@std@@@2@@2@V?$allocator@U?$pair@$$CBV?$basic_string@DU?$char_traits@D@std@@V?$allocator@D@2@@std@@H@std@@@2@$0A@@std@@@std@@IAE@ABV?$_Uhash_compare@V?$basic_string@DU?$char_traits@D@std@@V?$allocator@D@2@@std@@U?$hash@V?$basic_string@DU?$char_traits@D@std@@V?$allocator@D@2@@std@@@2@U?$equal_to@V?$basic_string@DU?$char_traits@D@std@@V?$allocator@D@2@@std@@@2@@1@ABV?$allocator@U?$pair@$$CBV?$basic_string@DU?$char_traits@D@std@@V?$allocator@D@2@@std@@H@std@@@1@@Z 1010d980 f i SkinChanger.obj
 0001:0010caa0       ?_Tidy@?$list@U?$pair@$$CBV?$basic_string@DU?$char_traits@D@std@@V?$allocator@D@2@@std@@H@std@@V?$allocator@U?$pair@$$CBV?$basic_string@DU?$char_traits@D@std@@V?$allocator@D@2@@std@@H@std@@@2@@std@@AAEXXZ 1010daa0 f i SkinChanger.obj
 0001:0010cb80       ?end@?$list@U?$pair@$$CBV?$basic_string@DU?$char_traits@D@std@@V?$allocator@D@2@@std@@H@std@@V?$allocator@U?$pair@$$CBV?$basic_string@DU?$char_traits@D@std@@V?$allocator@D@2@@std@@H@std@@@2@@std@@QAE?AV?$_List_iterator@V?$_List_val@U?$_List_simple_types@U?$pair@$$CBV?$basic_string@DU?$char_traits@D@std@@V?$allocator@D@2@@std@@H@std@@@std@@@std@@@2@XZ 1010db80 f i SkinChanger.obj
 0001:0010cc00       ?_Assign_grow@?$_Hash_vec@V?$allocator@V?$_List_unchecked_iterator@V?$_List_val@U?$_List_simple_types@U?$pair@$$CBV?$basic_string_view@DU?$char_traits@D@std@@@std@@PBD@std@@@std@@@std@@@std@@@std@@@std@@QAEXIV?$_List_unchecked_iterator@V?$_List_val@U?$_List_simple_types@U?$pair@$$CBV?$basic_string_view@DU?$char_traits@D@std@@@std@@PBD@std@@@std@@@std@@@2@@Z 1010dc00 f i SkinChanger.obj
 0001:0010cd30       ?_Assign_grow@?$_Hash_vec@V?$allocator@V?$_List_unchecked_iterator@V?$_List_val@U?$_List_simple_types@U?$pair@$$CBV?$basic_string@DU?$char_traits@D@std@@V?$allocator@D@2@@std@@H@std@@@std@@@std@@@std@@@std@@@std@@QAEXIV?$_List_unchecked_iterator@V?$_List_val@U?$_List_simple_types@U?$pair@$$CBV?$basic_string@DU?$char_traits@D@std@@V?$allocator@D@2@@std@@H@std@@@std@@@std@@@2@@Z 1010dd30 f i SkinChanger.obj
 0001:0010ce60       ??0?$_List_unchecked_const_iterator@V?$_List_val@U?$_List_simple_types@U?$pair@$$CBV?$basic_string_view@DU?$char_traits@D@std@@@std@@PBD@std@@@std@@@std@@U_Iterator_base0@2@@std@@QAE@PAU?$_List_node@U?$pair@$$CBV?$basic_string_view@DU?$char_traits@D@std@@@std@@PBD@std@@PAX@1@PBV?$_List_val@U?$_List_simple_types@U?$pair@$$CBV?$basic_string_view@DU?$char_traits@D@std@@@std@@PBD@std@@@std@@@1@@Z 1010de60 f i SkinChanger.obj
 0001:0010ceb0       ?_Alloc_sentinel_and_proxy@?$list@U?$pair@$$CBV?$basic_string_view@DU?$char_traits@D@std@@@std@@PBD@std@@V?$allocator@U?$pair@$$CBV?$basic_string_view@DU?$char_traits@D@std@@@std@@PBD@std@@@2@@std@@AAEXXZ 1010deb0 f i SkinChanger.obj
 0001:0010cfb0       ?_Alloc_sentinel_and_proxy@?$list@U?$pair@$$CBV?$basic_string@DU?$char_traits@D@std@@V?$allocator@D@2@@std@@H@std@@V?$allocator@U?$pair@$$CBV?$basic_string@DU?$char_traits@D@std@@V?$allocator@D@2@@std@@H@std@@@2@@std@@AAEXXZ 1010dfb0 f i SkinChanger.obj
 0001:0010d0b0       ??$find@X@?$_Hash@V?$_Umap_traits@V?$basic_string_view@DU?$char_traits@D@std@@@std@@PBDV?$_Uhash_compare@V?$basic_string_view@DU?$char_traits@D@std@@@std@@U?$hash@V?$basic_string_view@DU?$char_traits@D@std@@@std@@@2@U?$equal_to@V?$basic_string_view@DU?$char_traits@D@std@@@std@@@2@@2@V?$allocator@U?$pair@$$CBV?$basic_string_view@DU?$char_traits@D@std@@@std@@PBD@std@@@2@$0A@@std@@@std@@QAE?AV?$_List_iterator@V?$_List_val@U?$_List_simple_types@U?$pair@$$CBV?$basic_string_view@DU?$char_traits@D@std@@@std@@PBD@std@@@std@@@std@@@1@ABV?$basic_string_view@DU?$char_traits@D@std@@@1@@Z 1010e0b0 f i SkinChanger.obj
 0001:0010d1c0       ??$erase@V?$_List_iterator@V?$_List_val@U?$_List_simple_types@U?$pair@$$CBV?$basic_string_view@DU?$char_traits@D@std@@@std@@PBD@std@@@std@@@std@@@std@@$0A@@?$_Hash@V?$_Umap_traits@V?$basic_string_view@DU?$char_traits@D@std@@@std@@PBDV?$_Uhash_compare@V?$basic_string_view@DU?$char_traits@D@std@@@std@@U?$hash@V?$basic_string_view@DU?$char_traits@D@std@@@std@@@2@U?$equal_to@V?$basic_string_view@DU?$char_traits@D@std@@@std@@@2@@2@V?$allocator@U?$pair@$$CBV?$basic_string_view@DU?$char_traits@D@std@@@std@@PBD@std@@@2@$0A@@std@@@std@@QAE?AV?$_List_iterator@V?$_List_val@U?$_List_simple_types@U?$pair@$$CBV?$basic_string_view@DU?$char_traits@D@std@@@std@@PBD@std@@@std@@@std@@@1@V21@@Z 1010e1c0 f i SkinChanger.obj
 0001:0010d270       ??$find@X@?$_Hash@V?$_Umap_traits@V?$basic_string@DU?$char_traits@D@std@@V?$allocator@D@2@@std@@HV?$_Uhash_compare@V?$basic_string@DU?$char_traits@D@std@@V?$allocator@D@2@@std@@U?$hash@V?$basic_string@DU?$char_traits@D@std@@V?$allocator@D@2@@std@@@2@U?$equal_to@V?$basic_string@DU?$char_traits@D@std@@V?$allocator@D@2@@std@@@2@@2@V?$allocator@U?$pair@$$CBV?$basic_string@DU?$char_traits@D@std@@V?$allocator@D@2@@std@@H@std@@@2@$0A@@std@@@std@@QAE?AV?$_List_iterator@V?$_List_val@U?$_List_simple_types@U?$pair@$$CBV?$basic_string@DU?$char_traits@D@std@@V?$allocator@D@2@@std@@H@std@@@std@@@std@@@1@ABV?$basic_string@DU?$char_traits@D@std@@V?$allocator@D@2@@1@@Z 1010e270 f i SkinChanger.obj
 0001:0010d330       ??$emplace@ABQBDH@?$_Hash@V?$_Umap_traits@V?$basic_string@DU?$char_traits@D@std@@V?$allocator@D@2@@std@@HV?$_Uhash_compare@V?$basic_string@DU?$char_traits@D@std@@V?$allocator@D@2@@std@@U?$hash@V?$basic_string@DU?$char_traits@D@std@@V?$allocator@D@2@@std@@@2@U?$equal_to@V?$basic_string@DU?$char_traits@D@std@@V?$allocator@D@2@@std@@@2@@2@V?$allocator@U?$pair@$$CBV?$basic_string@DU?$char_traits@D@std@@V?$allocator@D@2@@std@@H@std@@@2@$0A@@std@@@std@@QAE?AU?$pair@V?$_List_iterator@V?$_List_val@U?$_List_simple_types@U?$pair@$$CBV?$basic_string@DU?$char_traits@D@std@@V?$allocator@D@2@@std@@H@std@@@std@@@std@@@std@@_N@1@ABQBD$$QAH@Z 1010e330 f i SkinChanger.obj
 0001:0010d330       ??$emplace@AAPBDH@?$_Hash@V?$_Umap_traits@V?$basic_string@DU?$char_traits@D@std@@V?$allocator@D@2@@std@@HV?$_Uhash_compare@V?$basic_string@DU?$char_traits@D@std@@V?$allocator@D@2@@std@@U?$hash@V?$basic_string@DU?$char_traits@D@std@@V?$allocator@D@2@@std@@@2@U?$equal_to@V?$basic_string@DU?$char_traits@D@std@@V?$allocator@D@2@@std@@@2@@2@V?$allocator@U?$pair@$$CBV?$basic_string@DU?$char_traits@D@std@@V?$allocator@D@2@@std@@H@std@@@2@$0A@@std@@@std@@QAE?AU?$pair@V?$_List_iterator@V?$_List_val@U?$_List_simple_types@U?$pair@$$CBV?$basic_string@DU?$char_traits@D@std@@V?$allocator@D@2@@std@@H@std@@@std@@@std@@@std@@_N@1@AAPBD$$QAH@Z 1010e330 f i SkinChanger.obj
 0001:0010d640       ??$_Try_emplace@V?$basic_string_view@DU?$char_traits@D@std@@@std@@$$V@?$_Hash@V?$_Umap_traits@V?$basic_string_view@DU?$char_traits@D@std@@@std@@PBDV?$_Uhash_compare@V?$basic_string_view@DU?$char_traits@D@std@@@std@@U?$hash@V?$basic_string_view@DU?$char_traits@D@std@@@std@@@2@U?$equal_to@V?$basic_string_view@DU?$char_traits@D@std@@@std@@@2@@2@V?$allocator@U?$pair@$$CBV?$basic_string_view@DU?$char_traits@D@std@@@std@@PBD@std@@@2@$0A@@std@@@std@@IAE?AU?$pair@PAU?$_List_node@U?$pair@$$CBV?$basic_string_view@DU?$char_traits@D@std@@@std@@PBD@std@@PAX@std@@_N@1@$$QAV?$basic_string_view@DU?$char_traits@D@std@@@1@@Z 1010e640 f i SkinChanger.obj
 0001:0010d8f0       ??$_Find_last@V?$basic_string@DU?$char_traits@D@std@@V?$allocator@D@2@@std@@@?$_Hash@V?$_Umap_traits@V?$basic_string@DU?$char_traits@D@std@@V?$allocator@D@2@@std@@HV?$_Uhash_compare@V?$basic_string@DU?$char_traits@D@std@@V?$allocator@D@2@@std@@U?$hash@V?$basic_string@DU?$char_traits@D@std@@V?$allocator@D@2@@std@@@2@U?$equal_to@V?$basic_string@DU?$char_traits@D@std@@V?$allocator@D@2@@std@@@2@@2@V?$allocator@U?$pair@$$CBV?$basic_string@DU?$char_traits@D@std@@V?$allocator@D@2@@std@@H@std@@@2@$0A@@std@@@std@@IBE?AU?$_Hash_find_last_result@PAU?$_List_node@U?$pair@$$CBV?$basic_string@DU?$char_traits@D@std@@V?$allocator@D@2@@std@@H@std@@PAX@std@@@1@ABV?$basic_string@DU?$char_traits@D@std@@V?$allocator@D@2@@1@I@Z 1010e8f0 f i SkinChanger.obj
 0001:0010da00       ??$_Try_emplace@V?$basic_string@DU?$char_traits@D@std@@V?$allocator@D@2@@std@@$$V@?$_Hash@V?$_Umap_traits@V?$basic_string@DU?$char_traits@D@std@@V?$allocator@D@2@@std@@HV?$_Uhash_compare@V?$basic_string@DU?$char_traits@D@std@@V?$allocator@D@2@@std@@U?$hash@V?$basic_string@DU?$char_traits@D@std@@V?$allocator@D@2@@std@@@2@U?$equal_to@V?$basic_string@DU?$char_traits@D@std@@V?$allocator@D@2@@std@@@2@@2@V?$allocator@U?$pair@$$CBV?$basic_string@DU?$char_traits@D@std@@V?$allocator@D@2@@std@@H@std@@@2@$0A@@std@@@std@@IAE?AU?$pair@PAU?$_List_node@U?$pair@$$CBV?$basic_string@DU?$char_traits@D@std@@V?$allocator@D@2@@std@@H@std@@PAX@std@@_N@1@$$QAV?$basic_string@DU?$char_traits@D@std@@V?$allocator@D@2@@1@@Z 1010ea00 f i SkinChanger.obj
 0001:0010dc30       ??$_Destroy_in_place@PAU?$_List_node@U?$pair@$$CBV?$basic_string_view@DU?$char_traits@D@std@@@std@@PBD@std@@PAX@std@@@std@@YAXAAPAU?$_List_node@U?$pair@$$CBV?$basic_string_view@DU?$char_traits@D@std@@@std@@PBD@std@@PAX@0@@Z 1010ec30 f i SkinChanger.obj
 0001:0010dc30       ??$_Destroy_range@PAV?$_List_unchecked_iterator@V?$_List_val@U?$_List_simple_types@U?$pair@$$CBV?$basic_string_view@DU?$char_traits@D@std@@@std@@PBD@std@@@std@@@std@@@std@@@std@@YAXPAV?$_List_unchecked_iterator@V?$_List_val@U?$_List_simple_types@U?$pair@$$CBV?$basic_string_view@DU?$char_traits@D@std@@@std@@PBD@std@@@std@@@std@@@0@QAV10@@Z 1010ec30 f i SkinChanger.obj
 0001:0010dc30       ??$_Destroy_range@PAV?$_List_unchecked_iterator@V?$_List_val@U?$_List_simple_types@U?$pair@$$CBV?$basic_string@DU?$char_traits@D@std@@V?$allocator@D@2@@std@@H@std@@@std@@@std@@@std@@@std@@YAXPAV?$_List_unchecked_iterator@V?$_List_val@U?$_List_simple_types@U?$pair@$$CBV?$basic_string@DU?$char_traits@D@std@@V?$allocator@D@2@@std@@H@std@@@std@@@std@@@0@QAV10@@Z 1010ec30 f i SkinChanger.obj
 0001:0010dc70       ??$?0ABV?$allocator@U?$pair@$$CBV?$basic_string@DU?$char_traits@D@std@@V?$allocator@D@2@@std@@H@std@@@std@@$0A@@?$_Hash_vec@V?$allocator@V?$_List_unchecked_iterator@V?$_List_val@U?$_List_simple_types@U?$pair@$$CBV?$basic_string@DU?$char_traits@D@std@@V?$allocator@D@2@@std@@H@std@@@std@@@std@@@std@@@std@@@std@@QAE@ABV?$allocator@U?$pair@$$CBV?$basic_string@DU?$char_traits@D@std@@V?$allocator@D@2@@std@@H@std@@@1@@Z 1010ec70 f i SkinChanger.obj
 0001:0010dc70       ??$?0ABV?$allocator@U?$pair@$$CBV?$basic_string_view@DU?$char_traits@D@std@@@std@@PBD@std@@@std@@$0A@@?$_Hash_vec@V?$allocator@V?$_List_unchecked_iterator@V?$_List_val@U?$_List_simple_types@U?$pair@$$CBV?$basic_string_view@DU?$char_traits@D@std@@@std@@PBD@std@@@std@@@std@@@std@@@std@@@std@@QAE@ABV?$allocator@U?$pair@$$CBV?$basic_string_view@DU?$char_traits@D@std@@@std@@PBD@std@@@1@@Z 1010ec70 f i SkinChanger.obj
 0001:0010dd20       ??$_Free_non_head@V?$allocator@U?$_List_node@U?$pair@$$CBV?$basic_string_view@DU?$char_traits@D@std@@@std@@PBD@std@@PAX@std@@@std@@@?$_List_node@U?$pair@$$CBV?$basic_string_view@DU?$char_traits@D@std@@@std@@PBD@std@@PAX@std@@SAXAAV?$allocator@U?$_List_node@U?$pair@$$CBV?$basic_string_view@DU?$char_traits@D@std@@@std@@PBD@std@@PAX@std@@@1@PAU01@@Z 1010ed20 f i SkinChanger.obj
 0001:0010ddc0       ??$uninitialized_fill@PAV?$_List_unchecked_iterator@V?$_List_val@U?$_List_simple_types@U?$pair@$$CBV?$basic_string_view@DU?$char_traits@D@std@@@std@@PBD@std@@@std@@@std@@@std@@V12@@std@@YAXQAV?$_List_unchecked_iterator@V?$_List_val@U?$_List_simple_types@U?$pair@$$CBV?$basic_string_view@DU?$char_traits@D@std@@@std@@PBD@std@@@std@@@std@@@0@0ABV10@@Z 1010edc0 f i SkinChanger.obj
 0001:0010de50       ??$uninitialized_fill@PAV?$_List_unchecked_iterator@V?$_List_val@U?$_List_simple_types@U?$pair@$$CBV?$basic_string@DU?$char_traits@D@std@@V?$allocator@D@2@@std@@H@std@@@std@@@std@@@std@@V12@@std@@YAXQAV?$_List_unchecked_iterator@V?$_List_val@U?$_List_simple_types@U?$pair@$$CBV?$basic_string@DU?$char_traits@D@std@@V?$allocator@D@2@@std@@H@std@@@std@@@std@@@0@0ABV10@@Z 1010ee50 f i SkinChanger.obj
 0001:0010dee0       ??$_Construct_in_place@PAU?$_List_node@U?$pair@$$CBV?$basic_string@DU?$char_traits@D@std@@V?$allocator@D@2@@std@@H@std@@PAX@std@@ABQAU12@@std@@YAXAAPAU?$_List_node@U?$pair@$$CBV?$basic_string@DU?$char_traits@D@std@@V?$allocator@D@2@@std@@H@std@@PAX@0@ABQAU10@@Z 1010eee0 f i SkinChanger.obj
 0001:0010dee0       ??$_Construct_in_place@PAU?$_List_node@U?$pair@$$CBV?$basic_string@DU?$char_traits@D@std@@V?$allocator@D@2@@std@@H@std@@PAX@std@@AAPAU12@@std@@YAXAAPAU?$_List_node@U?$pair@$$CBV?$basic_string@DU?$char_traits@D@std@@V?$allocator@D@2@@std@@H@std@@PAX@0@0@Z 1010eee0 f i SkinChanger.obj
 0001:0010dee0       ??$_Construct_in_place@PAU?$_List_node@U?$pair@$$CBV?$basic_string_view@DU?$char_traits@D@std@@@std@@PBD@std@@PAX@std@@ABQAU12@@std@@YAXAAPAU?$_List_node@U?$pair@$$CBV?$basic_string_view@DU?$char_traits@D@std@@@std@@PBD@std@@PAX@0@ABQAU10@@Z 1010eee0 f i SkinChanger.obj
 0001:0010dee0       ??$_Construct_in_place@PAU?$_List_node@U?$pair@$$CBV?$basic_string_view@DU?$char_traits@D@std@@@std@@PBD@std@@PAX@std@@AAPAU12@@std@@YAXAAPAU?$_List_node@U?$pair@$$CBV?$basic_string_view@DU?$char_traits@D@std@@@std@@PBD@std@@PAX@0@0@Z 1010eee0 f i SkinChanger.obj
 0001:0010df40       ??1?$_List_node_emplace_op2@V?$allocator@U?$_List_node@U?$pair@$$CBV?$basic_string_view@DU?$char_traits@D@std@@@std@@PBD@std@@PAX@std@@@std@@@std@@QAE@XZ 1010ef40 f i SkinChanger.obj
 0001:0010dff0       ??1?$_List_node_emplace_op2@V?$allocator@U?$_List_node@U?$pair@$$CBV?$basic_string@DU?$char_traits@D@std@@V?$allocator@D@2@@std@@H@std@@PAX@std@@@std@@@std@@QAE@XZ 1010eff0 f i SkinChanger.obj
 0001:0010e0a0       ?_Rehash_for_1@?$_Hash@V?$_Umap_traits@V?$basic_string_view@DU?$char_traits@D@std@@@std@@PBDV?$_Uhash_compare@V?$basic_string_view@DU?$char_traits@D@std@@@std@@U?$hash@V?$basic_string_view@DU?$char_traits@D@std@@@std@@@2@U?$equal_to@V?$basic_string_view@DU?$char_traits@D@std@@@std@@@2@@2@V?$allocator@U?$pair@$$CBV?$basic_string_view@DU?$char_traits@D@std@@@std@@PBD@std@@@2@$0A@@std@@@std@@IAEXXZ 1010f0a0 f i SkinChanger.obj
 0001:0010e0e0       ?_Check_rehash_required_1@?$_Hash@V?$_Umap_traits@V?$basic_string@DU?$char_traits@D@std@@V?$allocator@D@2@@std@@HV?$_Uhash_compare@V?$basic_string@DU?$char_traits@D@std@@V?$allocator@D@2@@std@@U?$hash@V?$basic_string@DU?$char_traits@D@std@@V?$allocator@D@2@@std@@@2@U?$equal_to@V?$basic_string@DU?$char_traits@D@std@@V?$allocator@D@2@@std@@@2@@2@V?$allocator@U?$pair@$$CBV?$basic_string@DU?$char_traits@D@std@@V?$allocator@D@2@@std@@H@std@@@2@$0A@@std@@@std@@IBE_NXZ 1010f0e0 f i SkinChanger.obj
 0001:0010e0e0       ?_Check_rehash_required_1@?$_Hash@V?$_Umap_traits@V?$basic_string_view@DU?$char_traits@D@std@@@std@@PBDV?$_Uhash_compare@V?$basic_string_view@DU?$char_traits@D@std@@@std@@U?$hash@V?$basic_string_view@DU?$char_traits@D@std@@@std@@@2@U?$equal_to@V?$basic_string_view@DU?$char_traits@D@std@@@std@@@2@@2@V?$allocator@U?$pair@$$CBV?$basic_string_view@DU?$char_traits@D@std@@@std@@PBD@std@@@2@$0A@@std@@@std@@IBE_NXZ 1010f0e0 f i SkinChanger.obj
 0001:0010e1c0       ?_Check_max_size@?$_Hash@V?$_Umap_traits@V?$basic_string_view@DU?$char_traits@D@std@@@std@@PBDV?$_Uhash_compare@V?$basic_string_view@DU?$char_traits@D@std@@@std@@U?$hash@V?$basic_string_view@DU?$char_traits@D@std@@@std@@@2@U?$equal_to@V?$basic_string_view@DU?$char_traits@D@std@@@std@@@2@@2@V?$allocator@U?$pair@$$CBV?$basic_string_view@DU?$char_traits@D@std@@@std@@PBD@std@@@2@$0A@@std@@@std@@IBEXXZ 1010f1c0 f i SkinChanger.obj
 0001:0010e240       ?_Insert_new_node_before@?$_Hash@V?$_Umap_traits@V?$basic_string_view@DU?$char_traits@D@std@@@std@@PBDV?$_Uhash_compare@V?$basic_string_view@DU?$char_traits@D@std@@@std@@U?$hash@V?$basic_string_view@DU?$char_traits@D@std@@@std@@@2@U?$equal_to@V?$basic_string_view@DU?$char_traits@D@std@@@std@@@2@@2@V?$allocator@U?$pair@$$CBV?$basic_string_view@DU?$char_traits@D@std@@@std@@PBD@std@@@2@$0A@@std@@@std@@IAEPAU?$_List_node@U?$pair@$$CBV?$basic_string_view@DU?$char_traits@D@std@@@std@@PBD@std@@PAX@2@IQAU32@0@Z 1010f240 f i SkinChanger.obj
 0001:0010e240       ?_Insert_new_node_before@?$_Hash@V?$_Umap_traits@V?$basic_string@DU?$char_traits@D@std@@V?$allocator@D@2@@std@@HV?$_Uhash_compare@V?$basic_string@DU?$char_traits@D@std@@V?$allocator@D@2@@std@@U?$hash@V?$basic_string@DU?$char_traits@D@std@@V?$allocator@D@2@@std@@@2@U?$equal_to@V?$basic_string@DU?$char_traits@D@std@@V?$allocator@D@2@@std@@@2@@2@V?$allocator@U?$pair@$$CBV?$basic_string@DU?$char_traits@D@std@@V?$allocator@D@2@@std@@H@std@@@2@$0A@@std@@@std@@IAEPAU?$_List_node@U?$pair@$$CBV?$basic_string@DU?$char_traits@D@std@@V?$allocator@D@2@@std@@H@std@@PAX@2@IQAU32@0@Z 1010f240 f i SkinChanger.obj
 0001:0010e350       ?_Unchecked_erase@?$_Hash@V?$_Umap_traits@V?$basic_string_view@DU?$char_traits@D@std@@@std@@PBDV?$_Uhash_compare@V?$basic_string_view@DU?$char_traits@D@std@@@std@@U?$hash@V?$basic_string_view@DU?$char_traits@D@std@@@std@@@2@U?$equal_to@V?$basic_string_view@DU?$char_traits@D@std@@@std@@@2@@2@V?$allocator@U?$pair@$$CBV?$basic_string_view@DU?$char_traits@D@std@@@std@@PBD@std@@@2@$0A@@std@@@std@@AAEPAU?$_List_node@U?$pair@$$CBV?$basic_string_view@DU?$char_traits@D@std@@@std@@PBD@std@@PAX@2@PAU32@@Z 1010f350 f i SkinChanger.obj
 0001:0010e3d0       ?_Rehash_for_1@?$_Hash@V?$_Umap_traits@V?$basic_string@DU?$char_traits@D@std@@V?$allocator@D@2@@std@@HV?$_Uhash_compare@V?$basic_string@DU?$char_traits@D@std@@V?$allocator@D@2@@std@@U?$hash@V?$basic_string@DU?$char_traits@D@std@@V?$allocator@D@2@@std@@@2@U?$equal_to@V?$basic_string@DU?$char_traits@D@std@@V?$allocator@D@2@@std@@@2@@2@V?$allocator@U?$pair@$$CBV?$basic_string@DU?$char_traits@D@std@@V?$allocator@D@2@@std@@H@std@@@2@$0A@@std@@@std@@IAEXXZ 1010f3d0 f i SkinChanger.obj
 0001:0010e410       ?_Check_max_size@?$_Hash@V?$_Umap_traits@V?$basic_string@DU?$char_traits@D@std@@V?$allocator@D@2@@std@@HV?$_Uhash_compare@V?$basic_string@DU?$char_traits@D@std@@V?$allocator@D@2@@std@@U?$hash@V?$basic_string@DU?$char_traits@D@std@@V?$allocator@D@2@@std@@@2@U?$equal_to@V?$basic_string@DU?$char_traits@D@std@@V?$allocator@D@2@@std@@@2@@2@V?$allocator@U?$pair@$$CBV?$basic_string@DU?$char_traits@D@std@@V?$allocator@D@2@@std@@H@std@@@2@$0A@@std@@@std@@IBEXXZ 1010f410 f i SkinChanger.obj
 0001:0010e490       ??1?$_Alloc_construct_ptr@V?$allocator@U?$_List_node@U?$pair@$$CBV?$basic_string_view@DU?$char_traits@D@std@@@std@@PBD@std@@PAX@std@@@std@@@std@@QAE@XZ 1010f490 f i SkinChanger.obj
 0001:0010e500       ??1?$_Alloc_construct_ptr@V?$allocator@U?$_List_node@U?$pair@$$CBV?$basic_string@DU?$char_traits@D@std@@V?$allocator@D@2@@std@@H@std@@PAX@std@@@std@@@std@@QAE@XZ 1010f500 f i SkinChanger.obj
 0001:0010e570       ?_Forced_rehash@?$_Hash@V?$_Umap_traits@V?$basic_string_view@DU?$char_traits@D@std@@@std@@PBDV?$_Uhash_compare@V?$basic_string_view@DU?$char_traits@D@std@@@std@@U?$hash@V?$basic_string_view@DU?$char_traits@D@std@@@std@@@2@U?$equal_to@V?$basic_string_view@DU?$char_traits@D@std@@@std@@@2@@2@V?$allocator@U?$pair@$$CBV?$basic_string_view@DU?$char_traits@D@std@@@std@@PBD@std@@@2@$0A@@std@@@std@@IAEXI@Z 1010f570 f i SkinChanger.obj
 0001:0010ead0       ?_Desired_grow_bucket_count@?$_Hash@V?$_Umap_traits@V?$basic_string@DU?$char_traits@D@std@@V?$allocator@D@2@@std@@HV?$_Uhash_compare@V?$basic_string@DU?$char_traits@D@std@@V?$allocator@D@2@@std@@U?$hash@V?$basic_string@DU?$char_traits@D@std@@V?$allocator@D@2@@std@@@2@U?$equal_to@V?$basic_string@DU?$char_traits@D@std@@V?$allocator@D@2@@std@@@2@@2@V?$allocator@U?$pair@$$CBV?$basic_string@DU?$char_traits@D@std@@V?$allocator@D@2@@std@@H@std@@@2@$0A@@std@@@std@@IBEII@Z 1010fad0 f i SkinChanger.obj
 0001:0010ead0       ?_Desired_grow_bucket_count@?$_Hash@V?$_Umap_traits@V?$basic_string_view@DU?$char_traits@D@std@@@std@@PBDV?$_Uhash_compare@V?$basic_string_view@DU?$char_traits@D@std@@@std@@U?$hash@V?$basic_string_view@DU?$char_traits@D@std@@@std@@@2@U?$equal_to@V?$basic_string_view@DU?$char_traits@D@std@@@std@@@2@@2@V?$allocator@U?$pair@$$CBV?$basic_string_view@DU?$char_traits@D@std@@@std@@PBD@std@@@2@$0A@@std@@@std@@IBEII@Z 1010fad0 f i SkinChanger.obj
 0001:0010ebf0       ?_Erase_bucket@?$_Hash@V?$_Umap_traits@V?$basic_string_view@DU?$char_traits@D@std@@@std@@PBDV?$_Uhash_compare@V?$basic_string_view@DU?$char_traits@D@std@@@std@@U?$hash@V?$basic_string_view@DU?$char_traits@D@std@@@std@@@2@U?$equal_to@V?$basic_string_view@DU?$char_traits@D@std@@@std@@@2@@2@V?$allocator@U?$pair@$$CBV?$basic_string_view@DU?$char_traits@D@std@@@std@@PBD@std@@@2@$0A@@std@@@std@@IAEXPAU?$_List_node@U?$pair@$$CBV?$basic_string_view@DU?$char_traits@D@std@@@std@@PBD@std@@PAX@2@I@Z 1010fbf0 f i SkinChanger.obj
 0001:0010eca0       ?bucket@?$_Hash@V?$_Umap_traits@V?$basic_string_view@DU?$char_traits@D@std@@@std@@PBDV?$_Uhash_compare@V?$basic_string_view@DU?$char_traits@D@std@@@std@@U?$hash@V?$basic_string_view@DU?$char_traits@D@std@@@std@@@2@U?$equal_to@V?$basic_string_view@DU?$char_traits@D@std@@@std@@@2@@2@V?$allocator@U?$pair@$$CBV?$basic_string_view@DU?$char_traits@D@std@@@std@@PBD@std@@@2@$0A@@std@@@std@@QBEIABV?$basic_string_view@DU?$char_traits@D@std@@@2@@Z 1010fca0 f i SkinChanger.obj
 0001:0010ed60       ?_Unchecked_erase@?$list@U?$pair@$$CBV?$basic_string_view@DU?$char_traits@D@std@@@std@@PBD@std@@V?$allocator@U?$pair@$$CBV?$basic_string_view@DU?$char_traits@D@std@@@std@@PBD@std@@@2@@std@@AAEPAU?$_List_node@U?$pair@$$CBV?$basic_string_view@DU?$char_traits@D@std@@@std@@PBD@std@@PAX@2@QAU32@@Z 1010fd60 f i SkinChanger.obj
 0001:0010ee30       ?_Forced_rehash@?$_Hash@V?$_Umap_traits@V?$basic_string@DU?$char_traits@D@std@@V?$allocator@D@2@@std@@HV?$_Uhash_compare@V?$basic_string@DU?$char_traits@D@std@@V?$allocator@D@2@@std@@U?$hash@V?$basic_string@DU?$char_traits@D@std@@V?$allocator@D@2@@std@@@2@U?$equal_to@V?$basic_string@DU?$char_traits@D@std@@V?$allocator@D@2@@std@@@2@@2@V?$allocator@U?$pair@$$CBV?$basic_string@DU?$char_traits@D@std@@V?$allocator@D@2@@std@@H@std@@@2@$0A@@std@@@std@@IAEXI@Z 1010fe30 f i SkinChanger.obj
 0001:0010f3f0       ??1_Clear_guard@?$_Hash@V?$_Umap_traits@V?$basic_string_view@DU?$char_traits@D@std@@@std@@PBDV?$_Uhash_compare@V?$basic_string_view@DU?$char_traits@D@std@@@std@@U?$hash@V?$basic_string_view@DU?$char_traits@D@std@@@std@@@2@U?$equal_to@V?$basic_string_view@DU?$char_traits@D@std@@@std@@@2@@2@V?$allocator@U?$pair@$$CBV?$basic_string_view@DU?$char_traits@D@std@@@std@@PBD@std@@@2@$0A@@std@@@std@@QAE@XZ 101103f0 f i SkinChanger.obj
 0001:0010f440       ?_Orphan_ptr2@?$_List_val@U?$_List_simple_types@U?$pair@$$CBV?$basic_string_view@DU?$char_traits@D@std@@@std@@PBD@std@@@std@@@std@@QAEXPAU?$_List_node@U?$pair@$$CBV?$basic_string_view@DU?$char_traits@D@std@@@std@@PBD@std@@PAX@2@@Z 10110440 f i SkinChanger.obj
 0001:0010f500       ?clear@?$_Hash@V?$_Umap_traits@V?$basic_string_view@DU?$char_traits@D@std@@@std@@PBDV?$_Uhash_compare@V?$basic_string_view@DU?$char_traits@D@std@@@std@@U?$hash@V?$basic_string_view@DU?$char_traits@D@std@@@std@@@2@U?$equal_to@V?$basic_string_view@DU?$char_traits@D@std@@@std@@@2@@2@V?$allocator@U?$pair@$$CBV?$basic_string_view@DU?$char_traits@D@std@@@std@@PBD@std@@@2@$0A@@std@@@std@@QAEXXZ 10110500 f i SkinChanger.obj
 0001:0010f610       ?_Unchecked_erase@?$_Hash@V?$_Umap_traits@V?$basic_string_view@DU?$char_traits@D@std@@@std@@PBDV?$_Uhash_compare@V?$basic_string_view@DU?$char_traits@D@std@@@std@@U?$hash@V?$basic_string_view@DU?$char_traits@D@std@@@std@@@2@U?$equal_to@V?$basic_string_view@DU?$char_traits@D@std@@@std@@@2@@2@V?$allocator@U?$pair@$$CBV?$basic_string_view@DU?$char_traits@D@std@@@std@@PBD@std@@@2@$0A@@std@@@std@@AAEPAU?$_List_node@U?$pair@$$CBV?$basic_string_view@DU?$char_traits@D@std@@@std@@PBD@std@@PAX@2@PAU32@QAU32@@Z 10110610 f i SkinChanger.obj
 0001:0010f860       ?clear@?$list@U?$pair@$$CBV?$basic_string_view@DU?$char_traits@D@std@@@std@@PBD@std@@V?$allocator@U?$pair@$$CBV?$basic_string_view@DU?$char_traits@D@std@@@std@@PBD@std@@@2@@std@@QAEXXZ 10110860 f i SkinChanger.obj
 0001:0010f900       ?_Orphan_non_end@?$_List_val@U?$_List_simple_types@U?$pair@$$CBV?$basic_string_view@DU?$char_traits@D@std@@@std@@PBD@std@@@std@@@std@@QAEXXZ 10110900 f i SkinChanger.obj
 0001:0010f9b0       ?_Unchecked_erase@?$list@U?$pair@$$CBV?$basic_string_view@DU?$char_traits@D@std@@@std@@PBD@std@@V?$allocator@U?$pair@$$CBV?$basic_string_view@DU?$char_traits@D@std@@@std@@PBD@std@@@2@@std@@AAEPAU?$_List_node@U?$pair@$$CBV?$basic_string_view@DU?$char_traits@D@std@@@std@@PBD@std@@PAX@2@PAU32@QAU32@@Z 101109b0 f i SkinChanger.obj
 0001:0010fb40       ??$?0AAPBDH@?$_List_node_emplace_op2@V?$allocator@U?$_List_node@U?$pair@$$CBV?$basic_string@DU?$char_traits@D@std@@V?$allocator@D@2@@std@@H@std@@PAX@std@@@std@@@std@@QAE@AAV?$allocator@U?$_List_node@U?$pair@$$CBV?$basic_string@DU?$char_traits@D@std@@V?$allocator@D@2@@std@@H@std@@PAX@std@@@1@AAPBD$$QAH@Z 10110b40 f i SkinChanger.obj
 0001:0010fb40       ??$?0ABQBDH@?$_List_node_emplace_op2@V?$allocator@U?$_List_node@U?$pair@$$CBV?$basic_string@DU?$char_traits@D@std@@V?$allocator@D@2@@std@@H@std@@PAX@std@@@std@@@std@@QAE@AAV?$allocator@U?$_List_node@U?$pair@$$CBV?$basic_string@DU?$char_traits@D@std@@V?$allocator@D@2@@std@@H@std@@PAX@std@@@1@ABQBD$$QAH@Z 10110b40 f i SkinChanger.obj
 0001:0010fc30       ??$_Find_last@V?$basic_string_view@DU?$char_traits@D@std@@@std@@@?$_Hash@V?$_Umap_traits@V?$basic_string_view@DU?$char_traits@D@std@@@std@@PBDV?$_Uhash_compare@V?$basic_string_view@DU?$char_traits@D@std@@@std@@U?$hash@V?$basic_string_view@DU?$char_traits@D@std@@@std@@@2@U?$equal_to@V?$basic_string_view@DU?$char_traits@D@std@@@std@@@2@@2@V?$allocator@U?$pair@$$CBV?$basic_string_view@DU?$char_traits@D@std@@@std@@PBD@std@@@2@$0A@@std@@@std@@IBE?AU?$_Hash_find_last_result@PAU?$_List_node@U?$pair@$$CBV?$basic_string_view@DU?$char_traits@D@std@@@std@@PBD@std@@PAX@std@@@1@ABV?$basic_string_view@DU?$char_traits@D@std@@@1@I@Z 10110c30 f i SkinChanger.obj
 0001:0010fd10       ??$?0ABUpiecewise_construct_t@std@@V?$tuple@$$QAV?$basic_string_view@DU?$char_traits@D@std@@@std@@@1@V?$tuple@$$V@1@@?$_List_node_emplace_op2@V?$allocator@U?$_List_node@U?$pair@$$CBV?$basic_string_view@DU?$char_traits@D@std@@@std@@PBD@std@@PAX@std@@@std@@@std@@QAE@AAV?$allocator@U?$_List_node@U?$pair@$$CBV?$basic_string_view@DU?$char_traits@D@std@@@std@@PBD@std@@PAX@std@@@1@ABUpiecewise_construct_t@1@$$QAV?$tuple@$$QAV?$basic_string_view@DU?$char_traits@D@std@@@std@@@1@$$QAV?$tuple@$$V@1@@Z 10110d10 f i SkinChanger.obj
 0001:0010fde0       ??$?0ABUpiecewise_construct_t@std@@V?$tuple@$$QAV?$basic_string@DU?$char_traits@D@std@@V?$allocator@D@2@@std@@@1@V?$tuple@$$V@1@@?$_List_node_emplace_op2@V?$allocator@U?$_List_node@U?$pair@$$CBV?$basic_string@DU?$char_traits@D@std@@V?$allocator@D@2@@std@@H@std@@PAX@std@@@std@@@std@@QAE@AAV?$allocator@U?$_List_node@U?$pair@$$CBV?$basic_string@DU?$char_traits@D@std@@V?$allocator@D@2@@std@@H@std@@PAX@std@@@1@ABUpiecewise_construct_t@1@$$QAV?$tuple@$$QAV?$basic_string@DU?$char_traits@D@std@@V?$allocator@D@2@@std@@@1@$$QAV?$tuple@$$V@1@@Z 10110de0 f i SkinChanger.obj
 0001:0010feb0       ??$?RV?$basic_string_view@DU?$char_traits@D@std@@@std@@V01@@?$_Uhash_compare@V?$basic_string_view@DU?$char_traits@D@std@@@std@@U?$hash@V?$basic_string_view@DU?$char_traits@D@std@@@std@@@2@U?$equal_to@V?$basic_string_view@DU?$char_traits@D@std@@@std@@@2@@std@@QBE_NABV?$basic_string_view@DU?$char_traits@D@std@@@1@0@Z 10110eb0 f i SkinChanger.obj
 0001:0010ff70       ?_Allocate@?$_Alloc_construct_ptr@V?$allocator@U?$_List_node@U?$pair@$$CBV?$basic_string_view@DU?$char_traits@D@std@@@std@@PBD@std@@PAX@std@@@std@@@std@@QAEXXZ 10110f70 f i SkinChanger.obj
 0001:0010ffe0       ?_Allocate@?$_Alloc_construct_ptr@V?$allocator@U?$_List_node@U?$pair@$$CBV?$basic_string@DU?$char_traits@D@std@@V?$allocator@D@2@@std@@H@std@@PAX@std@@@std@@@std@@QAEXXZ 10110fe0 f i SkinChanger.obj
 0001:00110050       ??$construct@U?$pair@$$CBV?$basic_string_view@DU?$char_traits@D@std@@@std@@PBD@std@@ABUpiecewise_construct_t@2@V?$tuple@$$QAV?$basic_string_view@DU?$char_traits@D@std@@@std@@@2@V?$tuple@$$V@2@@?$_Default_allocator_traits@V?$allocator@U?$_List_node@U?$pair@$$CBV?$basic_string_view@DU?$char_traits@D@std@@@std@@PBD@std@@PAX@std@@@std@@@std@@SAXAAV?$allocator@U?$_List_node@U?$pair@$$CBV?$basic_string_view@DU?$char_traits@D@std@@@std@@PBD@std@@PAX@std@@@1@QAU?$pair@$$CBV?$basic_string_view@DU?$char_traits@D@std@@@std@@PBD@1@ABUpiecewise_construct_t@1@$$QAV?$tuple@$$QAV?$basic_string_view@DU?$char_traits@D@std@@@std@@@1@$$QAV?$tuple@$$V@1@@Z 10111050 f i SkinChanger.obj
 0001:001100b0       ??$construct@U?$pair@$$CBV?$basic_string@DU?$char_traits@D@std@@V?$allocator@D@2@@std@@H@std@@ABUpiecewise_construct_t@2@V?$tuple@$$QAV?$basic_string@DU?$char_traits@D@std@@V?$allocator@D@2@@std@@@2@V?$tuple@$$V@2@@?$_Default_allocator_traits@V?$allocator@U?$_List_node@U?$pair@$$CBV?$basic_string@DU?$char_traits@D@std@@V?$allocator@D@2@@std@@H@std@@PAX@std@@@std@@@std@@SAXAAV?$allocator@U?$_List_node@U?$pair@$$CBV?$basic_string@DU?$char_traits@D@std@@V?$allocator@D@2@@std@@H@std@@PAX@std@@@1@QAU?$pair@$$CBV?$basic_string@DU?$char_traits@D@std@@V?$allocator@D@2@@std@@H@1@ABUpiecewise_construct_t@1@$$QAV?$tuple@$$QAV?$basic_string@DU?$char_traits@D@std@@V?$allocator@D@2@@std@@@1@$$QAV?$tuple@$$V@1@@Z 101110b0 f i SkinChanger.obj
 0001:00110110       ??$_Verify_range@V?$_List_unchecked_iterator@V?$_List_val@U?$_List_simple_types@U?$pair@$$CBV?$basic_string_view@DU?$char_traits@D@std@@@std@@PBD@std@@@std@@@std@@@std@@@std@@YAXQBV?$_List_unchecked_iterator@V?$_List_val@U?$_List_simple_types@U?$pair@$$CBV?$basic_string_view@DU?$char_traits@D@std@@@std@@PBD@std@@@std@@@std@@@0@0@Z 10111110 f i SkinChanger.obj
 0001:001101a0       ??$_Construct_in_place@V?$_List_unchecked_iterator@V?$_List_val@U?$_List_simple_types@U?$pair@$$CBV?$basic_string_view@DU?$char_traits@D@std@@@std@@PBD@std@@@std@@@std@@@std@@ABV12@@std@@YAXAAV?$_List_unchecked_iterator@V?$_List_val@U?$_List_simple_types@U?$pair@$$CBV?$basic_string_view@DU?$char_traits@D@std@@@std@@PBD@std@@@std@@@std@@@0@ABV10@@Z 101111a0 f i SkinChanger.obj
 0001:001101a0       ??$_Construct_in_place@V?$_List_unchecked_iterator@V?$_List_val@U?$_List_simple_types@U?$pair@$$CBV?$basic_string@DU?$char_traits@D@std@@V?$allocator@D@2@@std@@H@std@@@std@@@std@@@std@@ABV12@@std@@YAXAAV?$_List_unchecked_iterator@V?$_List_val@U?$_List_simple_types@U?$pair@$$CBV?$basic_string@DU?$char_traits@D@std@@V?$allocator@D@2@@std@@H@std@@@std@@@std@@@0@ABV10@@Z 101111a0 f i SkinChanger.obj
 0001:00110200       ??$?0$$QAV?$basic_string_view@DU?$char_traits@D@std@@@std@@$$Z$$V@?$pair@$$CBV?$basic_string_view@DU?$char_traits@D@std@@@std@@PBD@std@@QAE@Upiecewise_construct_t@1@V?$tuple@$$QAV?$basic_string_view@DU?$char_traits@D@std@@@std@@@1@V?$tuple@$$V@1@@Z 10111200 f i SkinChanger.obj
 0001:00110240       ??$?0$$QAV?$basic_string@DU?$char_traits@D@std@@V?$allocator@D@2@@std@@$$Z$$V@?$pair@$$CBV?$basic_string@DU?$char_traits@D@std@@V?$allocator@D@2@@std@@H@std@@QAE@Upiecewise_construct_t@1@V?$tuple@$$QAV?$basic_string@DU?$char_traits@D@std@@V?$allocator@D@2@@std@@@1@V?$tuple@$$V@1@@Z 10111240 f i SkinChanger.obj
 0001:00110280       ??$?0V?$tuple@$$QAV?$basic_string_view@DU?$char_traits@D@std@@@std@@@std@@V?$tuple@$$V@1@$0A@$$Z$S@?$pair@$$CBV?$basic_string_view@DU?$char_traits@D@std@@@std@@PBD@std@@QAE@AAV?$tuple@$$QAV?$basic_string_view@DU?$char_traits@D@std@@@std@@@1@AAV?$tuple@$$V@1@U?$integer_sequence@I$0A@@1@U?$integer_sequence@I$S@1@@Z 10111280 f i SkinChanger.obj
 0001:001102d0       ??$?0V?$tuple@$$QAV?$basic_string@DU?$char_traits@D@std@@V?$allocator@D@2@@std@@@std@@V?$tuple@$$V@1@$0A@$$Z$S@?$pair@$$CBV?$basic_string@DU?$char_traits@D@std@@V?$allocator@D@2@@std@@H@std@@QAE@AAV?$tuple@$$QAV?$basic_string@DU?$char_traits@D@std@@V?$allocator@D@2@@std@@@1@AAV?$tuple@$$V@1@U?$integer_sequence@I$0A@@1@U?$integer_sequence@I$S@1@@Z 101112d0 f i SkinChanger.obj
 0001:00110320       ??0Vector2D@@QAE@XZ        10111320 f   Vector2D.obj
 0001:00110350       ??0Vector2D@@QAE@MM@Z      10111350 f   Vector2D.obj
 0001:00110390       ??4Vector2D@@QAEAAV0@ABV0@@Z 10111390 f   Vector2D.obj
 0001:001103c0       ?Vector2DAdd@@YAXABVVector2D@@0AAV1@@Z 101113c0 f   Vector2D.obj
 0001:00110400       ?Vector2DDivide@@YAXABVVector2D@@MAAV1@@Z 10111400 f   Vector2D.obj
 0001:00110450       ??HVector2D@@QBE?AV0@ABV0@@Z 10111450 f   Vector2D.obj
 0001:001104b0       ??KVector2D@@QBE?AV0@M@Z   101114b0 f   Vector2D.obj
 0001:00110510       ?findPattern@Memory@@CAIPBD0I@Z 10111510 f i Memory.obj
 0001:00110610       ?initialize@Memory@@QAEXXZ 10111610 f   Memory.obj
 0001:001106f0       ?CRC32_Init@@YAXPAK@Z      101116f0 f   checksum_crc.obj
 0001:00110710       ?CRC32_Final@@YAXPAK@Z     10111710 f   checksum_crc.obj
 0001:00110730       ?CRC32_ProcessBuffer@@YAXPAKPBXH@Z 10111730 f   checksum_crc.obj
 0001:00111b70       ?MD5Init@@YAXPAUMD5Context_t@@@Z 10112b70 f   checksum_md5.obj
 0001:00111bf0       ?MD5Update@@YAXPAUMD5Context_t@@PBEI@Z 10112bf0 f   checksum_md5.obj
 0001:00111d60       ?MD5Final@@YAXQAEPAUMD5Context_t@@@Z 10112d60 f   checksum_md5.obj
 0001:00111e80       ?MD5_PseudoRandom@@YAII@Z  10112e80 f   checksum_md5.obj
 0001:00111ee0       ??0Color@@QAE@XZ           10112ee0 f   Color.obj
 0001:00111f40       ??0Color@@QAE@HHH@Z        10112f40 f   Color.obj
 0001:00111fa0       ??0Color@@QAE@HHHH@Z       10112fa0 f   Color.obj
 0001:00112000       ?SetRawColor@Color@@QAEXH@Z 10113000 f   Color.obj
 0001:00112020       ?GetRawColor@Color@@QBEHXZ 10113020 f   Color.obj
 0001:00112020       ?get_command@ctx_t@@QAEPAVCUserCmd@@XZ 10113020 f   ctx.obj
 0001:00112040       ??8Color@@QBE_NABV0@@Z     10113040 f   Color.obj
 0001:00112080       ??9Color@@QBE_NABV0@@Z     10113080 f   Color.obj
 0001:001120c0       ??4Color@@QAEAAV0@ABV0@@Z  101130c0 f   Color.obj
 0001:001120f0       ?FindConversion@CUtlNoEscConversion@@UAEDPBDPAH@Z 101130f0 f i UtlBuffer.obj
 0001:00112120       ??0CUtlCStringConversion@@QAE@DPBDHPAUConversionArray_t@CUtlCharConversion@@@Z 10113120 f   UtlBuffer.obj
 0001:001121c0       ?FindConversion@CUtlCStringConversion@@UAEDPBDPAH@Z 101131c0 f   UtlBuffer.obj
 0001:00112220       ??0CUtlCharConversion@@QAE@DPBDHPAUConversionArray_t@0@@Z 10113220 f   UtlBuffer.obj
 0001:00112360       ?FindConversion@CUtlCharConversion@@UAEDPBDPAH@Z 10113360 f   UtlBuffer.obj
 0001:00112440       ?m_flNextAttack@player_t@@QBEAAMXZ 10113440 f i structs.obj
 0001:001124f0       ?m_bIsDefusing@player_t@@QBEAA_NXZ 101134f0 f i structs.obj
 0001:001125a0       ?GetPredDescMap@entity_t@@QAEPAUdatamap_t@@XZ 101135a0 f   structs.obj
 0001:00112610       ?is_player@entity_t@@QAE_NXZ 10113610 f   structs.obj
 0001:00112670       ?set_model_index@entity_t@@QAEXH@Z 10113670 f   structs.obj
 0001:001126f0       ?set_abs_angles@entity_t@@QAEXABVVector@@@Z 101136f0 f   structs.obj
 0001:001127b0       ?set_abs_origin@entity_t@@QAEXABVVector@@@Z 101137b0 f   structs.obj
 0001:00112870       ?get_csweapon_info@weapon_t@@QAEPAVweapon_info_t@@XZ 10113870 f   structs.obj
 0001:001128f0       ?get_inaccuracy@weapon_t@@QAEMXZ 101138f0 f   structs.obj
 0001:00112970       ?get_spread@weapon_t@@QAEMXZ 10113970 f   structs.obj
 0001:001129f0       ?update_accuracy_penality@weapon_t@@QAEXXZ 101139f0 f   structs.obj
 0001:00112a70       ?is_empty@weapon_t@@QAE_NXZ 10113a70 f   structs.obj
 0001:00112ac0       ?can_fire@weapon_t@@QAE_N_N@Z 10113ac0 f   structs.obj
 0001:00112c20       ?get_weapon_group@weapon_t@@QAEH_N@Z 10113c20 f   structs.obj
 0001:00112df0       ?is_rifle@weapon_t@@QAE_NXZ 10113df0 f   structs.obj
 0001:00112e60       ?is_smg@weapon_t@@QAE_NXZ  10113e60 f   structs.obj
 0001:00112ed0       ?is_shotgun@weapon_t@@QAE_NXZ 10113ed0 f   structs.obj
 0001:00112f40       ?is_pistol@weapon_t@@QAE_NXZ 10113f40 f   structs.obj
 0001:00112fc0       ?is_sniper@weapon_t@@QAE_NXZ 10113fc0 f   structs.obj
 0001:00113020       ?is_grenade@weapon_t@@QAE_NXZ 10114020 f   structs.obj
 0001:00113090       ?is_knife@weapon_t@@QAE_NXZ 10114090 f   structs.obj
 0001:001131c0       ?is_non_aim@weapon_t@@QAE_NXZ 101141c0 f   structs.obj
 0001:00113230       ?can_double_tap@weapon_t@@QAE_NXZ 10114230 f   structs.obj
 0001:001132d0       ?get_max_tickbase_shift@weapon_t@@QAEHXZ 101142d0 f   structs.obj
 0001:00113450       ?get_icon@weapon_t@@QAEPADXZ 10114450 f   structs.obj
 0001:001137c0       ?get_name@weapon_t@@QAE?AV?$basic_string@DU?$char_traits@D@std@@V?$allocator@D@2@@std@@XZ 101147c0 f   structs.obj
 0001:00113fd0       ?m_flPoseParameter@entity_t@@QAEAAV?$array@M$0BI@@std@@XZ 10114fd0 f   structs.obj
 0001:00114080       ?get_shoot_position@player_t@@QAE?AVVector@@XZ 10115080 f   structs.obj
 0001:00114140       ?modify_eye_position@player_t@@QAEXAAVVector@@@Z 10115140 f   structs.obj
 0001:001143b0       ?is_alive@player_t@@QAE_NXZ 101153b0 f   structs.obj
 0001:00114400       ?get_move_type@player_t@@QAEHXZ 10115400 f   structs.obj
 0001:00114430       ?hitbox_position@player_t@@QAE?AVVector@@H@Z 10115430 f   structs.obj
 0001:00114710       ?hitbox_position_matrix@player_t@@QAE?AVVector@@HQAVmatrix3x4_t@@@Z 10115710 f   structs.obj
 0001:001149b0       ?m_CachedBoneData@player_t@@QAEAAV?$CUtlVector@Vmatrix3x4_t@@V?$CUtlMemory@Vmatrix3x4_t@@H@@@@XZ 101159b0 f   structs.obj
 0001:00114a60       ?invalidate_bone_cache@player_t@@QAEXXZ 10115a60 f   structs.obj
 0001:00114aa0       ?update_clientside_animation@player_t@@QAEXXZ 10115aa0 f   structs.obj
 0001:00114b60       ?m_iMostRecentModelBoneCounter@player_t@@QAEAAIXZ 10115b60 f   structs.obj
 0001:00114c60       ?m_flLastBoneSetupTime@player_t@@QAEAAMXZ 10115c60 f   structs.obj
 0001:00114d60       ?valid@player_t@@QAE_N_N0@Z 10115d60 f   structs.obj
 0001:00114e20       ?animlayer_count@player_t@@QAEHXZ 10115e20 f   structs.obj
 0001:00114e50       ?get_animlayers@player_t@@QAEPAVAnimationLayer@@XZ 10115e50 f   structs.obj
 0001:00114e70       ?sequence_activity@player_t@@QAEHH@Z 10115e70 f   structs.obj
 0001:00114f80       ?get_animation_state@player_t@@QAEPAVc_baseplayeranimationstate@@XZ 10115f80 f   structs.obj
 0001:00114fa0       ?setup_bones_fixed@player_t@@QAE_NPAVmatrix3x4_t@@H@Z 10115fa0 f   structs.obj
 0001:00115150       ?m_fEffects@player_t@@QAEAAIXZ 10116150 f   structs.obj
 0001:00115200       ?m_iEFlags@player_t@@QAEAAIXZ 10116200 f   structs.obj
 0001:001152b0       ?m_vecAbsVelocity@player_t@@QAEAAVVector@@XZ 101162b0 f   structs.obj
 0001:00115380       ?get_max_desync_delta@player_t@@QAEMXZ 10116380 f   structs.obj
 0001:001154c0       ?invalidate_physics_recursive@player_t@@QAEXH@Z 101164c0 f   structs.obj
 0001:00115580       ?m_flCycle@viewmodel_t@@QAEAAMXZ 10116580 f   structs.obj
 0001:00115630       ?m_flAnimTime@viewmodel_t@@QAEAAMXZ 10116630 f   structs.obj
 0001:001156e0       ?chat_print@CHudChat@@QAAXPBDZZ 101166e0 f   structs.obj
 0001:00115840       ?m_device@C_CSGO@@QAEPAUIDirect3DDevice9@@XZ 10116840 f   csgo.obj
 0001:001158c0       ?m_engine@C_CSGO@@QAEPAVIVEngineClient@@XZ 101168c0 f   csgo.obj
 0001:00115900       ?m_inputsys@C_CSGO@@QAEPAVIInputSystem@@XZ 10116900 f   csgo.obj
 0001:00115940       ?m_client@C_CSGO@@QAEPAVIBaseClientDLL@@XZ 10116940 f   csgo.obj
 0001:00115980       ?m_entitylist@C_CSGO@@QAEPAVIClientEntityList@@XZ 10116980 f   csgo.obj
 0001:001159c0       ?m_cvar@C_CSGO@@QAEPAVICvar@@XZ 101169c0 f   csgo.obj
 0001:00115a00       ?m_trace@C_CSGO@@QAEPAVIEngineTrace@@XZ 10116a00 f   csgo.obj
 0001:00115a40       ?m_enginesound@C_CSGO@@QAEPAVIEngineSound@@XZ 10116a40 f   csgo.obj
 0001:00115a80       ?m_inputinternal@C_CSGO@@QAEPAKXZ 10116a80 f   csgo.obj
 0001:00115ac0       ?m_renderview@C_CSGO@@QAEPAVIVRenderView@@XZ 10116ac0 f   csgo.obj
 0001:00115b00       ?m_modelrender@C_CSGO@@QAEPAVIVModelRender@@XZ 10116b00 f   csgo.obj
 0001:00115b40       ?m_materialsystem@C_CSGO@@QAEPAVIMaterialSystem@@XZ 10116b40 f   csgo.obj
 0001:00115b80       ?m_panel@C_CSGO@@QAEPAVIPanel@@XZ 10116b80 f   csgo.obj
 0001:00115bc0       ?m_modelinfo@C_CSGO@@QAEPAVIVModelInfoClient@@XZ 10116bc0 f   csgo.obj
 0001:00115c00       ?m_prediction@C_CSGO@@QAEPAVIPrediction@@XZ 10116c00 f   csgo.obj
 0001:00115c40       ?m_gamemovement@C_CSGO@@QAEPAVIGameMovement@@XZ 10116c40 f   csgo.obj
 0001:00115c80       ?m_surface@C_CSGO@@QAEPAVISurface@@XZ 10116c80 f   csgo.obj
 0001:00115cc0       ?m_debugoverlay@C_CSGO@@QAEPAVIVDebugOverlay@@XZ 10116cc0 f   csgo.obj
 0001:00115d00       ?m_physsurface@C_CSGO@@QAEPAVIPhysicsSurfaceProps@@XZ 10116d00 f   csgo.obj
 0001:00115d40       ?m_eventmanager@C_CSGO@@QAEPAVIGameEventManager2@@XZ 10116d40 f   csgo.obj
 0001:00115d80       ?m_viewrenderbeams@C_CSGO@@QAEPAVIViewRenderBeams@@XZ 10116d80 f   csgo.obj
 0001:00115e10       ?m_memalloc@C_CSGO@@QAEPAVIMemAlloc@@XZ 10116e10 f   csgo.obj
 0001:00115e60       ?m_clientmode@C_CSGO@@QAEPAVIClientMode@@XZ 10116e60 f   csgo.obj
 0001:00115eb0       ?m_globals@C_CSGO@@QAEPAVCGlobalVarsBase@@XZ 10116eb0 f   csgo.obj
 0001:00115f00       ?m_glow@C_CSGO@@QAEPAVCGlowObjectManager@@XZ 10116f00 f   csgo.obj
 0001:00115f90       ?m_clientstate@C_CSGO@@QAEPAVCClientState@@XZ 10116f90 f   csgo.obj
 0001:00115ff0       ?m_movehelper@C_CSGO@@QAEPAVIMoveHelper@@XZ 10116ff0 f   csgo.obj
 0001:00116080       ?m_input@C_CSGO@@QAEPAVCInput@@XZ 10117080 f   csgo.obj
 0001:00116110       ?m_playerresource@C_CSGO@@QAEPAVC_CSPlayerResource@@XZ 10117110 f   csgo.obj
 0001:00116260       ?m_gamerules@C_CSGO@@QAEPAVCSGameRulesProxy@@XZ 10117260 f   csgo.obj
 0001:001163b0       ?m_basefilesys@C_CSGO@@QAEPAUIBaseFileSystem@@XZ 101173b0 f   csgo.obj
 0001:00116400       ?m_localize@C_CSGO@@QAEPAVILocalize@@XZ 10117400 f   csgo.obj
 0001:00116440       ?m_postprocessing@C_CSGO@@QAEKXZ 10117440 f   csgo.obj
 0001:00118300       ??0ctx_t@@QAE@XZ           10119300 f i ctx.obj
 0001:001183c0       ??0Globals@ctx_t@@QAE@XZ   101193c0 f i ctx.obj
 0001:00118790       ??1ctx_t@@QAE@XZ           10119790 f i ctx.obj
 0001:001187f0       ??1Globals@ctx_t@@QAE@XZ   101197f0 f i ctx.obj
 0001:00118850       ?available@ctx_t@@QAE_NXZ  10119850 f   ctx.obj
 0001:001188b0       ?local@ctx_t@@QAEPAVplayer_t@@PAV2@_N@Z 101198b0 f   ctx.obj
 0001:001188e0       ??1?$vector@Uaim_shot@@V?$allocator@Uaim_shot@@@std@@@std@@QAE@XZ 101198e0 f i ctx.obj
 0001:00118970       ??1?$deque@Ucorrection_data@@V?$allocator@Ucorrection_data@@@std@@@std@@QAE@XZ 10119970 f i ctx.obj
 0001:00118a00       ??0?$deque@Ucorrection_data@@V?$allocator@Ucorrection_data@@@std@@@std@@QAE@XZ 10119a00 f i ctx.obj
 0001:00118a00       ??0?$deque@Ucommand@@V?$allocator@Ucommand@@@std@@@std@@QAE@XZ 10119a00 f i ctx.obj
 0001:00118a90       ??1?$deque@Ucommand@@V?$allocator@Ucommand@@@std@@@std@@QAE@XZ 10119a90 f i ctx.obj
 0001:00118b20       ?_Tidy@?$vector@Uaim_shot@@V?$allocator@Uaim_shot@@@std@@@std@@AAEXXZ 10119b20 f i ctx.obj
 0001:00118c20       ?IsValid@Vector@@QBE_NXZ   10119c20 f i draw_manager.obj
 0001:00118d20       ?ShouldHitEntity@CTraceFilterWorldOnly@@UAE_NPAVIHandleEntity@@H@Z 10119d20 f i draw_manager.obj
 0001:00118d40       ?GetTraceType@CTraceFilterWorldOnly@@UBE?AW4TraceType@@XZ 10119d40 f i draw_manager.obj
 0001:00118d60       ?rect@render@@QAEXHHHHVColor@@@Z 10119d60 f   draw_manager.obj
 0001:00118e20       ?rect_filled@render@@QAEXHHHHVColor@@@Z 10119e20 f   draw_manager.obj
 0001:00118ee0       ?circle@render@@QAEXHHHHVColor@@@Z 10119ee0 f   draw_manager.obj
 0001:001192f0       ??$emplace_back@UVertex_t@@@?$vector@UVertex_t@@V?$allocator@UVertex_t@@@std@@@std@@QAEAAUVertex_t@@$$QAU2@@Z 1011a2f0 f i draw_manager.obj
 0001:00119370       ??$_Emplace_back_with_unused_capacity@UVertex_t@@@?$vector@UVertex_t@@V?$allocator@UVertex_t@@@std@@@std@@AAEAAUVertex_t@@$$QAU2@@Z 1011a370 f i draw_manager.obj
 0001:00119460       ?circle_filled@render@@QAEXHHHHVColor@@@Z 1011a460 f   draw_manager.obj
 0001:00119850       ?triangle@render@@QAEXVVector2D@@00VColor@@@Z 1011a850 f   draw_manager.obj
 0001:00119aa0       ?line@render@@QAEXHHHHVColor@@@Z 1011aaa0 f   draw_manager.obj
 0001:00119b50       ?text@render@@QAAXKHHVColor@@KPBDZZ 1011ab50 f   draw_manager.obj
 0001:00119d40       ?text_width@render@@QAAHKPBDZZ 1011ad40 f   draw_manager.obj
 0001:00119e30       ?ColorConvertHSVtoRGB@@YAXMMMAAM00@Z 1011ae30 f   draw_manager.obj
 0001:0011a050       ?Draw3DFilledCircle@render@@QAEXABVVector@@MVColor@@@Z 1011b050 f   draw_manager.obj
 0001:0011a3f0       ?Draw3DRainbowCircle@render@@QAEXABVVector@@M@Z 1011b3f0 f   draw_manager.obj
 0001:0011a7c0       ?_Orphan_range@?$vector@UVertex_t@@V?$allocator@UVertex_t@@@std@@@std@@ABEXPAUVertex_t@@0@Z 1011b7c0 f i draw_manager.obj
 0001:0011a7c0       ?_Orphan_range@?$vector@MV?$allocator@M@std@@@std@@ABEXPAM0@Z 1011b7c0 f i draw_manager.obj
 0001:0011a850       ??1?$vector@UVertex_t@@V?$allocator@UVertex_t@@@std@@@std@@QAE@XZ 1011b850 f i draw_manager.obj
 0001:0011a8e0       ??0?$vector@MV?$allocator@M@std@@@std@@QAE@XZ 1011b8e0 f i draw_manager.obj
 0001:0011a8e0       ??0?$vector@UVertex_t@@V?$allocator@UVertex_t@@@std@@@std@@QAE@XZ 1011b8e0 f i draw_manager.obj
 0001:0011a970       ??A?$vector@MV?$allocator@M@std@@@std@@QAEAAMI@Z 1011b970 f i draw_manager.obj
 0001:0011aa30       ??$emplace_back@M@?$vector@MV?$allocator@M@std@@@std@@QAEAAM$$QAM@Z 1011ba30 f i draw_manager.obj
 0001:0011aab0       ??$_Emplace_back_with_unused_capacity@M@?$vector@MV?$allocator@M@std@@@std@@AAEAAM$$QAM@Z 1011bab0 f i draw_manager.obj
 0001:0011ab50       ??1?$vector@MV?$allocator@M@std@@@std@@QAE@XZ 1011bb50 f i draw_manager.obj
 0001:0011abe0       ??$emplace_back@ABH@?$vector@HV?$allocator@H@std@@@std@@QAEAAHABH@Z 1011bbe0 f i draw_manager.obj
 0001:0011ac60       ??$_Emplace_back_with_unused_capacity@ABH@?$vector@HV?$allocator@H@std@@@std@@AAEAAHABH@Z 1011bc60 f i draw_manager.obj
 0001:0011ad00       ?_Tidy@?$vector@UVertex_t@@V?$allocator@UVertex_t@@@std@@@std@@AAEXXZ 1011bd00 f i draw_manager.obj
 0001:0011ae00       ?_Tidy@?$vector@MV?$allocator@M@std@@@std@@AAEXXZ 1011be00 f i draw_manager.obj
 0001:0011af00       ?_Destroy@?$vector@UVertex_t@@V?$allocator@UVertex_t@@@std@@@std@@AAEXPAUVertex_t@@0@Z 1011bf00 f i draw_manager.obj
 0001:0011af00       ?_Destroy@?$vector@MV?$allocator@M@std@@@std@@AAEXPAM0@Z 1011bf00 f i draw_manager.obj
 0001:0011af40       ?deallocate@?$allocator@UVertex_t@@@std@@QAEXQAUVertex_t@@I@Z 1011bf40 f i draw_manager.obj
 0001:0011af70       ?deallocate@?$allocator@M@std@@QAEXQAMI@Z 1011bf70 f i draw_manager.obj
 0001:0011afa0       ??$_Emplace_reallocate@UVertex_t@@@?$vector@UVertex_t@@V?$allocator@UVertex_t@@@std@@@std@@QAEPAUVertex_t@@QAU2@$$QAU2@@Z 1011bfa0 f i draw_manager.obj
 0001:0011b2f0       ??$_Unfancy_maybe_null@UVertex_t@@@std@@YAPAUVertex_t@@PAU1@@Z 1011c2f0 f i draw_manager.obj
 0001:0011b2f0       ??$_Unfancy_maybe_null@H@std@@YAPAHPAH@Z 1011c2f0 f i draw_manager.obj
 0001:0011b310       ??$_Emplace_reallocate@M@?$vector@MV?$allocator@M@std@@@std@@QAEPAMQAM$$QAM@Z 1011c310 f i draw_manager.obj
 0001:0011b600       ??$_Emplace_reallocate@ABH@?$vector@HV?$allocator@H@std@@@std@@QAEPAHQAHABH@Z 1011c600 f i draw_manager.obj
 0001:0011b8f0       ??$_Destroy_in_place@PAU?$_List_node@U?$pair@$$CBIP6AXAAUrecvProxyData@@PAX1@Z@std@@PAX@std@@@std@@YAXAAPAU?$_List_node@U?$pair@$$CBIP6AXAAUrecvProxyData@@PAX1@Z@std@@PAX@0@@Z 1011c8f0 f i recv.obj
 0001:0011b8f0       ??$_Destroy_range@PAV?$_List_unchecked_iterator@V?$_List_val@U?$_List_simple_types@U?$pair@$$CBIP6AXAAUrecvProxyData@@PAX1@Z@std@@@std@@@std@@@std@@@std@@YAXPAV?$_List_unchecked_iterator@V?$_List_val@U?$_List_simple_types@U?$pair@$$CBIP6AXAAUrecvProxyData@@PAX1@Z@std@@@std@@@std@@@0@QAV10@@Z 1011c8f0 f i recv.obj
 0001:0011b8f0       ??$_Destroy_range@V?$allocator@M@std@@@std@@YAXPAMQAMAAV?$allocator@M@0@@Z 1011c8f0 f i draw_manager.obj
 0001:0011b8f0       ??$_Destroy_range@V?$allocator@UVertex_t@@@std@@@std@@YAXPAUVertex_t@@QAU1@AAV?$allocator@UVertex_t@@@0@@Z 1011c8f0 f i draw_manager.obj
 0001:0011b930       ?_Xlength@?$vector@MV?$allocator@M@std@@@std@@CAXXZ 1011c930 f i draw_manager.obj
 0001:0011b930       ?_Xlength@?$vector@UVertex_t@@V?$allocator@UVertex_t@@@std@@@std@@CAXXZ 1011c930 f i draw_manager.obj
 0001:0011b950       ?_Change_array@?$vector@UVertex_t@@V?$allocator@UVertex_t@@@std@@@std@@AAEXQAUVertex_t@@II@Z 1011c950 f i draw_manager.obj
 0001:0011ba30       ?_Calculate_growth@?$vector@UVertex_t@@V?$allocator@UVertex_t@@@std@@@std@@ABEII@Z 1011ca30 f i draw_manager.obj
 0001:0011bae0       ?_Change_array@?$vector@MV?$allocator@M@std@@@std@@AAEXQAMII@Z 1011cae0 f i draw_manager.obj
 0001:0011bbc0       ?_Calculate_growth@?$vector@MV?$allocator@M@std@@@std@@ABEII@Z 1011cbc0 f i draw_manager.obj
 0001:0011bc70       ??$_Uninitialized_move@PAUVertex_t@@V?$allocator@UVertex_t@@@std@@@std@@YAPAUVertex_t@@QAU1@0PAU1@AAV?$allocator@UVertex_t@@@0@@Z 1011cc70 f i draw_manager.obj
 0001:0011bd20       ??$_Uninitialized_move@PAMV?$allocator@M@std@@@std@@YAPAMQAM0PAMAAV?$allocator@M@0@@Z 1011cd20 f i draw_manager.obj
 0001:0011bd70       ??$_Uninitialized_copy@PAUVertex_t@@V?$allocator@UVertex_t@@@std@@@std@@YAPAUVertex_t@@QAU1@0PAU1@AAV?$allocator@UVertex_t@@@0@@Z 1011cd70 f i draw_manager.obj
 0001:0011be20       ??1?$_Uninitialized_backout_al@V?$allocator@UVertex_t@@@std@@@std@@QAE@XZ 1011ce20 f i draw_manager.obj
 0001:0011be80       ??$_Emplace_back@AAUVertex_t@@@?$_Uninitialized_backout_al@V?$allocator@UVertex_t@@@std@@@std@@QAEXAAUVertex_t@@@Z 1011ce80 f i draw_manager.obj
 0001:0011be80       ??$_Emplace_back@UVertex_t@@@?$_Uninitialized_backout_al@V?$allocator@UVertex_t@@@std@@@std@@QAEX$$QAUVertex_t@@@Z 1011ce80 f i draw_manager.obj
 0001:0011bf30       ??$_Copy_memmove@PAMPAM@std@@YAPAMPAM00@Z 1011cf30 f i draw_manager.obj
 0001:0011bf80       ?normalize_angles@math@@YAXAAVVector@@@Z 1011cf80 f   math.obj
 0001:0011c040       ?normalize_yaw@math@@YAMM@Z 1011d040 f   math.obj
 0001:0011c0a0       ?normalize_pitch@math@@YAMM@Z 1011d0a0 f   math.obj
 0001:0011c100       ?vector_transform@math@@YAXABVVector@@ABVmatrix3x4_t@@AAV2@@Z 1011d100 f   math.obj
 0001:0011c3b0       ?calculate_angle@math@@YA?AVVector@@ABV2@0@Z 1011d3b0 f   math.obj
 0001:0011c4a0       ?get_fov@math@@YAMABVVector@@0@Z 1011d4a0 f   math.obj
 0001:0011c5c0       ?angle_vectors@math@@YAXABVVector@@AAV2@@Z 1011d5c0 f   math.obj
 0001:0011c6e0       ?angle_vectors@math@@YAXABVVector@@PAV2@11@Z 1011d6e0 f   math.obj
 0001:0011c930       ?vector_angles@math@@YAXABVVector@@AAV2@@Z 1011d930 f   math.obj
 0001:0011cc60       ?VectorMAInline@math@@YAXABVVector@@M0AAV2@@Z 1011dc60 f   math.obj
 0001:0011ccd0       ?VectorMA@math@@YAXABVVector@@M0AAV2@@Z 1011dcd0 f   math.obj
 0001:0011cd00       ?world_to_screen@math@@YA_NABVVector@@AAV2@@Z 1011dd00 f   math.obj
 0001:0011cd60       ?rotate_triangle@math@@YAXAAV?$array@VVector2D@@$02@std@@M@Z 1011dd60 f   math.obj
 0001:0011cf40       ?random_float@math@@YAMMM@Z 1011df40 f   math.obj
 0001:0011d000       ?random_int@math@@YAHHH@Z  1011e000 f   math.obj
 0001:0011d090       ?random_seed@math@@YAXH@Z  1011e090 f   math.obj
 0001:0011d110       ?angle_matrix@math@@YA?AVmatrix3x4_t@@ABVVector@@@Z 1011e110 f   math.obj
 0001:0011d970       ?matrix_get_origin@math@@YA?AVVector@@ABVmatrix3x4_t@@@Z 1011e970 f   math.obj
 0001:0011da10       ?matrix_set_origin@math@@YAXABVVector@@AAVmatrix3x4_t@@@Z 1011ea10 f   math.obj
 0001:0011da80       ?fast_rsqrt@math@@YAXMPAM@Z 1011ea80 f   math.obj
 0001:0011db90       ?fast_vec_normalize@math@@YAMAAVVector@@@Z 1011eb90 f   math.obj
 0001:0011dc50       ?matrix_copy@math@@YAXABVmatrix3x4_t@@AAV2@@Z 1011ec50 f   math.obj
 0001:0011dca0       ?concat_transforms@math@@YAXABVmatrix3x4_t@@0AAV2@@Z 1011eca0 f   math.obj
 0001:0011e5c0       ?fast_sin@math@@YANN@Z     1011f5c0 f   math.obj
 0001:0011e6f0       ?simple_spline@math@@YAMM@Z 1011f6f0 f   math.obj
 0001:0011e740       ?simple_spline_remap_val_clamped@math@@YAMMMMMM@Z 1011f740 f   math.obj
 0001:0011e860       ?get_offset@netvars@@QAEHPBD0@Z 1011f860 f   netmanager.obj
 0001:0011e8a0       ?get_prop@netvars@@QAEHPBD0PAPAURecvProp@@@Z 1011f8a0 f   netmanager.obj
 0001:0011e900       ?get_prop@netvars@@QAEHPAURecvTable@@PBDPAPAURecvProp@@@Z 1011f900 f   netmanager.obj
 0001:0011ea20       ?get_table@netvars@@AAEPAURecvTable@@PBD@Z 1011fa20 f   netmanager.obj
 0001:0011ebf0       ?hash@fnv@@YAIPBDI@Z       1011fbf0 f i recv.obj
 0001:0011f260       ??0Netvars@@QAE@XZ         10120260 f   recv.obj
 0001:0011f2f0       ?walkTable@Netvars@@AAEX_NPBDPAURecvTable@@I@Z 101202f0 f   recv.obj
 0001:0011f740       ??0?$unordered_map@IP6AXAAUrecvProxyData@@PAX1@ZU?$hash@I@std@@U?$equal_to@I@3@V?$allocator@U?$pair@$$CBIP6AXAAUrecvProxyData@@PAX1@Z@std@@@3@@std@@QAE@XZ 10120740 f i recv.obj
 0001:0011f7c0       ??1?$_Hash_vec@V?$allocator@V?$_List_unchecked_iterator@V?$_List_val@U?$_List_simple_types@U?$pair@$$CBIP6AXAAUrecvProxyData@@PAX1@Z@std@@@std@@@std@@@std@@@std@@@std@@QAE@XZ 101207c0 f i recv.obj
 0001:0011f850       ?clear@?$_Hash@V?$_Umap_traits@IP6AXAAUrecvProxyData@@PAX1@ZV?$_Uhash_compare@IU?$hash@I@std@@U?$equal_to@I@2@@std@@V?$allocator@U?$pair@$$CBIP6AXAAUrecvProxyData@@PAX1@Z@std@@@3@$0A@@std@@@std@@QAEXXZ 10120850 f i recv.obj
 0001:0011f960       ??1?$list@U?$pair@$$CBIP6AXAAUrecvProxyData@@PAX1@Z@std@@V?$allocator@U?$pair@$$CBIP6AXAAUrecvProxyData@@PAX1@Z@std@@@2@@std@@QAE@XZ 10120960 f i recv.obj
 0001:0011f9d0       ??0?$unordered_map@IGU?$hash@I@std@@U?$equal_to@I@2@V?$allocator@U?$pair@$$CBIG@std@@@2@@std@@QAE@XZ 101209d0 f i recv.obj
 0001:0011fa50       ?clear@?$_Hash@V?$_Umap_traits@IGV?$_Uhash_compare@IU?$hash@I@std@@U?$equal_to@I@2@@std@@V?$allocator@U?$pair@$$CBIG@std@@@2@$0A@@std@@@std@@QAEXXZ 10120a50 f i recv.obj
 0001:0011fb60       ?_Tidy@?$_Hash_vec@V?$allocator@V?$_List_unchecked_iterator@V?$_List_val@U?$_List_simple_types@U?$pair@$$CBIP6AXAAUrecvProxyData@@PAX1@Z@std@@@std@@@std@@@std@@@std@@@std@@QAEXXZ 10120b60 f i recv.obj
 0001:0011fc10       ?_Unchecked_erase@?$_Hash@V?$_Umap_traits@IP6AXAAUrecvProxyData@@PAX1@ZV?$_Uhash_compare@IU?$hash@I@std@@U?$equal_to@I@2@@std@@V?$allocator@U?$pair@$$CBIP6AXAAUrecvProxyData@@PAX1@Z@std@@@3@$0A@@std@@@std@@AAEPAU?$_List_node@U?$pair@$$CBIP6AXAAUrecvProxyData@@PAX1@Z@std@@PAX@2@PAU32@QAU32@@Z 10120c10 f i recv.obj
 0001:0011fef0       ??0?$_Hash@V?$_Umap_traits@IP6AXAAUrecvProxyData@@PAX1@ZV?$_Uhash_compare@IU?$hash@I@std@@U?$equal_to@I@2@@std@@V?$allocator@U?$pair@$$CBIP6AXAAUrecvProxyData@@PAX1@Z@std@@@3@$0A@@std@@@std@@IAE@ABV?$_Uhash_compare@IU?$hash@I@std@@U?$equal_to@I@2@@1@ABV?$allocator@U?$pair@$$CBIP6AXAAUrecvProxyData@@PAX1@Z@std@@@1@@Z 10120ef0 f i recv.obj
 0001:00120010       ?_Tidy@?$list@U?$pair@$$CBIP6AXAAUrecvProxyData@@PAX1@Z@std@@V?$allocator@U?$pair@$$CBIP6AXAAUrecvProxyData@@PAX1@Z@std@@@2@@std@@AAEXXZ 10121010 f i recv.obj
 0001:001200c0       ?clear@?$list@U?$pair@$$CBIP6AXAAUrecvProxyData@@PAX1@Z@std@@V?$allocator@U?$pair@$$CBIP6AXAAUrecvProxyData@@PAX1@Z@std@@@2@@std@@QAEXXZ 101210c0 f i recv.obj
 0001:00120160       ?_Unchecked_erase@?$_Hash@V?$_Umap_traits@IGV?$_Uhash_compare@IU?$hash@I@std@@U?$equal_to@I@2@@std@@V?$allocator@U?$pair@$$CBIG@std@@@2@$0A@@std@@@std@@AAEPAU?$_List_node@U?$pair@$$CBIG@std@@PAX@2@PAU32@QAU32@@Z 10121160 f i recv.obj
 0001:00120440       ??0?$_Hash@V?$_Umap_traits@IGV?$_Uhash_compare@IU?$hash@I@std@@U?$equal_to@I@2@@std@@V?$allocator@U?$pair@$$CBIG@std@@@2@$0A@@std@@@std@@IAE@ABV?$_Uhash_compare@IU?$hash@I@std@@U?$equal_to@I@2@@1@ABV?$allocator@U?$pair@$$CBIG@std@@@1@@Z 10121440 f i recv.obj
 0001:00120560       ?clear@?$list@U?$pair@$$CBIG@std@@V?$allocator@U?$pair@$$CBIG@std@@@2@@std@@QAEXXZ 10121560 f i recv.obj
 0001:00120600       ?_Assign_grow@?$_Hash_vec@V?$allocator@V?$_List_unchecked_iterator@V?$_List_val@U?$_List_simple_types@U?$pair@$$CBIP6AXAAUrecvProxyData@@PAX1@Z@std@@@std@@@std@@@std@@@std@@@std@@QAEXIV?$_List_unchecked_iterator@V?$_List_val@U?$_List_simple_types@U?$pair@$$CBIP6AXAAUrecvProxyData@@PAX1@Z@std@@@std@@@std@@@2@@Z 10121600 f i recv.obj
 0001:00120730       ?_Orphan_non_end@?$_List_val@U?$_List_simple_types@U?$pair@$$CBIP6AXAAUrecvProxyData@@PAX1@Z@std@@@std@@@std@@QAEXXZ 10121730 f i recv.obj
 0001:00120730       ?_Orphan_non_end@?$_List_val@U?$_List_simple_types@U?$pair@$$CBIG@std@@@std@@@std@@QAEXXZ 10121730 f i recv.obj
 0001:001207e0       ?_Assign_grow@?$_Hash_vec@V?$allocator@V?$_List_unchecked_iterator@V?$_List_val@U?$_List_simple_types@U?$pair@$$CBIG@std@@@std@@@std@@@std@@@std@@@std@@QAEXIV?$_List_unchecked_iterator@V?$_List_val@U?$_List_simple_types@U?$pair@$$CBIG@std@@@std@@@std@@@2@@Z 101217e0 f i recv.obj
 0001:00120910       ??0?$_List_unchecked_const_iterator@V?$_List_val@U?$_List_simple_types@U?$pair@$$CBIG@std@@@std@@@std@@U_Iterator_base0@2@@std@@QAE@PAU?$_List_node@U?$pair@$$CBIG@std@@PAX@1@PBV?$_List_val@U?$_List_simple_types@U?$pair@$$CBIG@std@@@std@@@1@@Z 10121910 f i recv.obj
 0001:00120910       ??0?$_List_unchecked_const_iterator@V?$_List_val@U?$_List_simple_types@U?$pair@$$CBIP6AXAAUrecvProxyData@@PAX1@Z@std@@@std@@@std@@U_Iterator_base0@2@@std@@QAE@PAU?$_List_node@U?$pair@$$CBIP6AXAAUrecvProxyData@@PAX1@Z@std@@PAX@1@PBV?$_List_val@U?$_List_simple_types@U?$pair@$$CBIP6AXAAUrecvProxyData@@PAX1@Z@std@@@std@@@1@@Z 10121910 f i recv.obj
 0001:00120960       ?_Alloc_sentinel_and_proxy@?$list@U?$pair@$$CBIG@std@@V?$allocator@U?$pair@$$CBIG@std@@@2@@std@@AAEXXZ 10121960 f i recv.obj
 0001:00120960       ?_Alloc_sentinel_and_proxy@?$list@U?$pair@$$CBIP6AXAAUrecvProxyData@@PAX1@Z@std@@V?$allocator@U?$pair@$$CBIP6AXAAUrecvProxyData@@PAX1@Z@std@@@2@@std@@AAEXXZ 10121960 f i recv.obj
 0001:00120a60       ?_Unchecked_erase@?$list@U?$pair@$$CBIP6AXAAUrecvProxyData@@PAX1@Z@std@@V?$allocator@U?$pair@$$CBIP6AXAAUrecvProxyData@@PAX1@Z@std@@@2@@std@@AAEPAU?$_List_node@U?$pair@$$CBIP6AXAAUrecvProxyData@@PAX1@Z@std@@PAX@2@PAU32@QAU32@@Z 10121a60 f i recv.obj
 0001:00120bf0       ?_Unchecked_erase@?$list@U?$pair@$$CBIG@std@@V?$allocator@U?$pair@$$CBIG@std@@@2@@std@@AAEPAU?$_List_node@U?$pair@$$CBIG@std@@PAX@2@PAU32@QAU32@@Z 10121bf0 f i recv.obj
 0001:00120d80       ??$_Hash_representation@I@std@@YAIABI@Z 10121d80 f i recv.obj
 0001:00120dd0       ??C?$CHandle@Vweapon_t@@@@QBEPAVweapon_t@@XZ 10121dd0 f i recv.obj
 0001:00120df0       ??$_Try_emplace@ABI$$V@?$_Hash@V?$_Umap_traits@IP6AXAAUrecvProxyData@@PAX1@ZV?$_Uhash_compare@IU?$hash@I@std@@U?$equal_to@I@2@@std@@V?$allocator@U?$pair@$$CBIP6AXAAUrecvProxyData@@PAX1@Z@std@@@3@$0A@@std@@@std@@IAE?AU?$pair@PAU?$_List_node@U?$pair@$$CBIP6AXAAUrecvProxyData@@PAX1@Z@std@@PAX@std@@_N@1@ABI@Z 10121df0 f i recv.obj
 0001:00121010       ??$_Try_emplace@ABI$$V@?$_Hash@V?$_Umap_traits@IGV?$_Uhash_compare@IU?$hash@I@std@@U?$equal_to@I@2@@std@@V?$allocator@U?$pair@$$CBIG@std@@@2@$0A@@std@@@std@@IAE?AU?$pair@PAU?$_List_node@U?$pair@$$CBIG@std@@PAX@std@@_N@1@ABI@Z 10122010 f i recv.obj
 0001:00121230       ??$?0ABV?$allocator@U?$pair@$$CBIG@std@@@std@@$0A@@?$_Hash_vec@V?$allocator@V?$_List_unchecked_iterator@V?$_List_val@U?$_List_simple_types@U?$pair@$$CBIG@std@@@std@@@std@@@std@@@std@@@std@@QAE@ABV?$allocator@U?$pair@$$CBIG@std@@@1@@Z 10122230 f i recv.obj
 0001:00121230       ??$?0ABV?$allocator@U?$pair@$$CBIP6AXAAUrecvProxyData@@PAX1@Z@std@@@std@@$0A@@?$_Hash_vec@V?$allocator@V?$_List_unchecked_iterator@V?$_List_val@U?$_List_simple_types@U?$pair@$$CBIP6AXAAUrecvProxyData@@PAX1@Z@std@@@std@@@std@@@std@@@std@@@std@@QAE@ABV?$allocator@U?$pair@$$CBIP6AXAAUrecvProxyData@@PAX1@Z@std@@@1@@Z 10122230 f i recv.obj
 0001:001212e0       ??$_Free_non_head@V?$allocator@U?$_List_node@U?$pair@$$CBIP6AXAAUrecvProxyData@@PAX1@Z@std@@PAX@std@@@std@@@?$_List_node@U?$pair@$$CBIP6AXAAUrecvProxyData@@PAX1@Z@std@@PAX@std@@SAXAAV?$allocator@U?$_List_node@U?$pair@$$CBIP6AXAAUrecvProxyData@@PAX1@Z@std@@PAX@std@@@1@PAU01@@Z 101222e0 f i recv.obj
 0001:00121380       ??$uninitialized_fill@PAV?$_List_unchecked_iterator@V?$_List_val@U?$_List_simple_types@U?$pair@$$CBIP6AXAAUrecvProxyData@@PAX1@Z@std@@@std@@@std@@@std@@V12@@std@@YAXQAV?$_List_unchecked_iterator@V?$_List_val@U?$_List_simple_types@U?$pair@$$CBIP6AXAAUrecvProxyData@@PAX1@Z@std@@@std@@@std@@@0@0ABV10@@Z 10122380 f i recv.obj
 0001:00121410       ??$uninitialized_fill@PAV?$_List_unchecked_iterator@V?$_List_val@U?$_List_simple_types@U?$pair@$$CBIG@std@@@std@@@std@@@std@@V12@@std@@YAXQAV?$_List_unchecked_iterator@V?$_List_val@U?$_List_simple_types@U?$pair@$$CBIG@std@@@std@@@std@@@0@0ABV10@@Z 10122410 f i recv.obj
 0001:001214a0       ??$_Construct_in_place@PAU?$_List_node@U?$pair@$$CBIG@std@@PAX@std@@AAPAU12@@std@@YAXAAPAU?$_List_node@U?$pair@$$CBIG@std@@PAX@0@0@Z 101224a0 f i recv.obj
 0001:001214a0       ??$_Construct_in_place@PAU?$_List_node@U?$pair@$$CBIP6AXAAUrecvProxyData@@PAX1@Z@std@@PAX@std@@ABQAU12@@std@@YAXAAPAU?$_List_node@U?$pair@$$CBIP6AXAAUrecvProxyData@@PAX1@Z@std@@PAX@0@ABQAU10@@Z 101224a0 f i recv.obj
 0001:001214a0       ??$_Construct_in_place@PAU?$_List_node@U?$pair@$$CBIG@std@@PAX@std@@ABQAU12@@std@@YAXAAPAU?$_List_node@U?$pair@$$CBIG@std@@PAX@0@ABQAU10@@Z 101224a0 f i recv.obj
 0001:001214a0       ??$_Construct_in_place@PAU?$_List_node@U?$pair@$$CBIP6AXAAUrecvProxyData@@PAX1@Z@std@@PAX@std@@AAPAU12@@std@@YAXAAPAU?$_List_node@U?$pair@$$CBIP6AXAAUrecvProxyData@@PAX1@Z@std@@PAX@0@0@Z 101224a0 f i recv.obj
 0001:00121500       ??1?$_List_node_emplace_op2@V?$allocator@U?$_List_node@U?$pair@$$CBIG@std@@PAX@std@@@std@@@std@@QAE@XZ 10122500 f i recv.obj
 0001:00121500       ??1?$_List_node_emplace_op2@V?$allocator@U?$_List_node@U?$pair@$$CBIP6AXAAUrecvProxyData@@PAX1@Z@std@@PAX@std@@@std@@@std@@QAE@XZ 10122500 f i recv.obj
 0001:001215a0       ?_Rehash_for_1@?$_Hash@V?$_Umap_traits@IP6AXAAUrecvProxyData@@PAX1@ZV?$_Uhash_compare@IU?$hash@I@std@@U?$equal_to@I@2@@std@@V?$allocator@U?$pair@$$CBIP6AXAAUrecvProxyData@@PAX1@Z@std@@@3@$0A@@std@@@std@@IAEXXZ 101225a0 f i recv.obj
 0001:001215e0       ?_Check_rehash_required_1@?$_Hash@V?$_Umap_traits@IGV?$_Uhash_compare@IU?$hash@I@std@@U?$equal_to@I@2@@std@@V?$allocator@U?$pair@$$CBIG@std@@@2@$0A@@std@@@std@@IBE_NXZ 101225e0 f i recv.obj
 0001:001215e0       ?_Check_rehash_required_1@?$_Hash@V?$_Umap_traits@IP6AXAAUrecvProxyData@@PAX1@ZV?$_Uhash_compare@IU?$hash@I@std@@U?$equal_to@I@2@@std@@V?$allocator@U?$pair@$$CBIP6AXAAUrecvProxyData@@PAX1@Z@std@@@3@$0A@@std@@@std@@IBE_NXZ 101225e0 f i recv.obj
 0001:001216c0       ?_Check_max_size@?$_Hash@V?$_Umap_traits@IGV?$_Uhash_compare@IU?$hash@I@std@@U?$equal_to@I@2@@std@@V?$allocator@U?$pair@$$CBIG@std@@@2@$0A@@std@@@std@@IBEXXZ 101226c0 f i recv.obj
 0001:001216c0       ?_Check_max_size@?$_Hash@V?$_Umap_traits@IP6AXAAUrecvProxyData@@PAX1@ZV?$_Uhash_compare@IU?$hash@I@std@@U?$equal_to@I@2@@std@@V?$allocator@U?$pair@$$CBIP6AXAAUrecvProxyData@@PAX1@Z@std@@@3@$0A@@std@@@std@@IBEXXZ 101226c0 f i recv.obj
 0001:00121740       ?_Insert_new_node_before@?$_Hash@V?$_Umap_traits@IGV?$_Uhash_compare@IU?$hash@I@std@@U?$equal_to@I@2@@std@@V?$allocator@U?$pair@$$CBIG@std@@@2@$0A@@std@@@std@@IAEPAU?$_List_node@U?$pair@$$CBIG@std@@PAX@2@IQAU32@0@Z 10122740 f i recv.obj
 0001:00121740       ?_Insert_new_node_before@?$_Hash@V?$_Umap_traits@IP6AXAAUrecvProxyData@@PAX1@ZV?$_Uhash_compare@IU?$hash@I@std@@U?$equal_to@I@2@@std@@V?$allocator@U?$pair@$$CBIP6AXAAUrecvProxyData@@PAX1@Z@std@@@3@$0A@@std@@@std@@IAEPAU?$_List_node@U?$pair@$$CBIP6AXAAUrecvProxyData@@PAX1@Z@std@@PAX@2@IQAU32@0@Z 10122740 f i recv.obj
 0001:00121850       ?_Rehash_for_1@?$_Hash@V?$_Umap_traits@IGV?$_Uhash_compare@IU?$hash@I@std@@U?$equal_to@I@2@@std@@V?$allocator@U?$pair@$$CBIG@std@@@2@$0A@@std@@@std@@IAEXXZ 10122850 f i recv.obj
 0001:00121890       ??1?$_Alloc_construct_ptr@V?$allocator@U?$_List_node@U?$pair@$$CBIG@std@@PAX@std@@@std@@@std@@QAE@XZ 10122890 f i recv.obj
 0001:00121890       ??1?$_Alloc_construct_ptr@V?$allocator@U?$_List_node@U?$pair@$$CBIP6AXAAUrecvProxyData@@PAX1@Z@std@@PAX@std@@@std@@@std@@QAE@XZ 10122890 f i recv.obj
 0001:00121900       ?_Forced_rehash@?$_Hash@V?$_Umap_traits@IP6AXAAUrecvProxyData@@PAX1@ZV?$_Uhash_compare@IU?$hash@I@std@@U?$equal_to@I@2@@std@@V?$allocator@U?$pair@$$CBIP6AXAAUrecvProxyData@@PAX1@Z@std@@@3@$0A@@std@@@std@@IAEXI@Z 10122900 f i recv.obj
 0001:00121f00       ?_Desired_grow_bucket_count@?$_Hash@V?$_Umap_traits@IP6AXAAUrecvProxyData@@PAX1@ZV?$_Uhash_compare@IU?$hash@I@std@@U?$equal_to@I@2@@std@@V?$allocator@U?$pair@$$CBIP6AXAAUrecvProxyData@@PAX1@Z@std@@@3@$0A@@std@@@std@@IBEII@Z 10122f00 f i recv.obj
 0001:00121f00       ?_Desired_grow_bucket_count@?$_Hash@V?$_Umap_traits@IGV?$_Uhash_compare@IU?$hash@I@std@@U?$equal_to@I@2@@std@@V?$allocator@U?$pair@$$CBIG@std@@@2@$0A@@std@@@std@@IBEII@Z 10122f00 f i recv.obj
 0001:00122020       ?_Forced_rehash@?$_Hash@V?$_Umap_traits@IGV?$_Uhash_compare@IU?$hash@I@std@@U?$equal_to@I@2@@std@@V?$allocator@U?$pair@$$CBIG@std@@@2@$0A@@std@@@std@@IAEXI@Z 10123020 f i recv.obj
 0001:00122620       ??$_Fnv1a_append_value@I@std@@YAIIABI@Z 10123620 f i recv.obj
 0001:001226a0       ??$_Find_last@I@?$_Hash@V?$_Umap_traits@IP6AXAAUrecvProxyData@@PAX1@ZV?$_Uhash_compare@IU?$hash@I@std@@U?$equal_to@I@2@@std@@V?$allocator@U?$pair@$$CBIP6AXAAUrecvProxyData@@PAX1@Z@std@@@3@$0A@@std@@@std@@IBE?AU?$_Hash_find_last_result@PAU?$_List_node@U?$pair@$$CBIP6AXAAUrecvProxyData@@PAX1@Z@std@@PAX@std@@@1@ABII@Z 101236a0 f i recv.obj
 0001:001226a0       ??$_Find_last@I@?$_Hash@V?$_Umap_traits@IGV?$_Uhash_compare@IU?$hash@I@std@@U?$equal_to@I@2@@std@@V?$allocator@U?$pair@$$CBIG@std@@@2@$0A@@std@@@std@@IBE?AU?$_Hash_find_last_result@PAU?$_List_node@U?$pair@$$CBIG@std@@PAX@std@@@1@ABII@Z 101236a0 f i recv.obj
 0001:001227b0       ??$?0ABUpiecewise_construct_t@std@@V?$tuple@ABI@1@V?$tuple@$$V@1@@?$_List_node_emplace_op2@V?$allocator@U?$_List_node@U?$pair@$$CBIP6AXAAUrecvProxyData@@PAX1@Z@std@@PAX@std@@@std@@@std@@QAE@AAV?$allocator@U?$_List_node@U?$pair@$$CBIP6AXAAUrecvProxyData@@PAX1@Z@std@@PAX@std@@@1@ABUpiecewise_construct_t@1@$$QAV?$tuple@ABI@1@$$QAV?$tuple@$$V@1@@Z 101237b0 f i recv.obj
 0001:00122880       ??$?0ABUpiecewise_construct_t@std@@V?$tuple@ABI@1@V?$tuple@$$V@1@@?$_List_node_emplace_op2@V?$allocator@U?$_List_node@U?$pair@$$CBIG@std@@PAX@std@@@std@@@std@@QAE@AAV?$allocator@U?$_List_node@U?$pair@$$CBIG@std@@PAX@std@@@1@ABUpiecewise_construct_t@1@$$QAV?$tuple@ABI@1@$$QAV?$tuple@$$V@1@@Z 10123880 f i recv.obj
 0001:00122950       ?_Allocate@?$_Alloc_construct_ptr@V?$allocator@U?$_List_node@U?$pair@$$CBIP6AXAAUrecvProxyData@@PAX1@Z@std@@PAX@std@@@std@@@std@@QAEXXZ 10123950 f i recv.obj
 0001:00122950       ?_Allocate@?$_Alloc_construct_ptr@V?$allocator@U?$_List_node@U?$pair@$$CBIG@std@@PAX@std@@@std@@@std@@QAEXXZ 10123950 f i recv.obj
 0001:001229c0       ??$construct@U?$pair@$$CBIP6AXAAUrecvProxyData@@PAX1@Z@std@@ABUpiecewise_construct_t@2@V?$tuple@ABI@2@V?$tuple@$$V@2@@?$_Default_allocator_traits@V?$allocator@U?$_List_node@U?$pair@$$CBIP6AXAAUrecvProxyData@@PAX1@Z@std@@PAX@std@@@std@@@std@@SAXAAV?$allocator@U?$_List_node@U?$pair@$$CBIP6AXAAUrecvProxyData@@PAX1@Z@std@@PAX@std@@@1@QAU?$pair@$$CBIP6AXAAUrecvProxyData@@PAX1@Z@1@ABUpiecewise_construct_t@1@$$QAV?$tuple@ABI@1@$$QAV?$tuple@$$V@1@@Z 101239c0 f i recv.obj
 0001:00122a20       ??$_Verify_range@V?$_List_unchecked_iterator@V?$_List_val@U?$_List_simple_types@U?$pair@$$CBIP6AXAAUrecvProxyData@@PAX1@Z@std@@@std@@@std@@@std@@@std@@YAXQBV?$_List_unchecked_iterator@V?$_List_val@U?$_List_simple_types@U?$pair@$$CBIP6AXAAUrecvProxyData@@PAX1@Z@std@@@std@@@std@@@0@0@Z 10123a20 f i recv.obj
 0001:00122a20       ??$_Verify_range@V?$_List_unchecked_iterator@V?$_List_val@U?$_List_simple_types@U?$pair@$$CBIG@std@@@std@@@std@@@std@@@std@@YAXQBV?$_List_unchecked_iterator@V?$_List_val@U?$_List_simple_types@U?$pair@$$CBIG@std@@@std@@@std@@@0@0@Z 10123a20 f i recv.obj
 0001:00122ab0       ??$construct@U?$pair@$$CBIG@std@@ABUpiecewise_construct_t@2@V?$tuple@ABI@2@V?$tuple@$$V@2@@?$_Default_allocator_traits@V?$allocator@U?$_List_node@U?$pair@$$CBIG@std@@PAX@std@@@std@@@std@@SAXAAV?$allocator@U?$_List_node@U?$pair@$$CBIG@std@@PAX@std@@@1@QAU?$pair@$$CBIG@1@ABUpiecewise_construct_t@1@$$QAV?$tuple@ABI@1@$$QAV?$tuple@$$V@1@@Z 10123ab0 f i recv.obj
 0001:00122b10       ??$_Construct_in_place@V?$_List_unchecked_iterator@V?$_List_val@U?$_List_simple_types@U?$pair@$$CBIG@std@@@std@@@std@@@std@@ABV12@@std@@YAXAAV?$_List_unchecked_iterator@V?$_List_val@U?$_List_simple_types@U?$pair@$$CBIG@std@@@std@@@std@@@0@ABV10@@Z 10123b10 f i recv.obj
 0001:00122b10       ??$_Construct_in_place@V?$_List_unchecked_iterator@V?$_List_val@U?$_List_simple_types@U?$pair@$$CBIP6AXAAUrecvProxyData@@PAX1@Z@std@@@std@@@std@@@std@@ABV12@@std@@YAXAAV?$_List_unchecked_iterator@V?$_List_val@U?$_List_simple_types@U?$pair@$$CBIP6AXAAUrecvProxyData@@PAX1@Z@std@@@std@@@std@@@0@ABV10@@Z 10123b10 f i recv.obj
 0001:00122b70       ??$?0ABI$$Z$$V@?$pair@$$CBIP6AXAAUrecvProxyData@@PAX1@Z@std@@QAE@Upiecewise_construct_t@1@V?$tuple@ABI@1@V?$tuple@$$V@1@@Z 10123b70 f i recv.obj
 0001:00122bb0       ??$?0ABI$$Z$$V@?$pair@$$CBIG@std@@QAE@Upiecewise_construct_t@1@V?$tuple@ABI@1@V?$tuple@$$V@1@@Z 10123bb0 f i recv.obj
 0001:00122bf0       ??$?0V?$tuple@ABI@std@@V?$tuple@$$V@1@$0A@$$Z$S@?$pair@$$CBIP6AXAAUrecvProxyData@@PAX1@Z@std@@QAE@AAV?$tuple@ABI@1@AAV?$tuple@$$V@1@U?$integer_sequence@I$0A@@1@U?$integer_sequence@I$S@1@@Z 10123bf0 f i recv.obj
 0001:00122c30       ??$?0V?$tuple@ABI@std@@V?$tuple@$$V@1@$0A@$$Z$S@?$pair@$$CBIG@std@@QAE@AAV?$tuple@ABI@1@AAV?$tuple@$$V@1@U?$integer_sequence@I$0A@@1@U?$integer_sequence@I$S@1@@Z 10123c30 f i recv.obj
 0001:00122c70       ?m_rgflCoordinateFrame@entity_t@@QAEABVmatrix3x4_t@@XZ 10123c70 f i util.obj
 0001:00122d20       ?epoch_time@util@@YAHXZ    10123d20 f   util.obj
 0001:00122da0       ?find_pattern@util@@YAIPBD00@Z 10123da0 f   util.obj
 0001:00122f30       ??$emplace_back@U?$pair@D_N@std@@@?$vector@U?$pair@E_N@std@@V?$allocator@U?$pair@E_N@std@@@2@@std@@QAEAAU?$pair@E_N@1@$$QAU?$pair@D_N@1@@Z 10123f30 f i util.obj
 0001:00122fb0       ??$_Emplace_back_with_unused_capacity@U?$pair@D_N@std@@@?$vector@U?$pair@E_N@std@@V?$allocator@U?$pair@E_N@std@@@2@@std@@AAEAAU?$pair@E_N@1@$$QAU?$pair@D_N@1@@Z 10123fb0 f i util.obj
 0001:00123070       ?FindSignature@util@@YA_KPBD0@Z 10124070 f   util.obj
 0001:001232b0       ?is_button_down@util@@YA_NH@Z 101242b0 f   util.obj
 0001:00123430       ?movement_fix@util@@YAXAAVVector@@PAVCUserCmd@@@Z 10124430 f   util.obj
 0001:00123e60       ?find_in_datamap@util@@YAIPAUdatamap_t@@PBD@Z 10124e60 f   util.obj
 0001:00123f90       ?get_bbox@util@@YA_NPAVentity_t@@AAUBox@@_N@Z 10124f90 f   util.obj
 0001:001246a0       ?trace_line@util@@YAXAAVVector@@0IPAVCTraceFilter@@PAVCGameTrace@@@Z 101256a0 f   util.obj
 0001:00124710       ?clip_trace_to_players@util@@YAXPAVIClientEntity@@ABVVector@@1IPAVCTraceFilter@@PAVCGameTrace@@@Z 10125710 f   util.obj
 0001:00124b40       ?RotateMovement@util@@YAXPAVCUserCmd@@M@Z 10125b40 f   util.obj
 0001:00124c40       ?color_modulate@util@@YAXQAMPAVIMaterial@@@Z 10125c40 f   util.obj
 0001:00124d90       ?get_backtrack_matrix@util@@YA_NPAVplayer_t@@PAVmatrix3x4_t@@@Z 10125d90 f   util.obj
 0001:001254b0       ?create_state@util@@YAXPAVc_baseplayeranimationstate@@PAVplayer_t@@@Z 101264b0 f   util.obj
 0001:00125560       ?update_state@util@@YAXPAVc_baseplayeranimationstate@@ABVVector@@@Z 10126560 f   util.obj
 0001:00125660       ?reset_state@util@@YAXPAVc_baseplayeranimationstate@@@Z 10126660 f   util.obj
 0001:00125710       ?copy_command@util@@YAXPAVCUserCmd@@H@Z 10126710 f   util.obj
 0001:00125b50       ?get_interpolation@util@@YAMXZ 10126b50 f   util.obj
 0001:00125fc0       ??H?$reverse_iterator@V?$_Deque_iterator@V?$_Deque_val@U?$_Deque_simple_types@Vadjust_data@@@std@@@std@@@std@@@std@@QBE?AV01@H@Z 10126fc0 f i util.obj
 0001:00126020       ??C?$reverse_iterator@V?$_Deque_iterator@V?$_Deque_val@U?$_Deque_simple_types@Vadjust_data@@@std@@@std@@@std@@@std@@QBEPAVadjust_data@@XZ 10127020 f i util.obj
 0001:00126100       ??1?$vector@U?$pair@E_N@std@@V?$allocator@U?$pair@E_N@std@@@2@@std@@QAE@XZ 10127100 f i util.obj
 0001:00126190       ??0?$reverse_iterator@V?$_Deque_iterator@V?$_Deque_val@U?$_Deque_simple_types@Vadjust_data@@@std@@@std@@@std@@@std@@QAE@V?$_Deque_iterator@V?$_Deque_val@U?$_Deque_simple_types@Vadjust_data@@@std@@@std@@@1@@Z 10127190 f i util.obj
 0001:00126230       ??G?$_Deque_iterator@V?$_Deque_val@U?$_Deque_simple_types@Vadjust_data@@@std@@@std@@@std@@QBE?AV01@H@Z 10127230 f i util.obj
 0001:00126300       ?_Tidy@?$vector@U?$pair@E_N@std@@V?$allocator@U?$pair@E_N@std@@@2@@std@@AAEXXZ 10127300 f i util.obj
 0001:00126400       ??F?$_Deque_const_iterator@V?$_Deque_val@U?$_Deque_simple_types@Vadjust_data@@@std@@@std@@@std@@QAEAAV01@XZ 10127400 f i util.obj
 0001:00126500       ?deallocate@?$allocator@U?$pair@E_N@std@@@std@@QAEXQAU?$pair@E_N@2@I@Z 10127500 f i util.obj
 0001:00126570       ??$duration_cast@V?$duration@_JU?$ratio@$00$0DOI@@std@@@chrono@std@@_JU?$ratio@$00$0JIJGIA@@3@$0A@@chrono@std@@YA?AV?$duration@_JU?$ratio@$00$0DOI@@std@@@01@ABV?$duration@_JU?$ratio@$00$0JIJGIA@@std@@@01@@Z 10127570 f i util.obj
 0001:001266a0       ??$_Emplace_reallocate@U?$pair@D_N@std@@@?$vector@U?$pair@E_N@std@@V?$allocator@U?$pair@E_N@std@@@2@@std@@QAEPAU?$pair@E_N@1@QAU21@$$QAU?$pair@D_N@1@@Z 101276a0 f i util.obj
 0001:00126b70       ??$?9V?$_Deque_iterator@V?$_Deque_val@U?$_Deque_simple_types@Vadjust_data@@@std@@@std@@@std@@V01@@std@@YA_NABV?$reverse_iterator@V?$_Deque_iterator@V?$_Deque_val@U?$_Deque_simple_types@Vadjust_data@@@std@@@std@@@std@@@0@0@Z 10127b70 f i util.obj
 0001:00126bf0       ??$?8V?$_Deque_iterator@V?$_Deque_val@U?$_Deque_simple_types@Vadjust_data@@@std@@@std@@@std@@V01@@std@@YA_NABV?$reverse_iterator@V?$_Deque_iterator@V?$_Deque_val@U?$_Deque_simple_types@Vadjust_data@@@std@@@std@@@std@@@0@0@Z 10127bf0 f i util.obj
 0001:00126d80       ?_Change_array@?$vector@U?$pair@E_N@std@@V?$allocator@U?$pair@E_N@std@@@2@@std@@AAEXQAU?$pair@E_N@2@II@Z 10127d80 f i util.obj
 0001:00126e60       ?_Calculate_growth@?$vector@U?$pair@E_N@std@@V?$allocator@U?$pair@E_N@std@@@2@@std@@ABEII@Z 10127e60 f i util.obj
 0001:00126f10       ?_Compat@?$_Deque_const_iterator@V?$_Deque_val@U?$_Deque_simple_types@Vadjust_data@@@std@@@std@@@std@@QBEXABV12@@Z 10127f10 f i util.obj
 0001:00126fd0       ??$_Uninitialized_move@PAU?$pair@E_N@std@@V?$allocator@U?$pair@E_N@std@@@2@@std@@YAPAU?$pair@E_N@0@QAU10@0PAU10@AAV?$allocator@U?$pair@E_N@std@@@0@@Z 10127fd0 f i util.obj
 0001:00127090       _FT_Add_Default_Modules    10128090 f   freetype:ftinit.obj
 0001:001273c0       _FT_Activate_Size          101283c0 f   freetype:ftbase.obj
 0001:001273f0       _FT_Add_Module             101283f0 f   freetype:ftbase.obj
 0001:00127680       _FT_CMap_New               10128680 f   freetype:ftbase.obj
 0001:00127770       _FT_DivFix                 10128770 f   freetype:ftbase.obj
 0001:00127810       _FT_Done_Face              10128810 f   freetype:ftbase.obj
 0001:00127890       _FT_Done_GlyphSlot         10128890 f   freetype:ftbase.obj
 0001:001278f0       _FT_Done_Library           101288f0 f   freetype:ftbase.obj
 0001:00127a00       _FT_Done_Size              10128a00 f   freetype:ftbase.obj
 0001:00127ab0       _FT_Get_Advance            10128ab0 f   freetype:ftbase.obj
 0001:00127c20       _FT_Get_CMap_Format        10128c20 f   freetype:ftbase.obj
 0001:00127c70       _FT_Get_Char_Index         10128c70 f   freetype:ftbase.obj
 0001:00127ca0       _FT_Get_Glyph_Name         10128ca0 f   freetype:ftbase.obj
 0001:00127d50       _FT_Get_Module             10128d50 f   freetype:ftbase.obj
 0001:00127dc0       _FT_Get_Module_Interface   10128dc0 f   freetype:ftbase.obj
 0001:00127de0       _FT_Get_Next_Char          10128de0 f   freetype:ftbase.obj
 0001:00127e40       _FT_GlyphLoader_Add        10128e40 f   freetype:ftbase.obj
 0001:00127fd0       _FT_GlyphLoader_CheckPoints 10128fd0 f   freetype:ftbase.obj
 0001:00128150       _FT_GlyphLoader_CheckSubGlyphs 10129150 f   freetype:ftbase.obj
 0001:001281b0       _FT_GlyphLoader_CreateExtra 101291b0 f   freetype:ftbase.obj
 0001:00128250       _FT_GlyphLoader_Prepare    10129250 f   freetype:ftbase.obj
 0001:001282b0       _FT_GlyphLoader_Reset      101292b0 f   freetype:ftbase.obj
 0001:00128370       _FT_GlyphLoader_Rewind     10129370 f   freetype:ftbase.obj
 0001:001283a0       _FT_Hypot                  101293a0 f   freetype:ftbase.obj
 0001:00128410       _FT_List_Add               10129410 f   freetype:ftbase.obj
 0001:00128440       _FT_List_Finalize          10129440 f   freetype:ftbase.obj
 0001:001284a0       _FT_List_Find              101294a0 f   freetype:ftbase.obj
 0001:001284d0       _FT_List_Iterate           101294d0 f   freetype:ftbase.obj
 0001:00128520       _FT_List_Remove            10129520 f   freetype:ftbase.obj
 0001:00128550       _FT_Load_Glyph             10129550 f   freetype:ftbase.obj
 0001:00128c30       _FT_MSB                    10129c30 f   freetype:ftbase.obj
 0001:00128ca0       _FT_Match_Size             10129ca0 f   freetype:ftbase.obj
 0001:00128d90       _FT_Matrix_Invert          10129d90 f   freetype:ftbase.obj
 0001:00128e60       _FT_Matrix_Multiply_Scaled 10129e60 f   freetype:ftbase.obj
 0001:00128f50       _FT_MulDiv                 10129f50 f   freetype:ftbase.obj
 0001:00129020       _FT_MulDiv_No_Round        1012a020 f   freetype:ftbase.obj
 0001:001290e0       _FT_New_GlyphSlot          1012a0e0 f   freetype:ftbase.obj
 0001:00129230       _FT_New_Library            1012a230 f   freetype:ftbase.obj
 0001:001292b0       _FT_New_Memory_Face        1012a2b0 f   freetype:ftbase.obj
 0001:00129300       _FT_New_Size               1012a300 f   freetype:ftbase.obj
 0001:00129420       _FT_Open_Face              1012a420 f   freetype:ftbase.obj
 0001:00129440       _FT_Outline_Decompose      1012a440 f   freetype:ftbase.obj
 0001:00129830       _FT_Outline_EmboldenXY     1012a830 f   freetype:ftbase.obj
 0001:00129c60       _FT_Outline_Get_CBox       1012ac60 f   freetype:ftbase.obj
 0001:00129d10       _FT_Outline_Get_Orientation 1012ad10 f   freetype:ftbase.obj
 0001:00129f30       _FT_Outline_Transform      1012af30 f   freetype:ftbase.obj
 0001:0012a070       _FT_Outline_Translate      1012b070 f   freetype:ftbase.obj
 0001:0012a0b0       _FT_Raccess_Get_DataOffsets 1012b0b0 f   freetype:ftbase.obj
 0001:0012a400       _FT_Raccess_Get_HeaderInfo 1012b400 f   freetype:ftbase.obj
 0001:0012a6d0       _FT_Remove_Module          1012b6d0 f   freetype:ftbase.obj
 0001:0012a830       _FT_Render_Glyph           1012b830 f   freetype:ftbase.obj
 0001:0012a920       _FT_Request_Metrics        1012b920 f   freetype:ftbase.obj
 0001:0012abb0       _FT_Request_Size           1012bbb0 f   freetype:ftbase.obj
 0001:0012adc0       _FT_RoundFix               1012bdc0 f   freetype:ftbase.obj
 0001:0012ade0       _FT_Select_Charmap         1012bde0 f   freetype:ftbase.obj
 0001:0012ae40       _FT_Select_Metrics         1012be40 f   freetype:ftbase.obj
 0001:0012aee0       _FT_Select_Size            1012bee0 f   freetype:ftbase.obj
 0001:0012afd0       _FT_Set_Charmap            1012bfd0 f   freetype:ftbase.obj
 0001:0012b030       _FT_Stream_Close           1012c030 f   freetype:ftbase.obj
 0001:0012b050       _FT_Stream_EnterFrame      1012c050 f   freetype:ftbase.obj
 0001:0012b110       _FT_Stream_ExitFrame       1012c110 f   freetype:ftbase.obj
 0001:0012b150       _FT_Stream_ExtractFrame    1012c150 f   freetype:ftbase.obj
 0001:0012b180       _FT_Stream_Free            1012c180 f   freetype:ftbase.obj
 0001:0012b1b0       _FT_Stream_GetChar         1012c1b0 f   freetype:ftbase.obj
 0001:0012b1d0       _FT_Stream_GetULong        1012c1d0 f   freetype:ftbase.obj
 0001:0012b210       _FT_Stream_GetULongLE      1012c210 f   freetype:ftbase.obj
 0001:0012b250       _FT_Stream_GetUShort       1012c250 f   freetype:ftbase.obj
 0001:0012b290       _FT_Stream_GetUShortLE     1012c290 f   freetype:ftbase.obj
 0001:0012b2d0       _FT_Stream_New             1012c2d0 f   freetype:ftbase.obj
 0001:0012b3b0       _FT_Stream_OpenMemory      1012c3b0 f   freetype:ftbase.obj
 0001:0012b3e0       _FT_Stream_Pos             1012c3e0 f   freetype:ftbase.obj
 0001:0012b3f0       _FT_Stream_Read            1012c3f0 f   freetype:ftbase.obj
 0001:0012b470       _FT_Stream_ReadAt          1012c470 f   freetype:ftbase.obj
 0001:0012b4f0       _FT_Stream_ReadChar        1012c4f0 f   freetype:ftbase.obj
 0001:0012b550       _FT_Stream_ReadFields      1012c550 f   freetype:ftbase.obj
 0001:0012b780       _FT_Stream_ReadULong       1012c780 f   freetype:ftbase.obj
 0001:0012b800       _FT_Stream_ReadULongLE     1012c800 f   freetype:ftbase.obj
 0001:0012b880       _FT_Stream_ReadUOffset     1012c880 f   freetype:ftbase.obj
 0001:0012b8f0       _FT_Stream_ReadUShort      1012c8f0 f   freetype:ftbase.obj
 0001:0012b960       _FT_Stream_ReadUShortLE    1012c960 f   freetype:ftbase.obj
 0001:0012b9d0       _FT_Stream_ReleaseFrame    1012c9d0 f   freetype:ftbase.obj
 0001:0012ba10       _FT_Stream_Seek            1012ca10 f   freetype:ftbase.obj
 0001:0012ba50       _FT_Stream_Skip            1012ca50 f   freetype:ftbase.obj
 0001:0012baa0       _FT_Stream_TryRead         1012caa0 f   freetype:ftbase.obj
 0001:0012bb00       _FT_Vector_NormLen         1012cb00 f   freetype:ftbase.obj
 0001:0012bc90       _FT_Vector_Transform       1012cc90 f   freetype:ftbase.obj
 0001:0012bda0       _FT_Vector_Transform_Scaled 1012cda0 f   freetype:ftbase.obj
 0001:0012c800       _ft_corner_is_flat         1012d800 f   freetype:ftbase.obj
 0001:0012c8c0       _ft_corner_orientation     1012d8c0 f   freetype:ftbase.obj
 0001:0012ca70       _ft_glyphslot_alloc_bitmap 1012da70 f   freetype:ftbase.obj
 0001:0012cb90       _ft_glyphslot_free_bitmap  1012db90 f   freetype:ftbase.obj
 0001:0012cbe0       _ft_glyphslot_preset_bitmap 1012dbe0 f   freetype:ftbase.obj
 0001:0012cd50       _ft_glyphslot_set_bitmap   1012dd50 f   freetype:ftbase.obj
 0001:0012cdb0       _ft_hash_num_init          1012ddb0 f   freetype:ftbase.obj
 0001:0012ce20       _ft_hash_str_insert        1012de20 f   freetype:ftbase.obj
 0001:0012ce20       _ft_hash_num_insert        1012de20 f   freetype:ftbase.obj
 0001:0012ce30       _ft_hash_str_lookup        1012de30 f   freetype:ftbase.obj
 0001:0012ce30       _ft_hash_num_lookup        1012de30 f   freetype:ftbase.obj
 0001:0012ce50       _ft_hash_str_free          1012de50 f   freetype:ftbase.obj
 0001:0012ceb0       _ft_hash_str_init          1012deb0 f   freetype:ftbase.obj
 0001:0012d110       _ft_mem_alloc              1012e110 f   freetype:ftbase.obj
 0001:0012d170       _ft_mem_free               1012e170 f   freetype:ftbase.obj
 0001:0012d190       _ft_mem_qalloc             1012e190 f   freetype:ftbase.obj
 0001:0012d1e0       _ft_mem_qrealloc           1012e1e0 f   freetype:ftbase.obj
 0001:0012d2d0       _ft_mem_realloc            1012e2d0 f   freetype:ftbase.obj
 0001:0012d3d0       _ft_mem_strcpyn            1012e3d0 f   freetype:ftbase.obj
 0001:0012d400       _ft_mem_strdup             1012e400 f   freetype:ftbase.obj
 0001:0012d480       _ft_module_get_service     1012e480 f   freetype:ftbase.obj
 0001:0012dd10       _ft_service_list_lookup    1012ed10 f   freetype:ftbase.obj
 0001:0012ddd0       _ft_synthesize_vertical_metrics 1012edd0 f   freetype:ftbase.obj
 0001:0012dfe0       _ft_validator_error        1012efe0 f   freetype:ftbase.obj
 0001:0012e000       _ft_validator_init         1012f000 f   freetype:ftbase.obj
 0001:0012ea60       _ps_property_get           1012fa60 f   freetype:ftbase.obj
 0001:0012eb60       _ps_property_set           1012fb60 f   freetype:ftbase.obj
 0001:0012f1b0       _FT_GlyphSlot_Embolden     101301b0 f   freetype:ftsynth.obj
 0001:0012f2b0       _FT_GlyphSlot_Oblique      101302b0 f   freetype:ftsynth.obj
 0001:00136c70       _af_shaper_get_cluster     10137c70 f   freetype:autofit.obj
 0001:0013cac0       _TT_RunIns                 1013dac0 f   freetype:truetype.obj
 0001:00165280       _ps_hints_apply            10166280 f   freetype:pshinter.obj
 0001:00178840       _FT_Stream_Open            10179840 f   freetype:ftsystem.obj
 0001:00178960       _FT_Bitmap_Convert         10179960 f   freetype:ftbitmap.obj
 0001:00178df0       _FT_Bitmap_Copy            10179df0 f   freetype:ftbitmap.obj
 0001:00178f50       _FT_Bitmap_Done            10179f50 f   freetype:ftbitmap.obj
 0001:00178fa0       _FT_Bitmap_Embolden        10179fa0 f   freetype:ftbitmap.obj
 0001:00179280       _FT_Bitmap_Init            1017a280 f   freetype:ftbitmap.obj
 0001:001792a0       _FT_GlyphSlot_Own_Bitmap   1017a2a0 f   freetype:ftbitmap.obj
 0001:00179570       _FT_Gzip_Uncompress        1017a570 f   freetype:ftgzip.obj
 0001:00179660       _FT_Stream_OpenGzip        1017a660 f   freetype:ftgzip.obj
 0001:0017bfc0       _FT_Stream_OpenLZW         1017cfc0 f   freetype:ftlzw.obj
 0001:0017c8f0       _ft_lzwstate_io            1017d8f0 f   freetype:ftlzw.obj
 0001:0017ccad       ?_Xbad_alloc@std@@YAXXZ    1017dcad f   msvcprtd:MSVCP140D.dll
 0001:0017ccb3       ?_Lock@?$basic_streambuf@DU?$char_traits@D@std@@@std@@UAEXXZ 1017dcb3 f   msvcprtd:MSVCP140D.dll
 0001:0017ccb9       ?_Unlock@?$basic_streambuf@DU?$char_traits@D@std@@@std@@UAEXXZ 1017dcb9 f   msvcprtd:MSVCP140D.dll
 0001:0017ccbf       ?showmanyc@?$basic_streambuf@DU?$char_traits@D@std@@@std@@MAE_JXZ 1017dcbf f   msvcprtd:MSVCP140D.dll
 0001:0017ccc5       ?uflow@?$basic_streambuf@DU?$char_traits@D@std@@@std@@MAEHXZ 1017dcc5 f   msvcprtd:MSVCP140D.dll
 0001:0017cccb       ?xsgetn@?$basic_streambuf@DU?$char_traits@D@std@@@std@@MAE_JPAD_J@Z 1017dccb f   msvcprtd:MSVCP140D.dll
 0001:0017ccd1       ?xsputn@?$basic_streambuf@DU?$char_traits@D@std@@@std@@MAE_JPBD_J@Z 1017dcd1 f   msvcprtd:MSVCP140D.dll
 0001:0017ccd7       ?setbuf@?$basic_streambuf@DU?$char_traits@D@std@@@std@@MAEPAV12@PAD_J@Z 1017dcd7 f   msvcprtd:MSVCP140D.dll
 0001:0017ccdd       ?sync@?$basic_streambuf@DU?$char_traits@D@std@@@std@@MAEHXZ 1017dcdd f   msvcprtd:MSVCP140D.dll
 0001:0017cce3       ?imbue@?$basic_streambuf@DU?$char_traits@D@std@@@std@@MAEXABVlocale@2@@Z 1017dce3 f   msvcprtd:MSVCP140D.dll
 0001:0017ccf0       ??0_Fac_node@std@@QAE@PAU01@PAV_Facet_base@1@@Z 1017dcf0 f i msvcprtd:locale0_implib.obj
 0001:0017cd20       ??1_Fac_node@std@@QAE@XZ   1017dd20 f i msvcprtd:locale0_implib.obj
 0001:0017cd90       ??1_Fac_tidy_reg_t@std@@QAE@XZ 1017dd90 f i msvcprtd:locale0_implib.obj
 0001:0017cde0       ??2_Fac_node@std@@SAPAXI@Z 1017dde0 f i msvcprtd:locale0_implib.obj
 0001:0017ce30       ??3_Fac_node@std@@SAXPAX@Z 1017de30 f i msvcprtd:locale0_implib.obj
 0001:0017ce50       ??_G_Fac_node@std@@QAEPAXI@Z 1017de50 f i msvcprtd:locale0_implib.obj
 0001:0017cea0       ?_Facet_Register@std@@YAXPAV_Facet_base@1@@Z 1017dea0 f   msvcprtd:locale0_implib.obj
 0001:0017d050       __Init_thread_abort        1017e050 f   MSVCRTD:thread_safe_statics.obj
 0001:0017d070       __Init_thread_footer       1017e070 f   MSVCRTD:thread_safe_statics.obj
 0001:0017d0c0       __Init_thread_header       1017e0c0 f   MSVCRTD:thread_safe_statics.obj
 0001:0017d130       __Init_thread_lock         1017e130 f   MSVCRTD:thread_safe_statics.obj
 0001:0017d140       __Init_thread_notify       1017e140 f   MSVCRTD:thread_safe_statics.obj
 0001:0017d190       __Init_thread_unlock       1017e190 f   MSVCRTD:thread_safe_statics.obj
 0001:0017d1a0       __Init_thread_wait         1017e1a0 f   MSVCRTD:thread_safe_statics.obj
 0001:0017d230       ??2@YAPAXI@Z               1017e230 f   MSVCRTD:new_scalar.obj
 0001:0017d280       ?configure_argv@__scrt_narrow_argv_policy@@SAHXZ 1017e280 f i MSVCRTD:utility.obj
 0001:0017d330       ?initialize_environment@__scrt_narrow_environment_policy@@SAHXZ 1017e330 f i MSVCRTD:utility.obj
 0001:0017d3b0       _NtCurrentTeb              1017e3b0 f i MSVCRTD:utility.obj
 0001:0017d3c0       ___scrt_acquire_startup_lock 1017e3c0 f   MSVCRTD:utility.obj
 0001:0017d410       ___scrt_dllmain_after_initialize_c 1017e410 f   MSVCRTD:utility.obj
 0001:0017d440       ___scrt_dllmain_before_initialize_c 1017e440 f   MSVCRTD:utility.obj
 0001:0017d460       ___scrt_dllmain_crt_thread_attach 1017e460 f   MSVCRTD:utility.obj
 0001:0017d490       ___scrt_dllmain_crt_thread_detach 1017e490 f   MSVCRTD:utility.obj
 0001:0017d4b0       ___scrt_dllmain_exception_filter 1017e4b0 f   MSVCRTD:utility.obj
 0001:0017d500       ___scrt_dllmain_uninitialize_c 1017e500 f   MSVCRTD:utility.obj
 0001:0017d530       ___scrt_dllmain_uninitialize_critical 1017e530 f   MSVCRTD:utility.obj
 0001:0017d550       ___scrt_initialize_crt     1017e550 f   MSVCRTD:utility.obj
 0001:0017d5a0       ___scrt_initialize_onexit_tables 1017e5a0 f   MSVCRTD:utility.obj
 0001:0017d680       ___scrt_is_nonwritable_in_current_image 1017e680 f   MSVCRTD:utility.obj
 0001:0017d7b0       ___scrt_release_startup_lock 1017e7b0 f   MSVCRTD:utility.obj
 0001:0017d7e0       ___scrt_uninitialize_crt   1017e7e0 f   MSVCRTD:utility.obj
 0001:0017d820       __onexit                   1017e820 f   MSVCRTD:utility.obj
 0001:0017d890       _atexit                    1017e890 f   MSVCRTD:utility.obj
 0001:0017d8c0       ??_V@YAXPAX@Z              1017e8c0 f   MSVCRTD:delete_array.obj
 0001:0017d8c0       ??3@YAXPAXI@Z              1017e8c0 f   MSVCRTD:delete_scalar_size.obj
 0001:0017d8e0       ??1type_info@@UAE@XZ       1017e8e0 f   MSVCRTD:std_type_info_static.obj
 0001:0017d900       ??_Etype_info@@UAEPAXI@Z   1017e900 f i MSVCRTD:std_type_info_static.obj
 0001:0017d900       ??_Gtype_info@@UAEPAXI@Z   1017e900 f i MSVCRTD:std_type_info_static.obj
 0001:0017d930       ??_M@YGXPAXIIP6EX0@Z@Z     1017e930 f   MSVCRTD:ehvecdtr.obj
 0001:0017da50       ?__ArrayUnwind@@YGXPAXIIP6EX0@Z@Z 1017ea50 f   MSVCRTD:ehvecdtr.obj
 0001:0017db00       ??_L@YGXPAXIIP6EX0@Z1@Z    1017eb00 f   MSVCRTD:ehvecctr.obj
 0001:0017dbc0       ??_U@YAPAXI@Z              1017ebc0 f   MSVCRTD:new_array.obj
 0001:0017e0b0       __DllMainCRTStartup@12     1017f0b0 f   MSVCRTD:dll_dllmain.obj
 0001:0017e0e0       ??3@YAXPAX@Z               1017f0e0 f   MSVCRTD:delete_scalar.obj
 0001:0017e100       ___raise_securityfailure   1017f100 f   MSVCRTD:gs_report.obj
 0001:0017e130       ___report_gsfailure        1017f130 f   MSVCRTD:gs_report.obj
 0001:0017e240       @__security_check_cookie@4 1017f240 f   MSVCRTD:secchk.obj
 0001:0017e260       __alloca_probe             1017f260 f   MSVCRTD:chkstk.obj
 0001:0017e260       __chkstk                   1017f260 f   MSVCRTD:chkstk.obj
 0001:0017e290       ___isa_available_init      1017f290 f   MSVCRTD:cpu_disp.obj
 0001:0017e5d0       ___scrt_fastfail           1017f5d0 f   MSVCRTD:utility_desktop.obj
 0001:0017e710       __crt_debugger_hook        1017f710 f   MSVCRTD:utility_desktop.obj
 0001:0017e720       ??0bad_alloc@std@@QAE@XZ   1017f720 f i MSVCRTD:throw_bad_alloc.obj
 0001:0017e750       ?__scrt_throw_std_bad_alloc@@YAXXZ 1017f750 f   MSVCRTD:throw_bad_alloc.obj
 0001:0017e770       ?__scrt_throw_std_bad_array_new_length@@YAXXZ 1017f770 f   MSVCRTD:throw_bad_alloc.obj
 0001:0017e790       __get_startup_argv_mode    1017f790 f   MSVCRTD:argv_mode.obj
 0001:0017e7a0       ___scrt_is_ucrt_dll_in_use 1017f7a0 f   MSVCRTD:ucrt_detection.obj
 0001:0017e7d0       __except_handler4          1017f7d0 f   MSVCRTD:chandler4gs.obj
 0001:0017e880       ___security_init_cookie    1017f880 f   MSVCRTD:gs_support.obj
 0001:0017e900       ?__scrt_initialize_type_info@@YAXXZ 1017f900 f   MSVCRTD:tncleanup.obj
 0001:0017e910       ?__scrt_uninitialize_type_info@@YAXXZ 1017f910 f   MSVCRTD:tncleanup.obj
 0001:0017e930       ___scrt_initialize_default_local_stdio_options 1017f930 f   MSVCRTD:default_local_stdio_options.obj
 0001:0017e970       ___scrt_get_dyn_tls_init_callback 1017f970 f   MSVCRTD:dyn_tls_init.obj
 0001:0017e980       __RTC_Initialize           1017f980 f   MSVCRTD:initsect.obj
 0001:0017e9b0       __RTC_Terminate            1017f9b0 f   MSVCRTD:initsect.obj
 0001:0017e9de       ___CxxFrameHandler3        1017f9de f   vcruntimed:VCRUNTIME140D.dll
 0001:0017e9e4       __purecall                 1017f9e4 f   vcruntimed:VCRUNTIME140D.dll
 0001:0017e9ea       ___std_terminate           1017f9ea f   vcruntimed:VCRUNTIME140D.dll
 0001:0017e9f0       _strstr                    1017f9f0 f   vcruntimed:VCRUNTIME140D.dll
 0001:0017e9f6       _memset                    1017f9f6 f   vcruntimed:VCRUNTIME140D.dll
 0001:0017e9fc       _memcmp                    1017f9fc f   vcruntimed:VCRUNTIME140D.dll
 0001:0017ea02       _memcpy                    1017fa02 f   vcruntimed:VCRUNTIME140D.dll
 0001:0017ea08       _strrchr                   1017fa08 f   vcruntimed:VCRUNTIME140D.dll
 0001:0017ea0e       _longjmp                   1017fa0e f   vcruntimed:VCRUNTIME140D.dll
 0001:0017ea14       _memmove                   1017fa14 f   vcruntimed:VCRUNTIME140D.dll
 0001:0017ea1a       _memchr                    1017fa1a f   vcruntimed:VCRUNTIME140D.dll
 0001:0017ea20       __setjmp3                  1017fa20 f   vcruntimed:VCRUNTIME140D.dll
 0001:0017ea26       ___current_exception       1017fa26 f   vcruntimed:VCRUNTIME140D.dll
 0001:0017ea2c       ___current_exception_context 1017fa2c f   vcruntimed:VCRUNTIME140D.dll
 0001:0017ea32       __CxxThrowException@8      1017fa32 f   vcruntimed:VCRUNTIME140D.dll
 0001:0017ea38       __except_handler4_common   1017fa38 f   vcruntimed:VCRUNTIME140D.dll
 0001:0017ea3e       ___std_type_info_destroy_list 1017fa3e f   vcruntimed:VCRUNTIME140D.dll
 0001:0017ea44       _fclose                    1017fa44 f   ucrtd:ucrtbased.dll
 0001:0017ea4a       _fread                     1017fa4a f   ucrtd:ucrtbased.dll
 0001:0017ea50       _ftell                     1017fa50 f   ucrtd:ucrtbased.dll
 0001:0017ea56       _fseek                     1017fa56 f   ucrtd:ucrtbased.dll
 0001:0017ea5c       _qsort                     1017fa5c f   ucrtd:ucrtbased.dll
 0001:0017ea62       _strncpy                   1017fa62 f   ucrtd:ucrtbased.dll
 0001:0017ea68       _malloc                    1017fa68 f   ucrtd:ucrtbased.dll
 0001:0017ea6e       _strncmp                   1017fa6e f   ucrtd:ucrtbased.dll
 0001:0017ea74       _fopen                     1017fa74 f   ucrtd:ucrtbased.dll
 0001:0017ea7a       _strtol                    1017fa7a f   ucrtd:ucrtbased.dll
 0001:0017ea80       __free_dbg                 1017fa80 f   ucrtd:ucrtbased.dll
 0001:0017ea86       __CrtDbgReportW            1017fa86 f   ucrtd:ucrtbased.dll
 0001:0017ea8c       __callnewh                 1017fa8c f   ucrtd:ucrtbased.dll
 0001:0017ea92       __seh_filter_dll           1017fa92 f   ucrtd:ucrtbased.dll
 0001:0017ea98       __configure_narrow_argv    1017fa98 f   ucrtd:ucrtbased.dll
 0001:0017ea9e       __initialize_narrow_environment 1017fa9e f   ucrtd:ucrtbased.dll
 0001:0017eaa4       __initialize_onexit_table  1017faa4 f   ucrtd:ucrtbased.dll
 0001:0017eaaa       __register_onexit_function 1017faaa f   ucrtd:ucrtbased.dll
 0001:0017eab0       __execute_onexit_table     1017fab0 f   ucrtd:ucrtbased.dll
 0001:0017eab6       __crt_atexit               1017fab6 f   ucrtd:ucrtbased.dll
 0001:0017eabc       __cexit                    1017fabc f   ucrtd:ucrtbased.dll
 0001:0017eac2       _terminate                 1017fac2 f   ucrtd:ucrtbased.dll
 0001:0017eac8       __initterm                 1017fac8 f   ucrtd:ucrtbased.dll
 0001:0017eace       __initterm_e               1017face f   ucrtd:ucrtbased.dll
 0001:0017ead4       _IsProcessorFeaturePresent@4 1017fad4 f   kernel32:KERNEL32.dll
 0001:0017eae0       ___acrt_thread_detach      1017fae0 f   MSVCRTD:ucrt_stubs.obj
 0001:0017eae0       ___vcrt_uninitialize_critical 1017fae0 f   MSVCRTD:ucrt_stubs.obj
 0001:0017eae0       ___acrt_thread_attach      1017fae0 f   MSVCRTD:ucrt_stubs.obj
 0001:0017eae0       ___scrt_stub_for_acrt_thread_attach 1017fae0 f   MSVCRTD:ucrt_stubs.obj
 0001:0017eae0       ___acrt_uninitialize       1017fae0 f   MSVCRTD:ucrt_stubs.obj
 0001:0017eae0       ___vcrt_thread_attach      1017fae0 f   MSVCRTD:ucrt_stubs.obj
 0001:0017eae0       ___vcrt_uninitialize       1017fae0 f   MSVCRTD:ucrt_stubs.obj
 0001:0017eae0       ___vcrt_initialize         1017fae0 f   MSVCRTD:ucrt_stubs.obj
 0001:0017eae0       ___vcrt_thread_detach      1017fae0 f   MSVCRTD:ucrt_stubs.obj
 0001:0017eae0       ___acrt_uninitialize_critical 1017fae0 f   MSVCRTD:ucrt_stubs.obj
 0001:0017eae0       ___scrt_stub_for_acrt_uninitialize_critical 1017fae0 f   MSVCRTD:ucrt_stubs.obj
 0001:0017eae0       ___scrt_stub_for_acrt_thread_detach 1017fae0 f   MSVCRTD:ucrt_stubs.obj
 0001:0017eae0       ___scrt_stub_for_acrt_initialize 1017fae0 f   MSVCRTD:ucrt_stubs.obj
 0001:0017eae0       ___scrt_stub_for_acrt_uninitialize 1017fae0 f   MSVCRTD:ucrt_stubs.obj
 0001:0017eae0       ___acrt_initialize         1017fae0 f   MSVCRTD:ucrt_stubs.obj
 0001:0017eaf0       __is_c_termination_complete 1017faf0 f   MSVCRTD:ucrt_stubs.obj
 0001:0017eaf0       ___scrt_stub_for_is_c_termination_complete 1017faf0 f   MSVCRTD:ucrt_stubs.obj
 0001:0017eb00       __filter_x86_sse2_floating_point_exception_default 1017fb00 f   MSVCRTD:x86_exception_filter.obj
 0001:0017eb00       __filter_x86_sse2_floating_point_exception 1017fb00 f   MSVCRTD:x86_exception_filter.obj
 0001:0017ec40       @__CheckForDebuggerJustMyCode@4 1017fc40 f   MSVCRTD:debugger_jmc.obj
 0001:0017ec80       __alldiv                   1017fc80 f   MSVCRTD:lldiv.obj
 0001:0017ed30       __allmul                   1017fd30 f   MSVCRTD:llmul.obj
 0001:0017ed70       __alloca_probe_16          1017fd70 f   MSVCRTD:alloca16.obj
 0001:0017ed86       __alloca_probe_8           1017fd86     MSVCRTD:alloca16.obj
 0001:0017eda0       __allrem                   1017fda0 f   MSVCRTD:llrem.obj
 0001:0017ee60       __allshl                   1017fe60 f   MSVCRTD:llshl.obj
 0001:0017ee80       __aulldiv                  1017fe80 f   MSVCRTD:ulldiv.obj
 0001:0017eef0       __ftoui3                   1017fef0 f   MSVCRTD:ftol3.obj
 0001:0017ef36       __ftoul3                   1017ff36 f   MSVCRTD:ftol3.obj
 0001:0017efa8       __ftol3                    1017ffa8 f   MSVCRTD:ftol3.obj
 0001:0017f015       __dtoui3                   10180015 f   MSVCRTD:ftol3.obj
 0001:0017f089       __dtoul3                   10180089 f   MSVCRTD:ftol3.obj
 0001:0017f12b       __dtol3                    1018012b f   MSVCRTD:ftol3.obj
 0001:0017f1e0       __ultod3                   101801e0 f   MSVCRTD:ftol3.obj
 0001:0017f240       __ltod3                    10180240 f   MSVCRTD:ftol3.obj
 0001:0017f290       __ftol2_sse_excpt          10180290     MSVCRTD:ftol2.obj
 0001:0017f290       __ftoi2                    10180290 f   MSVCRTD:ftol2.obj
 0001:0017f290       __ftol2_sse                10180290     MSVCRTD:ftol2.obj
 0001:0017f310       __ftoui2                   10180310 f   MSVCRTD:ftol2.obj
 0001:0017f3c0       __ftol2                    101803c0 f   MSVCRTD:ftol2.obj
 0001:0017f470       __ftoul2                   10180470 f   MSVCRTD:ftol2.obj
 0001:0017f529       __CIatan2                  10180529 f   ucrtd:ucrtbased.dll
 0001:0017f52f       __CIfmod                   1018052f f   ucrtd:ucrtbased.dll
 0001:0017f535       __fdclass                  10180535 f   ucrtd:ucrtbased.dll
 0001:0017f53b       __libm_sse2_acos_precise   1018053b f   ucrtd:ucrtbased.dll
 0001:0017f541       __libm_sse2_atan_precise   10180541 f   ucrtd:ucrtbased.dll
 0001:0017f547       __libm_sse2_cos_precise    10180547 f   ucrtd:ucrtbased.dll
 0001:0017f54d       __libm_sse2_exp_precise    1018054d f   ucrtd:ucrtbased.dll
 0001:0017f553       __libm_sse2_pow_precise    10180553 f   ucrtd:ucrtbased.dll
 0001:0017f559       __libm_sse2_sin_precise    10180559 f   ucrtd:ucrtbased.dll
 0001:0017f55f       __libm_sse2_sqrt_precise   1018055f f   ucrtd:ucrtbased.dll
 0001:0017f565       __libm_sse2_tan_precise    10180565 f   ucrtd:ucrtbased.dll
 0001:0017f56b       _ceil                      1018056b f   ucrtd:ucrtbased.dll
 0001:0017f571       _floor                     10180571 f   ucrtd:ucrtbased.dll
 0001:00184530       ??__Finstance@?1??get@netvars@@SAAAV1@XZ@YAXXZ 10185530 f i autowall.obj
 0001:00184560       ??__Finst@?1??get@?$singleton@Vengineprediction@@@@SAAAVengineprediction@@XZ@YAXXZ 10185560 f i slowwalk.obj
 0001:00184590       ??__Finst@?1??get@?$singleton@Vkey_binds@@@@SAAAVkey_binds@@XZ@YAXXZ 10185590 f i local_animations.obj
 0001:001845a0       ??__Finst@?1??get@?$singleton@Vantiaim@@@@SAAAVantiaim@@XZ@YAXXZ 101855a0 f i local_animations.obj
 0001:001845b0       ??__Finst@?1??get@?$singleton@Vfakelag@@@@SAAAVfakelag@@XZ@YAXXZ 101855b0 f i local_animations.obj
 0001:001845c0       ??__Finst@?1??get@?$singleton@Vlocal_animations@@@@SAAAVlocal_animations@@XZ@YAXXZ 101855c0 f i local_animations.obj
 0001:001845d0       ??__Finst@?1??get@?$singleton@Vautowall@@@@SAAAVautowall@@XZ@YAXXZ 101855d0 f i legitbot.obj
 0001:00184610       ??__Finst@?1??get@?$singleton@Vc_menu@@@@SAAAVc_menu@@XZ@YAXXZ 10185610 f i menu.obj
 0001:00184620       ??__Finst@?1??get@?$singleton@Veventlogs@@@@SAAAVeventlogs@@XZ@YAXXZ 10185620 f i menu.obj
 0001:00184630       ??__Finst@?1??get@?$singleton@Vaim@@@@SAAAVaim@@XZ@YAXXZ 10185630 f i fakelag.obj
 0001:00184660       ??__Finst@?1??get@?$singleton@Vmisc@@@@SAAAVmisc@@XZ@YAXXZ 10185660 f i fakelag.obj
 0001:00184670       ??__Finst@?1??get@?$singleton@Vrender@@@@SAAAVrender@@XZ@YAXXZ 10185670 f i logs.obj
 0001:001846a0       ??__Finst@?1??get@?$singleton@Vworldesp@@@@SAAAVworldesp@@XZ@YAXXZ 101856a0 f i misc.obj
 0001:001846b0       ??__Finst@?1??get@?$singleton@Vslowwalk@@@@SAAAVslowwalk@@XZ@YAXXZ 101856b0 f i aim.obj
 0001:001846d0       ??__Finst@?1??get@?$singleton@Vc_dormant_esp@@@@SAAAVc_dormant_esp@@XZ@YAXXZ 101856d0 f i player_esp.obj
 0001:00184740       ??__Finst@?1??get@?$singleton@Vlegit_bot@@@@SAAAVlegit_bot@@XZ@YAXXZ 10185740 f i hooked_createmove.obj
 0001:00184750       ??__Finst@?1??get@?$singleton@Vbunnyhop@@@@SAAAVbunnyhop@@XZ@YAXXZ 10185750 f i hooked_createmove.obj
 0001:00184760       ??__Finst@?1??get@?$singleton@Vairstrafe@@@@SAAAVairstrafe@@XZ@YAXXZ 10185760 f i hooked_createmove.obj
 0001:00184770       ??__Finst@?1??get@?$singleton@Vspammers@@@@SAAAVspammers@@XZ@YAXXZ 10185770 f i hooked_createmove.obj
 0001:00184780       ??__Finst@?1??get@?$singleton@VGrenadePrediction@@@@SAAAVGrenadePrediction@@XZ@YAXXZ 10185780 f i hooked_createmove.obj
 0001:001847a0       ??__Finst@?1??get@?$singleton@Vknifebot@@@@SAAAVknifebot@@XZ@YAXXZ 101857a0 f i hooked_createmove.obj
 0001:001847b0       ??__Finst@?1??get@?$singleton@Vzeusbot@@@@SAAAVzeusbot@@XZ@YAXXZ 101857b0 f i hooked_createmove.obj
 0001:001847c0       ??__Finst@?1??get@?$singleton@Vplayeresp@@@@SAAAVplayeresp@@XZ@YAXXZ 101857c0 f i hooked_dme.obj
 0001:001847d0       ??__Finst@?1??get@?$singleton@Vlagcompensation@@@@SAAAVlagcompensation@@XZ@YAXXZ 101857d0 f i hooked_events.obj
 0001:001847e0       ??__Finst@?1??get@?$singleton@Votheresp@@@@SAAAVotheresp@@XZ@YAXXZ 101857e0 f i hooked_events.obj
 0001:001847f0       ??__Finst@?1??get@?$singleton@Vbullettracers@@@@SAAAVbullettracers@@XZ@YAXXZ 101857f0 f i hooked_events.obj
 0001:00184810       ??__Finst@?1??get@?$singleton@Vnightmode@@@@SAAAVnightmode@@XZ@YAXXZ 10185810 f i hooked_fsn.obj
 0002:00000000       __imp__ImmSetCompositionWindow@8 10186000     imm32:IMM32.dll
 0002:00000004       __imp__ImmGetContext@4     10186004     imm32:IMM32.dll
 0002:00000008       __imp__ImmReleaseContext@8 10186008     imm32:IMM32.dll
 0002:0000000c       \177IMM32_NULL_THUNK_DATA  1018600c     imm32:IMM32.dll
 0002:00000010       __imp__MultiByteToWideChar@24 10186010     kernel32:KERNEL32.dll
 0002:00000014       __imp__GlobalAlloc@8       10186014     kernel32:KERNEL32.dll
 0002:00000018       __imp__GlobalFree@4        10186018     kernel32:KERNEL32.dll
 0002:0000001c       __imp__GlobalLock@4        1018601c     kernel32:KERNEL32.dll
 0002:00000020       __imp__WideCharToMultiByte@32 10186020     kernel32:KERNEL32.dll
 0002:00000024       __imp__GlobalUnlock@4      10186024     kernel32:KERNEL32.dll
 0002:00000028       __imp__LoadLibraryA@4      10186028     kernel32:KERNEL32.dll
 0002:0000002c       __imp__QueryPerformanceFrequency@4 1018602c     kernel32:KERNEL32.dll
 0002:00000030       __imp__GetProcAddress@8    10186030     kernel32:KERNEL32.dll
 0002:00000034       __imp__QueryPerformanceCounter@4 10186034     kernel32:KERNEL32.dll
 0002:00000038       __imp__CreateThread@24     10186038     kernel32:KERNEL32.dll
 0002:0000003c       __imp__GetCurrentProcess@0 1018603c     kernel32:KERNEL32.dll
 0002:00000040       __imp__GetModuleHandleA@4  10186040     kernel32:KERNEL32.dll
 0002:00000044       __imp__K32GetModuleInformation@16 10186044     kernel32:KERNEL32.dll
 0002:00000048       __imp__EnterCriticalSection@4 10186048     kernel32:KERNEL32.dll
 0002:0000004c       __imp__InitializeSListHead@4 1018604c     kernel32:KERNEL32.dll
 0002:00000050       __imp__GetSystemTimeAsFileTime@4 10186050     kernel32:KERNEL32.dll
 0002:00000054       __imp__GetCurrentThreadId@0 10186054     kernel32:KERNEL32.dll
 0002:00000058       __imp__GetCurrentProcessId@0 10186058     kernel32:KERNEL32.dll
 0002:0000005c       __imp__IsDebuggerPresent@0 1018605c     kernel32:KERNEL32.dll
 0002:00000060       __imp__IsProcessorFeaturePresent@4 10186060     kernel32:KERNEL32.dll
 0002:00000064       __imp__TerminateProcess@8  10186064     kernel32:KERNEL32.dll
 0002:00000068       __imp__SetUnhandledExceptionFilter@4 10186068     kernel32:KERNEL32.dll
 0002:0000006c       __imp__UnhandledExceptionFilter@4 1018606c     kernel32:KERNEL32.dll
 0002:00000070       __imp__GetModuleHandleW@4  10186070     kernel32:KERNEL32.dll
 0002:00000074       __imp__CreateEventW@16     10186074     kernel32:KERNEL32.dll
 0002:00000078       __imp__WaitForSingleObjectEx@12 10186078     kernel32:KERNEL32.dll
 0002:0000007c       __imp__ResetEvent@4        1018607c     kernel32:KERNEL32.dll
 0002:00000080       __imp__SetEvent@4          10186080     kernel32:KERNEL32.dll
 0002:00000084       __imp__DeleteCriticalSection@4 10186084     kernel32:KERNEL32.dll
 0002:00000088       __imp__InitializeCriticalSectionAndSpinCount@8 10186088     kernel32:KERNEL32.dll
 0002:0000008c       __imp__LeaveCriticalSection@4 1018608c     kernel32:KERNEL32.dll
 0002:00000090       __imp__CloseHandle@4       10186090     kernel32:KERNEL32.dll
 0002:00000094       __imp__FlushInstructionCache@12 10186094     kernel32:KERNEL32.dll
 0002:00000098       __imp__SetLastError@4      10186098     kernel32:KERNEL32.dll
 0002:0000009c       __imp__VirtualProtect@16   1018609c     kernel32:KERNEL32.dll
 0002:000000a0       __imp__GetTickCount@0      101860a0     kernel32:KERNEL32.dll
 0002:000000a4       __imp__CreateDirectoryA@8  101860a4     kernel32:KERNEL32.dll
 0002:000000a8       \177KERNEL32_NULL_THUNK_DATA 101860a8     kernel32:KERNEL32.dll
 0002:000000ac       __imp_?sbumpc@?$basic_streambuf@DU?$char_traits@D@std@@@std@@QAEHXZ 101860ac     msvcprtd:MSVCP140D.dll
 0002:000000b0       __imp___Xtime_get_ticks    101860b0     msvcprtd:MSVCP140D.dll
 0002:000000b4       __imp_??1_Lockit@std@@QAE@XZ 101860b4     msvcprtd:MSVCP140D.dll
 0002:000000b8       __imp_??0_Lockit@std@@QAE@H@Z 101860b8     msvcprtd:MSVCP140D.dll
 0002:000000bc       __imp_?_Xbad_alloc@std@@YAXXZ 101860bc     msvcprtd:MSVCP140D.dll
 0002:000000c0       __imp_?_Xout_of_range@std@@YAXPBD@Z 101860c0     msvcprtd:MSVCP140D.dll
 0002:000000c4       __imp_?_Xlength_error@std@@YAXPBD@Z 101860c4     msvcprtd:MSVCP140D.dll
 0002:000000c8       __imp_?uncaught_exceptions@std@@YAHXZ 101860c8     msvcprtd:MSVCP140D.dll
 0002:000000cc       __imp_?sputn@?$basic_streambuf@DU?$char_traits@D@std@@@std@@QAE_JPBD_J@Z 101860cc     msvcprtd:MSVCP140D.dll
 0002:000000d0       __imp_?sputc@?$basic_streambuf@DU?$char_traits@D@std@@@std@@QAEHD@Z 101860d0     msvcprtd:MSVCP140D.dll
 0002:000000d4       __imp_??0?$basic_streambuf@DU?$char_traits@D@std@@@std@@IAE@XZ 101860d4     msvcprtd:MSVCP140D.dll
 0002:000000d8       __imp_?_Osfx@?$basic_ostream@DU?$char_traits@D@std@@@std@@QAEXXZ 101860d8     msvcprtd:MSVCP140D.dll
 0002:000000dc       __imp_?flush@?$basic_ostream@DU?$char_traits@D@std@@@std@@QAEAAV12@XZ 101860dc     msvcprtd:MSVCP140D.dll
 0002:000000e0       __imp_?setstate@?$basic_ios@DU?$char_traits@D@std@@@std@@QAEXH_N@Z 101860e0     msvcprtd:MSVCP140D.dll
 0002:000000e4       __imp_??0?$basic_ios@DU?$char_traits@D@std@@@std@@IAE@XZ 101860e4     msvcprtd:MSVCP140D.dll
 0002:000000e8       __imp_??0?$basic_iostream@DU?$char_traits@D@std@@@std@@QAE@PAV?$basic_streambuf@DU?$char_traits@D@std@@@1@@Z 101860e8     msvcprtd:MSVCP140D.dll
 0002:000000ec       __imp_??1?$basic_streambuf@DU?$char_traits@D@std@@@std@@UAE@XZ 101860ec     msvcprtd:MSVCP140D.dll
 0002:000000f0       __imp_?_Lock@?$basic_streambuf@DU?$char_traits@D@std@@@std@@UAEXXZ 101860f0     msvcprtd:MSVCP140D.dll
 0002:000000f4       __imp_?_Unlock@?$basic_streambuf@DU?$char_traits@D@std@@@std@@UAEXXZ 101860f4     msvcprtd:MSVCP140D.dll
 0002:000000f8       __imp_?showmanyc@?$basic_streambuf@DU?$char_traits@D@std@@@std@@MAE_JXZ 101860f8     msvcprtd:MSVCP140D.dll
 0002:000000fc       __imp_?uflow@?$basic_streambuf@DU?$char_traits@D@std@@@std@@MAEHXZ 101860fc     msvcprtd:MSVCP140D.dll
 0002:00000100       __imp_?xsgetn@?$basic_streambuf@DU?$char_traits@D@std@@@std@@MAE_JPAD_J@Z 10186100     msvcprtd:MSVCP140D.dll
 0002:00000104       __imp_?xsputn@?$basic_streambuf@DU?$char_traits@D@std@@@std@@MAE_JPBD_J@Z 10186104     msvcprtd:MSVCP140D.dll
 0002:00000108       __imp_?setbuf@?$basic_streambuf@DU?$char_traits@D@std@@@std@@MAEPAV12@PAD_J@Z 10186108     msvcprtd:MSVCP140D.dll
 0002:0000010c       __imp_?sync@?$basic_streambuf@DU?$char_traits@D@std@@@std@@MAEHXZ 1018610c     msvcprtd:MSVCP140D.dll
 0002:00000110       __imp_?imbue@?$basic_streambuf@DU?$char_traits@D@std@@@std@@MAEXABVlocale@2@@Z 10186110     msvcprtd:MSVCP140D.dll
 0002:00000114       __imp_??1?$basic_ios@DU?$char_traits@D@std@@@std@@UAE@XZ 10186114     msvcprtd:MSVCP140D.dll
 0002:00000118       __imp_??6?$basic_ostream@DU?$char_traits@D@std@@@std@@QAEAAV01@H@Z 10186118     msvcprtd:MSVCP140D.dll
 0002:0000011c       __imp_??1?$basic_iostream@DU?$char_traits@D@std@@@std@@UAE@XZ 1018611c     msvcprtd:MSVCP140D.dll
 0002:00000120       __imp_?_Getgloballocale@locale@std@@CAPAV_Locimp@12@XZ 10186120     msvcprtd:MSVCP140D.dll
 0002:00000124       __imp_?id@?$codecvt@DDU_Mbstatet@@@std@@2V0locale@2@A 10186124     msvcprtd:MSVCP140D.dll
 0002:00000128       __imp_?_Fiopen@std@@YAPAU_iobuf@@PBDHH@Z 10186128     msvcprtd:MSVCP140D.dll
 0002:0000012c       __imp_?_Getcat@?$codecvt@DDU_Mbstatet@@@std@@SAIPAPBVfacet@locale@2@PBV42@@Z 1018612c     msvcprtd:MSVCP140D.dll
 0002:00000130       __imp_?getloc@?$basic_streambuf@DU?$char_traits@D@std@@@std@@QBE?AVlocale@2@XZ 10186130     msvcprtd:MSVCP140D.dll
 0002:00000134       __imp_?sgetc@?$basic_streambuf@DU?$char_traits@D@std@@@std@@QAEHXZ 10186134     msvcprtd:MSVCP140D.dll
 0002:00000138       __imp_?unshift@?$codecvt@DDU_Mbstatet@@@std@@QBEHAAU_Mbstatet@@PAD1AAPAD@Z 10186138     msvcprtd:MSVCP140D.dll
 0002:0000013c       __imp_?_Init@?$basic_streambuf@DU?$char_traits@D@std@@@std@@IAEXXZ 1018613c     msvcprtd:MSVCP140D.dll
 0002:00000140       __imp_?in@?$codecvt@DDU_Mbstatet@@@std@@QBEHAAU_Mbstatet@@PBD1AAPBDPAD3AAPAD@Z 10186140     msvcprtd:MSVCP140D.dll
 0002:00000144       __imp_?out@?$codecvt@DDU_Mbstatet@@@std@@QBEHAAU_Mbstatet@@PBD1AAPBDPAD3AAPAD@Z 10186144     msvcprtd:MSVCP140D.dll
 0002:00000148       __imp_??0?$basic_istream@DU?$char_traits@D@std@@@std@@QAE@PAV?$basic_streambuf@DU?$char_traits@D@std@@@1@_N@Z 10186148     msvcprtd:MSVCP140D.dll
 0002:0000014c       __imp_??1?$basic_istream@DU?$char_traits@D@std@@@std@@UAE@XZ 1018614c     msvcprtd:MSVCP140D.dll
 0002:00000150       __imp_?always_noconv@codecvt_base@std@@QBE_NXZ 10186150     msvcprtd:MSVCP140D.dll
 0002:00000154       __imp_??Bid@locale@std@@QAEIXZ 10186154     msvcprtd:MSVCP140D.dll
 0002:00000158       __imp___Query_perf_frequency 10186158     msvcprtd:MSVCP140D.dll
 0002:0000015c       __imp___Thrd_sleep         1018615c     msvcprtd:MSVCP140D.dll
 0002:00000160       __imp___Query_perf_counter 10186160     msvcprtd:MSVCP140D.dll
 0002:00000164       \177MSVCP140D_NULL_THUNK_DATA 10186164     msvcprtd:MSVCP140D.dll
 0002:00000168       __imp__SHGetFolderPathA@20 10186168     shell32:SHELL32.dll
 0002:0000016c       \177SHELL32_NULL_THUNK_DATA 1018616c     shell32:SHELL32.dll
 0002:00000170       __imp__GetAsyncKeyState@4  10186170     user32:USER32.dll
 0002:00000174       __imp__SetClipboardData@8  10186174     user32:USER32.dll
 0002:00000178       __imp__GetClipboardData@4  10186178     user32:USER32.dll
 0002:0000017c       __imp__EmptyClipboard@0    1018617c     user32:USER32.dll
 0002:00000180       __imp__CloseClipboard@0    10186180     user32:USER32.dll
 0002:00000184       __imp__GetKeyState@4       10186184     user32:USER32.dll
 0002:00000188       __imp__LoadCursorA@8       10186188     user32:USER32.dll
 0002:0000018c       __imp__OpenClipboard@4     1018618c     user32:USER32.dll
 0002:00000190       __imp__ReleaseCapture@0    10186190     user32:USER32.dll
 0002:00000194       __imp__SetCapture@4        10186194     user32:USER32.dll
 0002:00000198       __imp__GetCapture@0        10186198     user32:USER32.dll
 0002:0000019c       __imp__GetCursorPos@4      1018619c     user32:USER32.dll
 0002:000001a0       __imp__SetCursorPos@8      101861a0     user32:USER32.dll
 0002:000001a4       __imp__GetClientRect@8     101861a4     user32:USER32.dll
 0002:000001a8       __imp__SetCursor@4         101861a8     user32:USER32.dll
 0002:000001ac       __imp__GetForegroundWindow@0 101861ac     user32:USER32.dll
 0002:000001b0       __imp__IsChild@8           101861b0     user32:USER32.dll
 0002:000001b4       __imp__ClientToScreen@8    101861b4     user32:USER32.dll
 0002:000001b8       __imp__ScreenToClient@8    101861b8     user32:USER32.dll
 0002:000001bc       __imp__CallWindowProcA@20  101861bc     user32:USER32.dll
 0002:000001c0       \177USER32_NULL_THUNK_DATA 101861c0     user32:USER32.dll
 0002:000001c4       __imp___setjmp3            101861c4     vcruntimed:VCRUNTIME140D.dll
 0002:000001c8       __imp____current_exception 101861c8     vcruntimed:VCRUNTIME140D.dll
 0002:000001cc       __imp____current_exception_context 101861cc     vcruntimed:VCRUNTIME140D.dll
 0002:000001d0       __imp___CxxThrowException@8 101861d0     vcruntimed:VCRUNTIME140D.dll
 0002:000001d4       __imp___except_handler4_common 101861d4     vcruntimed:VCRUNTIME140D.dll
 0002:000001d8       __imp____std_type_info_destroy_list 101861d8     vcruntimed:VCRUNTIME140D.dll
 0002:000001dc       __imp__longjmp             101861dc     vcruntimed:VCRUNTIME140D.dll
 0002:000001e0       __imp__memchr              101861e0     vcruntimed:VCRUNTIME140D.dll
 0002:000001e4       __imp__strrchr             101861e4     vcruntimed:VCRUNTIME140D.dll
 0002:000001e8       __imp__memcpy              101861e8     vcruntimed:VCRUNTIME140D.dll
 0002:000001ec       __imp__memcmp              101861ec     vcruntimed:VCRUNTIME140D.dll
 0002:000001f0       __imp____CxxFrameHandler3  101861f0     vcruntimed:VCRUNTIME140D.dll
 0002:000001f4       __imp____std_exception_destroy 101861f4     vcruntimed:VCRUNTIME140D.dll
 0002:000001f8       __imp____std_exception_copy 101861f8     vcruntimed:VCRUNTIME140D.dll
 0002:000001fc       __imp___purecall           101861fc     vcruntimed:VCRUNTIME140D.dll
 0002:00000200       __imp____std_terminate     10186200     vcruntimed:VCRUNTIME140D.dll
 0002:00000204       __imp__strstr              10186204     vcruntimed:VCRUNTIME140D.dll
 0002:00000208       __imp__memset              10186208     vcruntimed:VCRUNTIME140D.dll
 0002:0000020c       __imp__memmove             1018620c     vcruntimed:VCRUNTIME140D.dll
 0002:00000210       \177VCRUNTIME140D_NULL_THUNK_DATA 10186210     vcruntimed:VCRUNTIME140D.dll
 0002:00000214       __imp__XInputGetState@8    10186214     xinput:XINPUT1_4.dll
 0002:00000218       __imp__XInputGetCapabilities@12 10186218     xinput:XINPUT1_4.dll
 0002:0000021c       \177XINPUT1_4_NULL_THUNK_DATA 1018621c     xinput:XINPUT1_4.dll
 0002:00000220       __imp__D3DXCreateTextureFromFileInMemory@16 10186220     d3dx9:d3dx9_43.dll
 0002:00000224       \177d3dx9_43_NULL_THUNK_DATA 10186224     d3dx9:d3dx9_43.dll
 0002:00000228       __imp__fwrite              10186228     ucrtd:ucrtbased.dll
 0002:0000022c       __imp__fgetpos             1018622c     ucrtd:ucrtbased.dll
 0002:00000230       __imp__setvbuf             10186230     ucrtd:ucrtbased.dll
 0002:00000234       __imp__ungetc              10186234     ucrtd:ucrtbased.dll
 0002:00000238       __imp__fsetpos             10186238     ucrtd:ucrtbased.dll
 0002:0000023c       __imp__fread               1018623c     ucrtd:ucrtbased.dll
 0002:00000240       __imp___fseeki64           10186240     ucrtd:ucrtbased.dll
 0002:00000244       __imp___time64             10186244     ucrtd:ucrtbased.dll
 0002:00000248       __imp___localtime64        10186248     ucrtd:ucrtbased.dll
 0002:0000024c       __imp__ftell               1018624c     ucrtd:ucrtbased.dll
 0002:00000250       __imp__fseek               10186250     ucrtd:ucrtbased.dll
 0002:00000254       __imp__qsort               10186254     ucrtd:ucrtbased.dll
 0002:00000258       __imp__strncpy             10186258     ucrtd:ucrtbased.dll
 0002:0000025c       __imp___wfopen             1018625c     ucrtd:ucrtbased.dll
 0002:00000260       __imp____stdio_common_vsscanf 10186260     ucrtd:ucrtbased.dll
 0002:00000264       __imp__malloc              10186264     ucrtd:ucrtbased.dll
 0002:00000268       __imp__strncmp             10186268     ucrtd:ucrtbased.dll
 0002:0000026c       __imp__fopen               1018626c     ucrtd:ucrtbased.dll
 0002:00000270       __imp__tolower             10186270     ucrtd:ucrtbased.dll
 0002:00000274       __imp__atoi                10186274     ucrtd:ucrtbased.dll
 0002:00000278       __imp__strtol              10186278     ucrtd:ucrtbased.dll
 0002:0000027c       __imp__isdigit             1018627c     ucrtd:ucrtbased.dll
 0002:00000280       __imp___unlock_file        10186280     ucrtd:ucrtbased.dll
 0002:00000284       __imp___free_dbg           10186284     ucrtd:ucrtbased.dll
 0002:00000288       __imp___malloc_dbg         10186288     ucrtd:ucrtbased.dll
 0002:0000028c       __imp___CrtDbgReportW      1018628c     ucrtd:ucrtbased.dll
 0002:00000290       __imp___callnewh           10186290     ucrtd:ucrtbased.dll
 0002:00000294       __imp___seh_filter_dll     10186294     ucrtd:ucrtbased.dll
 0002:00000298       __imp___configure_narrow_argv 10186298     ucrtd:ucrtbased.dll
 0002:0000029c       __imp___initialize_narrow_environment 1018629c     ucrtd:ucrtbased.dll
 0002:000002a0       __imp___initialize_onexit_table 101862a0     ucrtd:ucrtbased.dll
 0002:000002a4       __imp___register_onexit_function 101862a4     ucrtd:ucrtbased.dll
 0002:000002a8       __imp___execute_onexit_table 101862a8     ucrtd:ucrtbased.dll
 0002:000002ac       __imp___crt_atexit         101862ac     ucrtd:ucrtbased.dll
 0002:000002b0       __imp___cexit              101862b0     ucrtd:ucrtbased.dll
 0002:000002b4       __imp__terminate           101862b4     ucrtd:ucrtbased.dll
 0002:000002b8       __imp___initterm           101862b8     ucrtd:ucrtbased.dll
 0002:000002bc       __imp___initterm_e         101862bc     ucrtd:ucrtbased.dll
 0002:000002c0       __imp__floor               101862c0     ucrtd:ucrtbased.dll
 0002:000002c4       __imp__fclose              101862c4     ucrtd:ucrtbased.dll
 0002:000002c8       __imp__fflush              101862c8     ucrtd:ucrtbased.dll
 0002:000002cc       __imp__fputc               101862cc     ucrtd:ucrtbased.dll
 0002:000002d0       __imp__free                101862d0     ucrtd:ucrtbased.dll
 0002:000002d4       __imp__srand               101862d4     ucrtd:ucrtbased.dll
 0002:000002d8       __imp__rand                101862d8     ucrtd:ucrtbased.dll
 0002:000002dc       __imp____stdio_common_vsprintf 101862dc     ucrtd:ucrtbased.dll
 0002:000002e0       __imp__iswalpha            101862e0     ucrtd:ucrtbased.dll
 0002:000002e4       __imp__strcpy_s            101862e4     ucrtd:ucrtbased.dll
 0002:000002e8       __imp____stdio_common_vsprintf_s 101862e8     ucrtd:ucrtbased.dll
 0002:000002ec       __imp__towlower            101862ec     ucrtd:ucrtbased.dll
 0002:000002f0       __imp__fmaxf               101862f0     ucrtd:ucrtbased.dll
 0002:000002f4       __imp___invalid_parameter  101862f4     ucrtd:ucrtbased.dll
 0002:000002f8       __imp___CrtDbgReport       101862f8     ucrtd:ucrtbased.dll
 0002:000002fc       __imp___lock_file          101862fc     ucrtd:ucrtbased.dll
 0002:00000300       __imp__fgetc               10186300     ucrtd:ucrtbased.dll
 0002:00000304       __imp__atof                10186304     ucrtd:ucrtbased.dll
 0002:00000308       __imp___get_stream_buffer_pointers 10186308     ucrtd:ucrtbased.dll
 0002:0000030c       __imp___CIatan2            1018630c     ucrtd:ucrtbased.dll
 0002:00000310       __imp___CIfmod             10186310     ucrtd:ucrtbased.dll
 0002:00000314       __imp___fdclass            10186314     ucrtd:ucrtbased.dll
 0002:00000318       __imp___libm_sse2_acos_precise 10186318     ucrtd:ucrtbased.dll
 0002:0000031c       __imp___libm_sse2_atan_precise 1018631c     ucrtd:ucrtbased.dll
 0002:00000320       __imp___libm_sse2_cos_precise 10186320     ucrtd:ucrtbased.dll
 0002:00000324       __imp___libm_sse2_exp_precise 10186324     ucrtd:ucrtbased.dll
 0002:00000328       __imp___libm_sse2_pow_precise 10186328     ucrtd:ucrtbased.dll
 0002:0000032c       __imp___libm_sse2_sin_precise 1018632c     ucrtd:ucrtbased.dll
 0002:00000330       __imp___libm_sse2_sqrt_precise 10186330     ucrtd:ucrtbased.dll
 0002:00000334       __imp___libm_sse2_tan_precise 10186334     ucrtd:ucrtbased.dll
 0002:00000338       __imp__ceil                10186338     ucrtd:ucrtbased.dll
 0002:0000033c       \177ucrtbased_NULL_THUNK_DATA 1018633c     ucrtd:ucrtbased.dll
 0002:00000340       ___guard_check_icall_fptr  10186340     MSVCRTD:guard_support.obj
 0002:00000344       ___xc_a                    10186344     MSVCRTD:initializers.obj
 0002:00000bb4       ___xc_z                    10186bb4     MSVCRTD:initializers.obj
 0002:00000bb8       ___xi_a                    10186bb8     MSVCRTD:initializers.obj
 0002:00000bc0       ___xi_z                    10186bc0     MSVCRTD:initializers.obj
 0002:00000bc4       ___xl_a                    10186bc4     MSVCRTD:tlssup.obj
 0002:00000bc8       ___xl_z                    10186bc8     MSVCRTD:tlssup.obj
 0002:00000bcc       ___xp_a                    10186bcc     MSVCRTD:initializers.obj
 0002:00000bd0       ___xp_z                    10186bd0     MSVCRTD:initializers.obj
 0002:00000bd4       ___xt_a                    10186bd4     MSVCRTD:initializers.obj
 0002:00000bd8       ___xt_z                    10186bd8     MSVCRTD:initializers.obj
 0002:00000be0       ?s_rbModRm@CDetourDis@@1QBEB 10186be0     detours:disasm.obj
 0002:00000ce0       ?s_rceCopyTable@CDetourDis@@1QBUCOPYENTRY@1@B 10186ce0     detours:disasm.obj
 0002:000014e8       ?s_rceCopyTable0F@CDetourDis@@1QBUCOPYENTRY@1@B 101874e8     detours:disasm.obj
 0002:00001df4       ??_C@_02PEOAMJM@?4_@       10187df4     freetype:ftbase.obj
 0002:00001df8       ??_C@_05FLPKNBDI@?1rsrc@   10187df8     freetype:ftbase.obj
 0002:00001e00       ??_C@_0BC@OBHLCHMP@?1?4?4namedfork?1rsrc@ 10187e00     freetype:ftbase.obj
 0002:00001e14       ??_C@_0O@FDMCFKOC@resource?4frk?1@ 10187e14     freetype:ftbase.obj
 0002:00001e24       ??_C@_0L@FGJFJHGF@?4resource?1@ 10187e24     freetype:ftbase.obj
 0002:00001e30       ??_C@_01FGNFDNOH@?$CF@     10187e30     freetype:ftbase.obj
 0002:00001e34       ??_C@_0O@KCDCBAF@?4AppleDouble?1@ 10187e34     freetype:ftbase.obj
 0002:00001e44       ??_C@_0M@NJKHAGNP@font?9format@ 10187e44     freetype:ftbase.obj
 0002:00001e50       ??_C@_06JCBOBHIA@Type?51@  10187e50     freetype:ftbase.obj
 0002:00001e58       ??_C@_03LBLPCGAC@cid@      10187e58     freetype:ftbase.obj
 0002:00001e5c       ??_C@_05MJDCDNNA@type1@    10187e5c     freetype:ftbase.obj
 0002:00001e64       ??_C@_03IINFADLN@cff@      10187e64     freetype:ftbase.obj
 0002:00001e68       ??_C@_08OKLLNAKL@truetype@ 10187e68     freetype:ftbase.obj
 0002:00001e74       ??_C@_07IAOBDJBM@kerning@  10187e74     freetype:ftbase.obj
 0002:00001e7c       ??_C@_0L@POCJHJKN@glyph?9dict@ 10187e7c     freetype:ftbase.obj
 0002:00001e88       ??_C@_0BF@GDPJODJF@postscript?9font?9name@ 10187e88     freetype:ftbase.obj
 0002:00001ea0       ??_C@_0L@MBBJBANC@sfnt?9table@ 10187ea0     freetype:ftbase.obj
 0002:00001eac       ??_C@_08OHCKCLF@tt?9cmaps@ 10187eac     freetype:ftbase.obj
 0002:00001eb8       ??_C@_0L@CIHKIEFA@properties@ 10187eb8     freetype:ftbase.obj
 0002:00001ec4       ??_C@_06GNKBHGHD@type42@   10187ec4     freetype:ftbase.obj
 0002:00001ecc       ??_C@_0BA@DHLLBDBB@truetype?9engine@ 10187ecc     freetype:ftbase.obj
 0002:00001edc       ??_C@_0BF@GIDENNON@darkening?9parameters@ 10187edc     freetype:ftbase.obj
 0002:00001ef4       ??_C@_0P@DGAAAJJA@hinting?9engine@ 10187ef4     freetype:ftbase.obj
 0002:00001f04       ??_C@_05NBLLDENH@adobe@    10187f04     freetype:ftbase.obj
 0002:00001f0c       ??_C@_0BC@GFOLLGHN@no?9stem?9darkening@ 10187f0c     freetype:ftbase.obj
 0002:00001f20       ??_C@_0M@LGDPDIPE@random?9seed@ 10187f20     freetype:ftbase.obj
 0002:00001f2c       ??_C@_0BE@CELKBFDM@glyph?9to?9script?9map@ 10187f2c     freetype:autofit.obj
 0002:00001f58       _af_autofitter_interface   10187f58     freetype:autofit.obj
 0002:00002068       _af_blue_strings           10188068     freetype:autofit.obj
 0002:000034d8       _af_blue_stringsets        101894d8     freetype:autofit.obj
 0002:00003ca8       _autofit_module_class      10189ca8     freetype:autofit.obj
 0002:00003ccc       _af_writing_system_classes 10189ccc     freetype:autofit.obj
 0002:00003ce0       _af_adlm_script_class      10189ce0     freetype:autofit.obj
 0002:00003cf4       _af_arab_script_class      10189cf4     freetype:autofit.obj
 0002:00003d08       _af_armn_script_class      10189d08     freetype:autofit.obj
 0002:00003d1c       _af_avst_script_class      10189d1c     freetype:autofit.obj
 0002:00003d30       _af_bamu_script_class      10189d30     freetype:autofit.obj
 0002:00003d44       _af_beng_script_class      10189d44     freetype:autofit.obj
 0002:00003d58       _af_buhd_script_class      10189d58     freetype:autofit.obj
 0002:00003d6c       _af_cakm_script_class      10189d6c     freetype:autofit.obj
 0002:00003d80       _af_cans_script_class      10189d80     freetype:autofit.obj
 0002:00003d94       _af_cari_script_class      10189d94     freetype:autofit.obj
 0002:00003da8       _af_cher_script_class      10189da8     freetype:autofit.obj
 0002:00003dbc       _af_copt_script_class      10189dbc     freetype:autofit.obj
 0002:00003dd0       _af_cprt_script_class      10189dd0     freetype:autofit.obj
 0002:00003de4       _af_cyrl_script_class      10189de4     freetype:autofit.obj
 0002:00003df8       _af_deva_script_class      10189df8     freetype:autofit.obj
 0002:00003e0c       _af_dsrt_script_class      10189e0c     freetype:autofit.obj
 0002:00003e20       _af_ethi_script_class      10189e20     freetype:autofit.obj
 0002:00003e34       _af_geor_script_class      10189e34     freetype:autofit.obj
 0002:00003e48       _af_geok_script_class      10189e48     freetype:autofit.obj
 0002:00003e5c       _af_glag_script_class      10189e5c     freetype:autofit.obj
 0002:00003e70       _af_goth_script_class      10189e70     freetype:autofit.obj
 0002:00003e84       _af_grek_script_class      10189e84     freetype:autofit.obj
 0002:00003e98       _af_gujr_script_class      10189e98     freetype:autofit.obj
 0002:00003eac       _af_guru_script_class      10189eac     freetype:autofit.obj
 0002:00003ec0       _af_hebr_script_class      10189ec0     freetype:autofit.obj
 0002:00003ed4       _af_kali_script_class      10189ed4     freetype:autofit.obj
 0002:00003ee8       _af_khmr_script_class      10189ee8     freetype:autofit.obj
 0002:00003efc       _af_khms_script_class      10189efc     freetype:autofit.obj
 0002:00003f10       _af_knda_script_class      10189f10     freetype:autofit.obj
 0002:00003f24       _af_lao_script_class       10189f24     freetype:autofit.obj
 0002:00003f38       _af_latn_script_class      10189f38     freetype:autofit.obj
 0002:00003f4c       _af_latb_script_class      10189f4c     freetype:autofit.obj
 0002:00003f60       _af_latp_script_class      10189f60     freetype:autofit.obj
 0002:00003f74       _af_lisu_script_class      10189f74     freetype:autofit.obj
 0002:00003f88       _af_mlym_script_class      10189f88     freetype:autofit.obj
 0002:00003f9c       _af_mymr_script_class      10189f9c     freetype:autofit.obj
 0002:00003fb0       _af_nkoo_script_class      10189fb0     freetype:autofit.obj
 0002:00003fc4       _af_none_script_class      10189fc4     freetype:autofit.obj
 0002:00003fd8       _af_olck_script_class      10189fd8     freetype:autofit.obj
 0002:00003fec       _af_orkh_script_class      10189fec     freetype:autofit.obj
 0002:00004000       _af_osge_script_class      1018a000     freetype:autofit.obj
 0002:00004014       _af_osma_script_class      1018a014     freetype:autofit.obj
 0002:00004028       _af_saur_script_class      1018a028     freetype:autofit.obj
 0002:0000403c       _af_shaw_script_class      1018a03c     freetype:autofit.obj
 0002:00004050       _af_sinh_script_class      1018a050     freetype:autofit.obj
 0002:00004064       _af_sund_script_class      1018a064     freetype:autofit.obj
 0002:00004078       _af_taml_script_class      1018a078     freetype:autofit.obj
 0002:0000408c       _af_tavt_script_class      1018a08c     freetype:autofit.obj
 0002:000040a0       _af_telu_script_class      1018a0a0     freetype:autofit.obj
 0002:000040b4       _af_tfng_script_class      1018a0b4     freetype:autofit.obj
 0002:000040c8       _af_thai_script_class      1018a0c8     freetype:autofit.obj
 0002:000040dc       _af_vaii_script_class      1018a0dc     freetype:autofit.obj
 0002:000040f0       _af_limb_script_class      1018a0f0     freetype:autofit.obj
 0002:00004104       _af_orya_script_class      1018a104     freetype:autofit.obj
 0002:00004118       _af_sylo_script_class      1018a118     freetype:autofit.obj
 0002:0000412c       _af_tibt_script_class      1018a12c     freetype:autofit.obj
 0002:00004140       _af_hani_script_class      1018a140     freetype:autofit.obj
 0002:00004158       _af_script_classes         1018a158     freetype:autofit.obj
 0002:00004240       _af_adlm_dflt_style_class  1018a240     freetype:autofit.obj
 0002:00004254       _af_arab_dflt_style_class  1018a254     freetype:autofit.obj
 0002:00004268       _af_armn_dflt_style_class  1018a268     freetype:autofit.obj
 0002:0000427c       _af_avst_dflt_style_class  1018a27c     freetype:autofit.obj
 0002:00004290       _af_bamu_dflt_style_class  1018a290     freetype:autofit.obj
 0002:000042a4       _af_beng_dflt_style_class  1018a2a4     freetype:autofit.obj
 0002:000042b8       _af_buhd_dflt_style_class  1018a2b8     freetype:autofit.obj
 0002:000042cc       _af_cakm_dflt_style_class  1018a2cc     freetype:autofit.obj
 0002:000042e0       _af_cans_dflt_style_class  1018a2e0     freetype:autofit.obj
 0002:000042f4       _af_cari_dflt_style_class  1018a2f4     freetype:autofit.obj
 0002:00004308       _af_cher_dflt_style_class  1018a308     freetype:autofit.obj
 0002:0000431c       _af_copt_dflt_style_class  1018a31c     freetype:autofit.obj
 0002:00004330       _af_cprt_dflt_style_class  1018a330     freetype:autofit.obj
 0002:00004344       _af_cyrl_c2cp_style_class  1018a344     freetype:autofit.obj
 0002:00004358       _af_cyrl_c2sc_style_class  1018a358     freetype:autofit.obj
 0002:0000436c       _af_cyrl_ordn_style_class  1018a36c     freetype:autofit.obj
 0002:00004380       _af_cyrl_pcap_style_class  1018a380     freetype:autofit.obj
 0002:00004394       _af_cyrl_sinf_style_class  1018a394     freetype:autofit.obj
 0002:000043a8       _af_cyrl_smcp_style_class  1018a3a8     freetype:autofit.obj
 0002:000043bc       _af_cyrl_subs_style_class  1018a3bc     freetype:autofit.obj
 0002:000043d0       _af_cyrl_sups_style_class  1018a3d0     freetype:autofit.obj
 0002:000043e4       _af_cyrl_titl_style_class  1018a3e4     freetype:autofit.obj
 0002:000043f8       _af_cyrl_dflt_style_class  1018a3f8     freetype:autofit.obj
 0002:0000440c       _af_deva_dflt_style_class  1018a40c     freetype:autofit.obj
 0002:00004420       _af_dsrt_dflt_style_class  1018a420     freetype:autofit.obj
 0002:00004434       _af_ethi_dflt_style_class  1018a434     freetype:autofit.obj
 0002:00004448       _af_geor_dflt_style_class  1018a448     freetype:autofit.obj
 0002:0000445c       _af_geok_dflt_style_class  1018a45c     freetype:autofit.obj
 0002:00004470       _af_glag_dflt_style_class  1018a470     freetype:autofit.obj
 0002:00004484       _af_goth_dflt_style_class  1018a484     freetype:autofit.obj
 0002:00004498       _af_grek_c2cp_style_class  1018a498     freetype:autofit.obj
 0002:000044ac       _af_grek_c2sc_style_class  1018a4ac     freetype:autofit.obj
 0002:000044c0       _af_grek_ordn_style_class  1018a4c0     freetype:autofit.obj
 0002:000044d4       _af_grek_pcap_style_class  1018a4d4     freetype:autofit.obj
 0002:000044e8       _af_grek_sinf_style_class  1018a4e8     freetype:autofit.obj
 0002:000044fc       _af_grek_smcp_style_class  1018a4fc     freetype:autofit.obj
 0002:00004510       _af_grek_subs_style_class  1018a510     freetype:autofit.obj
 0002:00004524       _af_grek_sups_style_class  1018a524     freetype:autofit.obj
 0002:00004538       _af_grek_titl_style_class  1018a538     freetype:autofit.obj
 0002:0000454c       _af_grek_dflt_style_class  1018a54c     freetype:autofit.obj
 0002:00004560       _af_gujr_dflt_style_class  1018a560     freetype:autofit.obj
 0002:00004574       _af_guru_dflt_style_class  1018a574     freetype:autofit.obj
 0002:00004588       _af_hebr_dflt_style_class  1018a588     freetype:autofit.obj
 0002:0000459c       _af_kali_dflt_style_class  1018a59c     freetype:autofit.obj
 0002:000045b0       _af_khmr_dflt_style_class  1018a5b0     freetype:autofit.obj
 0002:000045c4       _af_khms_dflt_style_class  1018a5c4     freetype:autofit.obj
 0002:000045d8       _af_knda_dflt_style_class  1018a5d8     freetype:autofit.obj
 0002:000045ec       _af_lao_dflt_style_class   1018a5ec     freetype:autofit.obj
 0002:00004600       _af_latn_c2cp_style_class  1018a600     freetype:autofit.obj
 0002:00004614       _af_latn_c2sc_style_class  1018a614     freetype:autofit.obj
 0002:00004628       _af_latn_ordn_style_class  1018a628     freetype:autofit.obj
 0002:0000463c       _af_latn_pcap_style_class  1018a63c     freetype:autofit.obj
 0002:00004650       _af_latn_sinf_style_class  1018a650     freetype:autofit.obj
 0002:00004664       _af_latn_smcp_style_class  1018a664     freetype:autofit.obj
 0002:00004678       _af_latn_subs_style_class  1018a678     freetype:autofit.obj
 0002:0000468c       _af_latn_sups_style_class  1018a68c     freetype:autofit.obj
 0002:000046a0       _af_latn_titl_style_class  1018a6a0     freetype:autofit.obj
 0002:000046b4       _af_latn_dflt_style_class  1018a6b4     freetype:autofit.obj
 0002:000046c8       _af_latb_dflt_style_class  1018a6c8     freetype:autofit.obj
 0002:000046dc       _af_latp_dflt_style_class  1018a6dc     freetype:autofit.obj
 0002:000046f0       _af_lisu_dflt_style_class  1018a6f0     freetype:autofit.obj
 0002:00004704       _af_mlym_dflt_style_class  1018a704     freetype:autofit.obj
 0002:00004718       _af_mymr_dflt_style_class  1018a718     freetype:autofit.obj
 0002:0000472c       _af_nkoo_dflt_style_class  1018a72c     freetype:autofit.obj
 0002:00004740       _af_none_dflt_style_class  1018a740     freetype:autofit.obj
 0002:00004754       _af_olck_dflt_style_class  1018a754     freetype:autofit.obj
 0002:00004768       _af_orkh_dflt_style_class  1018a768     freetype:autofit.obj
 0002:0000477c       _af_osge_dflt_style_class  1018a77c     freetype:autofit.obj
 0002:00004790       _af_osma_dflt_style_class  1018a790     freetype:autofit.obj
 0002:000047a4       _af_saur_dflt_style_class  1018a7a4     freetype:autofit.obj
 0002:000047b8       _af_shaw_dflt_style_class  1018a7b8     freetype:autofit.obj
 0002:000047cc       _af_sinh_dflt_style_class  1018a7cc     freetype:autofit.obj
 0002:000047e0       _af_sund_dflt_style_class  1018a7e0     freetype:autofit.obj
 0002:000047f4       _af_taml_dflt_style_class  1018a7f4     freetype:autofit.obj
 0002:00004808       _af_tavt_dflt_style_class  1018a808     freetype:autofit.obj
 0002:0000481c       _af_telu_dflt_style_class  1018a81c     freetype:autofit.obj
 0002:00004830       _af_tfng_dflt_style_class  1018a830     freetype:autofit.obj
 0002:00004844       _af_thai_dflt_style_class  1018a844     freetype:autofit.obj
 0002:00004858       _af_vaii_dflt_style_class  1018a858     freetype:autofit.obj
 0002:0000486c       _af_limb_dflt_style_class  1018a86c     freetype:autofit.obj
 0002:00004880       _af_orya_dflt_style_class  1018a880     freetype:autofit.obj
 0002:00004894       _af_sylo_dflt_style_class  1018a894     freetype:autofit.obj
 0002:000048a8       _af_tibt_dflt_style_class  1018a8a8     freetype:autofit.obj
 0002:000048bc       _af_hani_dflt_style_class  1018a8bc     freetype:autofit.obj
 0002:000048d0       _af_style_classes          1018a8d0     freetype:autofit.obj
 0002:00004a24       _af_latin_writing_system_class 1018aa24     freetype:autofit.obj
 0002:00004a44       _af_cjk_writing_system_class 1018aa44     freetype:autofit.obj
 0002:00004a64       _af_dummy_writing_system_class 1018aa64     freetype:autofit.obj
 0002:00004a84       _af_adlm_uniranges         1018aa84     freetype:autofit.obj
 0002:00004a94       _af_arab_uniranges         1018aa94     freetype:autofit.obj
 0002:00004acc       _af_armn_uniranges         1018aacc     freetype:autofit.obj
 0002:00004ae4       _af_avst_uniranges         1018aae4     freetype:autofit.obj
 0002:00004af4       _af_bamu_uniranges         1018aaf4     freetype:autofit.obj
 0002:00004b04       _af_beng_uniranges         1018ab04     freetype:autofit.obj
 0002:00004b14       _af_buhd_uniranges         1018ab14     freetype:autofit.obj
 0002:00004b24       _af_cakm_uniranges         1018ab24     freetype:autofit.obj
 0002:00004b34       _af_cans_uniranges         1018ab34     freetype:autofit.obj
 0002:00004b4c       _af_cari_uniranges         1018ab4c     freetype:autofit.obj
 0002:00004b5c       _af_cher_uniranges         1018ab5c     freetype:autofit.obj
 0002:00004b74       _af_copt_uniranges         1018ab74     freetype:autofit.obj
 0002:00004b84       _af_cprt_uniranges         1018ab84     freetype:autofit.obj
 0002:00004b94       _af_cyrl_uniranges         1018ab94     freetype:autofit.obj
 0002:00004bc4       _af_deva_uniranges         1018abc4     freetype:autofit.obj
 0002:00004bfc       _af_dsrt_uniranges         1018abfc     freetype:autofit.obj
 0002:00004c0c       _af_ethi_uniranges         1018ac0c     freetype:autofit.obj
 0002:00004c34       _af_geor_uniranges         1018ac34     freetype:autofit.obj
 0002:00004c4c       _af_geok_uniranges         1018ac4c     freetype:autofit.obj
 0002:00004c64       _af_glag_uniranges         1018ac64     freetype:autofit.obj
 0002:00004c7c       _af_goth_uniranges         1018ac7c     freetype:autofit.obj
 0002:00004c8c       _af_grek_uniranges         1018ac8c     freetype:autofit.obj
 0002:00004ca4       _af_gujr_uniranges         1018aca4     freetype:autofit.obj
 0002:00004cb4       _af_guru_uniranges         1018acb4     freetype:autofit.obj
 0002:00004cc4       _af_hebr_uniranges         1018acc4     freetype:autofit.obj
 0002:00004cdc       _af_kali_uniranges         1018acdc     freetype:autofit.obj
 0002:00004cec       _af_khmr_uniranges         1018acec     freetype:autofit.obj
 0002:00004cfc       _af_khms_uniranges         1018acfc     freetype:autofit.obj
 0002:00004d0c       _af_knda_uniranges         1018ad0c     freetype:autofit.obj
 0002:00004d1c       _af_lao_uniranges          1018ad1c     freetype:autofit.obj
 0002:00004d30       _af_latn_uniranges         1018ad30     freetype:autofit.obj
 0002:00004e38       _af_latb_uniranges         1018ae38     freetype:autofit.obj
 0002:00004e58       _af_latp_uniranges         1018ae58     freetype:autofit.obj
